         U ___cxa_pure_virtual
         U __end__
         U __ITM_addUserCommitAction
         U __ITM_memcpyRnWt
         U __ITM_memcpyRtWn
         U __ITM_RU1
         U __ITM_RU4
         U .text
         U .text
         U .text
         U .text
         U .text
         U .text
         U .text
         U .text
         U .text
         U .text
         U .text
         U .text
         U .text
         U .text
         U .text
         U .text
         U .text
         U .text
         U .text
         U .text
         U .text
         U .text
         U .text
         U .text
         U .text
         U .text
         U .text
         U .text
         U .text
         U .text
         U .text
         U .text
         U .text
         U .text
         U .text
         U .text
         U .text
         U .text
         U .text
         U .text
         U .text
         U .text
         U .text
         U .text
         U .text
         U .text
         U .text
         U .text
         U .text
         U .text
         U .text
         U .text
         U .text
         U .text
         U .text
         U .text
         U .text
         U .text
         U .text
         U .text
         U .text
         U .text
         U .text
         U .text
         U .text
         U .text
         U .text
         U .text
         U .text
         U .text
         U .text
         U .text
         U .text
         U .text
         U .text
         U .text
         U .text
         U .text
         U .text
         U .text
         U .text
         U .text
         U .text
         U .text
         U .text
         U .text
         U .text
         U .text
         U .text
         U .text
         U .text
         U .text
         U .text
         U .text
         U .text
         U .text
         U .text
         U .text
         U .text
         U .text
         U .text
         U .text
         U .text
         U .text
         U .text
         U .text
         U .text
         U .text
         U .text
         U .text
         U .text
         U .text
         U .text
         U .text
         U .text
         U .text
         U .text
         U .text
         U .text
         U .text
         U .text
         U .text
         U .text
         U .text
         U .text
         U .text
         U .text
         U .text
         U .text
         U .text
         U .text
         U .text
         U .text
         U .text
         U .text
         U .text
         U .text
         U .text
         U .text
         U .text
         U .text
         U .text
         U .text
         U .text
         U .text
         U .text
         U .text
         U .text
         U .text
         U .text
         U .text
         U .text
         U .text
         U .text
         U .text
         U .text
         U .text
         U .text
         U .text
         U .text
         U .text
         U .text
         U .text
         U .text
         U .text
         U .text
         U .text
         U .text
         U .text
         U .text
         U .text
         U .text
         U .text
         U .text
         U .text
         U .text
         U .text
         U .text
         U .text
         U .text
         U .text
         U .text
         U .text
         U .text
         U .text
         U .text
         U .text
         U .text
         U .text
         U .text
         U .text
         U .text
         U .text
         U .text
         U .text
         U .text
         U .text
         U .text
         U .text
         U .text
         U .text
         U .text
         U __ZGTtdlPv
         U __ZGTtnaj
         U __ZN4Sexy10EditWidget7MouseUpEii
         U __ZN4Sexy10EditWidget7MouseUpEiii
         U __ZN4Sexy10EditWidget9MouseDownEiii
         U __ZN4Sexy10XMLElementD1Ev
         U __ZN4Sexy10XMLElementD1Ev
         U __ZN4Sexy12ButtonWidget7MouseUpEii
         U __ZN4Sexy12ButtonWidget7MouseUpEii
         U __ZN4Sexy12ButtonWidget7MouseUpEii
         U __ZN4Sexy12ButtonWidget7MouseUpEii
         U __ZN4Sexy12ButtonWidget7MouseUpEiii
         U __ZN4Sexy12ButtonWidget7MouseUpEiii
         U __ZN4Sexy12ButtonWidget7MouseUpEiii
         U __ZN4Sexy12ButtonWidget7MouseUpEiii
         U __ZN4Sexy12ButtonWidget9MouseDownEiii
         U __ZN4Sexy12ButtonWidget9MouseDownEiii
         U __ZN4Sexy12ButtonWidget9MouseDownEiii
         U __ZN4Sexy12ButtonWidget9MouseDownEiii
         U __ZN4Sexy12EditListener8AllowKeyEiNS_7KeyCodeE
         U __ZN4Sexy12EditListener8AllowKeyEiNS_7KeyCodeE
         U __ZN4Sexy12EditListener8AllowKeyEiNS_7KeyCodeE
         U __ZN4Sexy12EditListener9AllowTextEiRKNSt7__cxx1112basic_stringIcSt11char_traitsIcESaIcEEE
         U __ZN4Sexy12EditListener9AllowTextEiRKNSt7__cxx1112basic_stringIcSt11char_traitsIcESaIcEEE
         U __ZN4Sexy12EditListener9AllowTextEiRKNSt7__cxx1112basic_stringIcSt11char_traitsIcESaIcEEE
         U __ZN4Sexy12ListListener10ListClosedEi
         U __ZN4Sexy12ListListener17ListHiliteChangedEiii
         U __ZN4Sexy14ButtonListener11ButtonPressEi
         U __ZN4Sexy14ButtonListener11ButtonPressEi
         U __ZN4Sexy14ButtonListener11ButtonPressEi
         U __ZN4Sexy14ButtonListener11ButtonPressEii
         U __ZN4Sexy14ButtonListener11ButtonPressEii
         U __ZN4Sexy14ButtonListener11ButtonPressEii
         U __ZN4Sexy14ButtonListener11ButtonPressEii
         U __ZN4Sexy14ButtonListener11ButtonPressEii
         U __ZN4Sexy14ButtonListener11ButtonPressEii
         U __ZN4Sexy14ButtonListener11ButtonPressEii
         U __ZN4Sexy14ButtonListener11ButtonPressEii
         U __ZN4Sexy14ButtonListener11ButtonPressEii
         U __ZN4Sexy14ButtonListener11ButtonPressEii
         U __ZN4Sexy14ButtonListener11ButtonPressEii
         U __ZN4Sexy14ButtonListener11ButtonPressEii
         U __ZN4Sexy14ButtonListener11ButtonPressEii
         U __ZN4Sexy14ButtonListener11ButtonPressEii
         U __ZN4Sexy14ButtonListener11ButtonPressEii
         U __ZN4Sexy14ButtonListener11ButtonPressEii
         U __ZN4Sexy14ButtonListener11ButtonPressEii
         U __ZN4Sexy14ButtonListener11ButtonPressEii
         U __ZN4Sexy14ButtonListener13ButtonDepressEi
         U __ZN4Sexy14ButtonListener13ButtonDepressEi
         U __ZN4Sexy14ButtonListener13ButtonDepressEi
         U __ZN4Sexy14ButtonListener14ButtonDownTickEi
         U __ZN4Sexy14ButtonListener14ButtonDownTickEi
         U __ZN4Sexy14ButtonListener14ButtonDownTickEi
         U __ZN4Sexy14ButtonListener14ButtonDownTickEi
         U __ZN4Sexy14ButtonListener14ButtonDownTickEi
         U __ZN4Sexy14ButtonListener14ButtonDownTickEi
         U __ZN4Sexy14ButtonListener14ButtonDownTickEi
         U __ZN4Sexy14ButtonListener14ButtonDownTickEi
         U __ZN4Sexy14ButtonListener15ButtonMouseMoveEiii
         U __ZN4Sexy14ButtonListener15ButtonMouseMoveEiii
         U __ZN4Sexy14ButtonListener15ButtonMouseMoveEiii
         U __ZN4Sexy14ButtonListener15ButtonMouseMoveEiii
         U __ZN4Sexy14ButtonListener15ButtonMouseMoveEiii
         U __ZN4Sexy14ButtonListener15ButtonMouseMoveEiii
         U __ZN4Sexy14ButtonListener15ButtonMouseMoveEiii
         U __ZN4Sexy14ButtonListener15ButtonMouseMoveEiii
         U __ZN4Sexy14ButtonListener15ButtonMouseMoveEiii
         U __ZN4Sexy14ButtonListener15ButtonMouseMoveEiii
         U __ZN4Sexy14ButtonListener15ButtonMouseMoveEiii
         U __ZN4Sexy14ButtonListener15ButtonMouseMoveEiii
         U __ZN4Sexy14ButtonListener15ButtonMouseMoveEiii
         U __ZN4Sexy14ButtonListener15ButtonMouseMoveEiii
         U __ZN4Sexy14ButtonListener15ButtonMouseMoveEiii
         U __ZN4Sexy14ButtonListener15ButtonMouseMoveEiii
         U __ZN4Sexy14ButtonListener15ButtonMouseMoveEiii
         U __ZN4Sexy14ButtonListener15ButtonMouseMoveEiii
         U __ZN4Sexy14ButtonListener15ButtonMouseMoveEiii
         U __ZN4Sexy14ButtonListener16ButtonMouseEnterEi
         U __ZN4Sexy14ButtonListener16ButtonMouseEnterEi
         U __ZN4Sexy14ButtonListener16ButtonMouseEnterEi
         U __ZN4Sexy14ButtonListener16ButtonMouseEnterEi
         U __ZN4Sexy14ButtonListener16ButtonMouseEnterEi
         U __ZN4Sexy14ButtonListener16ButtonMouseEnterEi
         U __ZN4Sexy14ButtonListener16ButtonMouseEnterEi
         U __ZN4Sexy14ButtonListener16ButtonMouseEnterEi
         U __ZN4Sexy14ButtonListener16ButtonMouseEnterEi
         U __ZN4Sexy14ButtonListener16ButtonMouseEnterEi
         U __ZN4Sexy14ButtonListener16ButtonMouseEnterEi
         U __ZN4Sexy14ButtonListener16ButtonMouseEnterEi
         U __ZN4Sexy14ButtonListener16ButtonMouseEnterEi
         U __ZN4Sexy14ButtonListener16ButtonMouseEnterEi
         U __ZN4Sexy14ButtonListener16ButtonMouseEnterEi
         U __ZN4Sexy14ButtonListener16ButtonMouseEnterEi
         U __ZN4Sexy14ButtonListener16ButtonMouseEnterEi
         U __ZN4Sexy14ButtonListener16ButtonMouseLeaveEi
         U __ZN4Sexy14ButtonListener16ButtonMouseLeaveEi
         U __ZN4Sexy14ButtonListener16ButtonMouseLeaveEi
         U __ZN4Sexy14ButtonListener16ButtonMouseLeaveEi
         U __ZN4Sexy14ButtonListener16ButtonMouseLeaveEi
         U __ZN4Sexy14ButtonListener16ButtonMouseLeaveEi
         U __ZN4Sexy14ButtonListener16ButtonMouseLeaveEi
         U __ZN4Sexy14ButtonListener16ButtonMouseLeaveEi
         U __ZN4Sexy14ButtonListener16ButtonMouseLeaveEi
         U __ZN4Sexy14ButtonListener16ButtonMouseLeaveEi
         U __ZN4Sexy14ButtonListener16ButtonMouseLeaveEi
         U __ZN4Sexy14ButtonListener16ButtonMouseLeaveEi
         U __ZN4Sexy14ButtonListener16ButtonMouseLeaveEi
         U __ZN4Sexy14ButtonListener16ButtonMouseLeaveEi
         U __ZN4Sexy14ButtonListener16ButtonMouseLeaveEi
         U __ZN4Sexy14ButtonListener16ButtonMouseLeaveEi
         U __ZN4Sexy14ButtonListener16ButtonMouseLeaveEi
         U __ZN4Sexy14ButtonListener16ButtonMouseLeaveEi
         U __ZN4Sexy15ResourceManager7BaseRes14DeleteResourceEv
         U __ZN4Sexy15ResourceManager7BaseResD0Ev
         U __ZN4Sexy15ResourceManager7BaseResD1Ev
         U __ZN4Sexy6Dialog7MouseUpEii
         U __ZN4Sexy6Dialog7MouseUpEii
         U __ZN4Sexy6Dialog7MouseUpEii
         U __ZN4Sexy6Dialog7MouseUpEii
         U __ZN4Sexy6Dialog7MouseUpEii
         U __ZN4Sexy6Dialog7MouseUpEii
         U __ZN4Sexy6Dialog7MouseUpEii
         U __ZN4Sexy6Dialog7MouseUpEii
         U __ZN4Sexy6Dialog7MouseUpEii
         U __ZN4Sexy6Dialog7MouseUpEiii
         U __ZN4Sexy6Dialog7MouseUpEiii
         U __ZN4Sexy6Dialog7MouseUpEiii
         U __ZN4Sexy6Dialog7MouseUpEiii
         U __ZN4Sexy6Dialog7MouseUpEiii
         U __ZN4Sexy6Dialog7MouseUpEiii
         U __ZN4Sexy6Dialog7MouseUpEiii
         U __ZN4Sexy6Dialog9MouseDownEiii
         U __ZN4Sexy6Dialog9MouseDownEiii
         U __ZN4Sexy6Dialog9MouseDownEiii
         U __ZN4Sexy6Dialog9MouseDownEiii
         U __ZN4Sexy6Dialog9MouseDownEiii
         U __ZN4Sexy6Dialog9MouseDownEiii
         U __ZN9__gnu_cxx24__concurrence_lock_errorD0Ev
         U __ZN9__gnu_cxx24__concurrence_lock_errorD0Ev
         U __ZN9__gnu_cxx24__concurrence_lock_errorD0Ev
         U __ZN9__gnu_cxx24__concurrence_lock_errorD1Ev
         U __ZN9__gnu_cxx24__concurrence_lock_errorD1Ev
         U __ZN9__gnu_cxx24__concurrence_lock_errorD1Ev
         U __ZN9__gnu_cxx26__concurrence_unlock_errorD0Ev
         U __ZN9__gnu_cxx26__concurrence_unlock_errorD0Ev
         U __ZN9__gnu_cxx26__concurrence_unlock_errorD0Ev
         U __ZN9__gnu_cxx26__concurrence_unlock_errorD1Ev
         U __ZN9__gnu_cxx26__concurrence_unlock_errorD1Ev
         U __ZN9__gnu_cxx26__concurrence_unlock_errorD1Ev
         U __ZN9__gnu_cxx30__throw_concurrence_lock_errorEv
         U __ZN9__gnu_cxx30__throw_concurrence_lock_errorEv
         U __ZN9__gnu_cxx32__throw_concurrence_unlock_errorEv
         U __ZN9__gnu_cxx32__throw_concurrence_unlock_errorEv
         U __ZN9__gnu_cxx32__throw_concurrence_unlock_errorEv
         U __ZNK9__gnu_cxx24__concurrence_lock_error4whatEv
         U __ZNK9__gnu_cxx24__concurrence_lock_error4whatEv
         U __ZNK9__gnu_cxx24__concurrence_lock_error4whatEv
         U __ZNK9__gnu_cxx26__concurrence_unlock_error4whatEv
         U __ZNK9__gnu_cxx26__concurrence_unlock_error4whatEv
         U __ZNK9__gnu_cxx26__concurrence_unlock_error4whatEv
         U __ZNKSt19istreambuf_iteratorIcSt11char_traitsIcEE6_M_getEv
         U __ZNKSt19istreambuf_iteratorIwSt11char_traitsIwEE6_M_getEv
         U __ZNKSt5ctypeIcE8do_widenEc
         U __ZNKSt5ctypeIcE8do_widenEc
         U __ZNKSt5ctypeIcE8do_widenEc
         U __ZNKSt5ctypeIcE8do_widenEc
         U __ZNKSt5ctypeIcE8do_widenEc
         U __ZNKSt5ctypeIcE8do_widenEc
         U __ZNKSt5ctypeIcE8do_widenEc
         U __ZNKSt5ctypeIcE8do_widenEc
         U __ZNKSt5ctypeIcE8do_widenEc
         U __ZNKSt5ctypeIcE8do_widenEc
         U __ZNKSt5ctypeIcE8do_widenEPKcS2_Pc
         U __ZNKSt5ctypeIcE8do_widenEPKcS2_Pc
         U __ZNKSt5ctypeIcE8do_widenEPKcS2_Pc
         U __ZNKSt5ctypeIcE9do_narrowEcc
         U __ZNKSt5ctypeIcE9do_narrowEcc
         U __ZNKSt5ctypeIcE9do_narrowEcc
         U __ZNKSt5ctypeIcE9do_narrowEcc
         U __ZNKSt5ctypeIcE9do_narrowEPKcS2_cPc
         U __ZNKSt6locale5facet19_M_remove_referenceEv
         U __ZNSt16__numpunct_cacheIcED0Ev
         U __ZNSt16__numpunct_cacheIcED1Ev
         U __ZNSt16__numpunct_cacheIwED0Ev
         U __ZNSt16__numpunct_cacheIwED1Ev
         U __ZNSt18__moneypunct_cacheIcLb0EED0Ev
         U __ZNSt18__moneypunct_cacheIcLb0EED1Ev
         U __ZNSt18__moneypunct_cacheIcLb1EED0Ev
         U __ZNSt18__moneypunct_cacheIcLb1EED1Ev
         U __ZNSt18__moneypunct_cacheIwLb0EED0Ev
         U __ZNSt18__moneypunct_cacheIwLb0EED1Ev
         U __ZNSt18__moneypunct_cacheIwLb1EED0Ev
         U __ZNSt18__moneypunct_cacheIwLb1EED1Ev
         U __ZNSt19_UninitDestroyGuardIPNSt7__cxx1112basic_stringIcSt11char_traitsIcESaIcEEEvED1Ev
         U __ZNSt6vectorINSt7__cxx1112basic_stringIcSt11char_traitsIcESaIcEEESaIS5_EE17_M_realloc_appendIJRKS5_EEEvDpOT_
         U __ZNSt6vectorINSt7__cxx1112basic_stringIcSt11char_traitsIcESaIcEEESaIS5_EE17_M_realloc_appendIJRKS5_EEEvDpOT_
         U __ZNSt6vectorINSt7__cxx1112basic_stringIcSt11char_traitsIcESaIcEEESaIS5_EE17_M_realloc_appendIJRKS5_EEEvDpOT_
         U __ZNSt6vectorINSt7__cxx1112basic_stringIcSt11char_traitsIcESaIcEEESaIS5_EE17_M_realloc_appendIJRKS5_EEEvDpOT_
         U __ZNSt6vectorINSt7__cxx1112basic_stringIcSt11char_traitsIcESaIcEEESaIS5_EE17_M_realloc_appendIJRKS5_EEEvDpOT_
         U __ZNSt6vectorINSt7__cxx1112basic_stringIcSt11char_traitsIcESaIcEEESaIS5_EE17_M_realloc_appendIJS5_EEEvDpOT_
         U __ZNSt6vectorINSt7__cxx1112basic_stringIcSt11char_traitsIcESaIcEEESaIS5_EED1Ev
         U __ZNSt6vectorINSt7__cxx1112basic_stringIcSt11char_traitsIcESaIcEEESaIS5_EED1Ev
         U __ZNSt6vectorINSt7__cxx1112basic_stringIcSt11char_traitsIcESaIcEEESaIS5_EED1Ev
         U __ZNSt6vectorINSt7__cxx1112basic_stringIcSt11char_traitsIcESaIcEEESaIS5_EED1Ev
         U __ZNSt6vectorIPN4Sexy11DataElementESaIS2_EE17_M_realloc_appendIJS2_EEEvDpOT_
         U __ZNSt7__cxx1112basic_stringIcSt11char_traitsIcESaIcEE12_M_constructILb1EEEvPKcj
         U __ZNSt7__cxx1112basic_stringIcSt11char_traitsIcESaIcEE12_M_constructILb1EEEvPKcj
         U __ZNSt7__cxx1112basic_stringIcSt11char_traitsIcESaIcEE12_M_constructILb1EEEvPKcj
         U __ZNSt7__cxx1112basic_stringIcSt11char_traitsIcESaIcEE12_M_constructILb1EEEvPKcj
         U __ZNSt7__cxx1112basic_stringIcSt11char_traitsIcESaIcEE12_M_constructILb1EEEvPKcj
         U __ZNSt7__cxx1112basic_stringIcSt11char_traitsIcESaIcEE12_M_constructILb1EEEvPKcj
         U __ZNSt7__cxx1112basic_stringIcSt11char_traitsIcESaIcEE12_M_constructILb1EEEvPKcj
         U __ZNSt7__cxx1112basic_stringIcSt11char_traitsIcESaIcEE12_M_constructILb1EEEvPKcj
         U __ZNSt7__cxx1112basic_stringIcSt11char_traitsIcESaIcEE12_M_constructILb1EEEvPKcj
         U __ZNSt7__cxx1112basic_stringIcSt11char_traitsIcESaIcEE12_M_constructILb1EEEvPKcj
         U __ZNSt7__cxx1112basic_stringIcSt11char_traitsIcESaIcEE12_M_constructILb1EEEvPKcj
         U __ZNSt7__cxx1112basic_stringIcSt11char_traitsIcESaIcEE12_M_constructILb1EEEvPKcj
         U __ZNSt7__cxx1112basic_stringIcSt11char_traitsIcESaIcEE12_M_constructILb1EEEvPKcj
         U __ZNSt7__cxx1112basic_stringIcSt11char_traitsIcESaIcEE12_M_constructILb1EEEvPKcj
         U __ZNSt7__cxx1112basic_stringIcSt11char_traitsIcESaIcEE12_M_constructILb1EEEvPKcj
         U __ZNSt7__cxx1112basic_stringIcSt11char_traitsIcESaIcEE12_M_constructILb1EEEvPKcj
         U __ZNSt7__cxx1112basic_stringIcSt11char_traitsIcESaIcEE12_M_constructILb1EEEvPKcj
         U __ZNSt7__cxx1112basic_stringIwSt11char_traitsIwESaIwEE12_M_constructILb1EEEvPKwj
         U __ZSt16__convert_from_vRKPiPciPKcz
         U __ZSt16__convert_from_vRKPiPciPKcz
         U __ZSt16__convert_from_vRKPiPciPKcz
00000000 A _AdjustWindowRect@12
00000000 A _AdjustWindowRectEx@16
00000000 A _BeginPaint@8
00000000 A __beginthread
00000000 A _BitBlt@36
00000000 A _ChangeDisplaySettingsA@8
00000000 A _ClientToScreen@8
00000000 A _CloseClipboard@0
00000000 A _CloseHandle@4
00000000 A _closesocket@4
00000000 A _CoInitialize@4
00000000 A _CompareFileTime@8
00000000 A _connect@12
00000000 A _CreateCaret@16
00000000 A _CreateCompatibleDC@4
00000000 A _CreateCursor@28
00000000 A _CreateDIBSection@24
00000000 A _CreateFileA@28
00000000 A _CreateFileMappingA@24
00000000 A _CreateFontA@56
00000000 A _CreateFontIndirectA@4
00000000 A _CreateMutexA@12
00000000 A _CreateWindowExA@48
00000000 A _CreateWindowExW@48
00000000 A _DefWindowProcA@16
00000000 A _DefWindowProcW@16
00000000 A _DeleteCriticalSection@4
00000000 A _DeleteDC@4
00000000 A _DeleteFileA@4
00000000 A _DeleteObject@4
00000000 A _DestroyCaret@0
00000000 A _DestroyCursor@4
00000000 A _DestroyWindow@4
00000000 A _DialogBoxIndirectParamA@20
00000000 A _DispatchMessageA@4
00000000 A __dll__
00000000 A _DrawTextExA@24
00000000 A _EmptyClipboard@0
00000000 A _EndDialog@8
00000000 A _EndPaint@8
00000000 A _EnterCriticalSection@4
00000000 A _EnumChildWindows@12
00000000 A _EnumDisplaySettingsA@12
00000000 A _EnumWindows@8
00000000 A _FileTimeToSystemTime@8
00000000 A _FillRect@12
00000000 A _FindClose@4
00000000 A _FindFirstFileA@8
00000000 A _FindNextFileA@8
00000000 A _FormatMessageA@28
00000000 A _FreeLibrary@4
00000000 A _GdiFlush@0
00000000 A _GetActiveWindow@0
00000000 A _GetClassNameA@12
00000000 A _GetClientRect@8
00000000 A _GetClipboardData@4
00000000 A _GetCommandLineA@0
00000000 A _GetCurrentProcess@0
00000000 A _GetCurrentProcessId@0
00000000 A _GetCurrentThread@0
00000000 A _GetCurrentThreadId@0
00000000 A _GetCursorPos@4
00000000 A __getcwd
00000000 A _GetDC@4
00000000 A _GetDeviceCaps@8
00000000 A _GetDlgItem@8
00000000 A _GetFileAttributesExA@12
00000000 A _GetFileSize@8
00000000 A _GetFileTime@16
00000000 A _gethostbyname@4
00000000 A _GetLastError@0
00000000 A _GetMessageA@16
00000000 A _GetModuleFileNameA@12
00000000 A _GetModuleHandleA@4
00000000 A _GetObjectA@12
00000000 A __get_osfhandle
00000000 A _GetProcAddress@8
00000000 A _GetStartupInfoA@4
00000000 A _GetStockObject@4
00000000 A _GetSysColorBrush@4
00000000 A _GetSystemDirectoryA@8
00000000 A _GetSystemMetrics@4
00000000 A _GetTextExtentPoint32A@16
00000000 A _GetTextMetricsA@8
00000000 A _GetThreadPriority@4
00000000 A _GetTickCount@0
00000000 A _GetVersionExA@4
00000000 A _GetWindowInfo@8
00000000 A _GetWindowLongA@8
00000000 A _GetWindowPlacement@8
00000000 A _GetWindowRect@8
00000000 A _GetWindowsDirectoryA@8
00000000 A _GetWindowTextA@12
00000000 A _GlobalAlloc@8
00000000 A _GlobalFree@4
00000000 A _GlobalLock@4
00000000 A _GlobalUnlock@4
00000000 A _HideCaret@4
00000000 A _htons@4
00000000 A _InitializeCriticalSection@4
00000000 A _IntersectClipRect@20
00000000 A _IsBadWritePtr@8
00000000 A _IsIconic@4
00000000 A _IsWindowVisible@4
00000000 A _inet_addr@4
00000000 A _ioctlsocket@12
00000000 A _isalnum
00000000 A _isalpha
00000000 A _isprint
00000000 A _iswctype
00000000 A _iswspace
00000000 A _LeaveCriticalSection@4
00000000 A _LoadCursorA@8
00000000 A __loader_flags__
00000000 A _LoadIconA@8
00000000 A _LoadLibraryA@4
00000000 A _LocalFree@4
00000000 A __localtime64_s
00000000 A _longjmp
00000000 A __major_image_version__
00000000 A _MapViewOfFile@20
00000000 A ____mb_cur_max_func
00000000 A _MessageBoxA@16
00000000 A _MessageBoxW@16
00000000 A __minor_image_version__
00000000 A __minor_os_version__
00000000 A __minor_subsystem_version__
00000000 A _mixerClose@4
00000000 A _mixerGetControlDetailsA@12
00000000 A _mixerGetDevCapsA@12
00000000 A _mixerGetLineControlsA@12
00000000 A _mixerGetLineInfoA@12
00000000 A _mixerOpen@20
00000000 A _mixerSetControlDetails@12
00000000 A __mkdir
00000000 A _MoveWindow@24
00000000 A _MulDiv@12
00000000 A _MultiByteToWideChar@24
00000000 A _OffsetRect@12
00000000 A _OpenClipboard@4
00000000 A _OutputDebugStringA@4
00000000 A _PeekMessageA@20
00000000 A _PlaySoundA@12
00000000 A _PostMessageA@16
00000000 A _QueryPerformanceCounter@4
00000000 A _QueryPerformanceFrequency@4
00000000 A _rand_s
00000000 A _Rectangle@20
00000000 A _recv@16
00000000 A _RegCloseKey@4
00000000 A _RegCreateKeyExA@36
00000000 A _RegDeleteKeyA@8
00000000 A _RegDeleteValueA@8
00000000 A _RegEnumKeyA@16
00000000 A _RegisterClassA@4
00000000 A _RegisterWindowMessageA@4
00000000 A _RegOpenKeyA@12
00000000 A _RegOpenKeyExA@20
00000000 A _RegQueryValueExA@24
00000000 A _RegSetValueExA@24
00000000 A _ReleaseCapture@0
00000000 A _ReleaseDC@8
00000000 A _ScreenToClient@8
00000000 A _select@20
00000000 A _SelectObject@8
00000000 A _send@16
00000000 A _SendMessageA@16
00000000 A _SetBkMode@8
00000000 A _SetCapture@4
00000000 A _SetCaretPos@8
00000000 A _SetClipboardData@8
00000000 A _SetCursor@4
00000000 A _SetErrorMode@4
00000000 A _SetFocus@4
00000000 A _SetForegroundWindow@4
00000000 A _SetTextColor@8
00000000 A _SetThreadPriority@8
00000000 A _SetTimer@16
00000000 A _SetUnhandledExceptionFilter@4
00000000 A _SetWindowLongA@12
00000000 A _SetWindowTextA@8
00000000 A _ShellExecuteA@24
00000000 A _ShowCaret@4
00000000 A _ShowWindow@8
00000000 A _Sleep@4
00000000 A _socket@12
00000000 A _StretchBlt@44
00000000 A __stricmp
00000000 A __strtime
00000000 A _SystemParametersInfoA@16
00000000 A _TextOutA@20
00000000 A __time32
00000000 A _timeBeginPeriod@4
00000000 A _timeEndPeriod@4
00000000 A _timeGetTime@0
00000000 A _TlsGetValue@4
00000000 A _toupper
00000000 A _towlower
00000000 A _towupper
00000000 A _TranslateMessage@4
00000000 A _VirtualProtect@16
00000000 A _VirtualQuery@12
00000000 A _WaitForSingleObject@8
00000000 A .weak.___cxa_pure_virtual.__ZN4Sexy10DescParser5ErrorERKNSt7__cxx1112basic_stringIcSt11char_traitsIcESaIcEEE
00000000 A .weak.___cxa_pure_virtual.__ZN4Sexy16FModSoundManager11InitializedEv
00000000 A .weak.___cxa_pure_virtual.__ZN4Sexy4Font9GetAscentEv
00000000 A .weak.___cxa_pure_virtual.__ZN4Sexy9ImageFont12SetPointSizeEi
00000000 A .weak.___cxa_pure_virtual.__ZNKSt10moneypunctIwLb0EE16do_decimal_pointEv
00000000 A .weak.___cxa_pure_virtual.__ZNKSt3_V214error_category23default_error_conditionEi
00000000 A .weak.___cxa_pure_virtual.__ZNKSt5ctypeIcE8do_widenEc
00000000 A .weak.___cxa_pure_virtual.__ZNKSt7codecvtIDsc9_MbstatetE10do_unshiftERS0_PcS3_RS3_
00000000 A .weak.___cxa_pure_virtual.__ZNSt9exceptionD2Ev
00000000 A .weak.___deregister_frame_info._hmod_libgcc
00000000 A .weak.__ITM_addUserCommitAction.__Z27_txnal_cow_string_D1_commitPv
00000000 A .weak.__ITM_memcpyRnWt.__Z27_txnal_cow_string_D1_commitPv
00000000 A .weak.__ITM_memcpyRtWn.__Z27_txnal_cow_string_D1_commitPv
00000000 A .weak.__ITM_RU1.__Z27_txnal_cow_string_D1_commitPv
00000000 A .weak.__ITM_RU4.__Z27_txnal_cow_string_D1_commitPv
00000000 A .weak.___register_frame_info._hmod_libgcc
00000000 A .weak.__ZGTtdlPv.__Z27_txnal_cow_string_D1_commitPv
00000000 A .weak.__ZGTtnaj.__Z27_txnal_cow_string_D1_commitPv
00000000 A __wfopen
00000000 A _WindowFromPoint@8
00000000 A _WSACleanup@0
00000000 A _WSAGetLastError@0
00000000 A _WSAStartup@8
00000001 a @feat.00
00000001 a @feat.00
00000001 a @feat.00
00000001 a @feat.00
00000001 a @feat.00
00000001 a @feat.00
00000001 a @feat.00
00000001 a @feat.00
00000001 a @feat.00
00000001 a @feat.00
00000002 A __subsystem__
00000004 A __major_os_version__
00000004 A __major_subsystem_version__
00000140 A __dll_characteristics__
00000200 A __file_alignment__
00001000 A __section_alignment__
00001000 A __size_of_heap_commit__
00001000 A __size_of_stack_commit__
00100000 A __size_of_heap_reserve__
00200000 A __size_of_stack_reserve__
00400000 A ___ImageBase
00400000 A __image_base__
00401000 t ___mingw_invalidParameterHandler
00401000 t .text
00401010 t ___tmainCRTStartup
00401400 T _WinMainCRTStartup
00401410 T _mainCRTStartup
00401420 T _atexit
00401430 T ___gcc_register_frame
00401430 t .text
004014d0 T ___gcc_deregister_frame
00401500 t .text
00401500 t __ZNSt7__cxx1112basic_stringIcSt11char_traitsIcESaIcEE12_M_constructIPKcEEvT_S8_St20forward_iterator_tag.isra.0
004015c0 T _WinMain@16
004017c0 t .text
004017c0 T __ZN7LawnApp10ModalCloseEv
004017c0 T __ZN7LawnApp17DoHighScoreDialogEv
004017c0 T __ZN7LawnApp18UpdateRegisterInfoEv
004017c0 T __ZN7LawnApp22LoadingThreadCompletedEv
004017c0 T __ZN7LawnApp8GotFocusEv
004017d0 T __ZN7LawnApp13ChangeDirHookEPKc
004017e0 T __ZN7LawnApp11ButtonPressEi
004017f0 T __ZN7LawnApp12NeedRegisterEv
004017f0 T __ZN7LawnApp19CanDoRegisterDialogEv
00401800 T __ZN7LawnApp17CloseRequestAsyncEv
00401870 T __ZN7LawnApp17ShowResourceErrorEb
00401880 T __ZN7LawnApp13EnforceCursorEv
004019d0 T __ZN7LawnApp9ModalOpenEv
00401a50 t __ZNSt8_Rb_treeINSt7__cxx1112basic_stringIcSt11char_traitsIcESaIcEEESt4pairIKS5_10PlayerInfoESt10_Select1stIS9_EN4Sexy16StringLessNoCaseESaIS9_EE8_M_eraseEPSt13_Rb_tree_nodeIS9_E.isra.0
00401ad0 T __ZN7LawnApp8InitHookEv
00401c10 T __ZN7LawnAppD1Ev
00401c10 T __ZN7LawnAppD2Ev
00402290 T __ZN7LawnAppD0Ev
004022b0 T __Z19LawnGetCloseRequestv
004022d0 T __Z20LawnHasUsedCheatKeysv
00402300 T __ZN7LawnAppC1Ev
00402300 T __ZN7LawnAppC2Ev
00402770 T __ZN7LawnApp11CanPauseNowEv
004027e0 T __ZN7LawnApp22WriteCurrentUserConfigEv
00402810 T __ZN7LawnApp14SaveFileExistsEv
00402880 T __ZN7LawnApp16KillGameSelectorEv
004028e0 T __ZN7LawnApp15KillAwardScreenEv
00402940 T __ZN7LawnApp16KillCreditScreenEv
004029a0 T __ZN7LawnApp19KillChallengeScreenEv
00402a00 T __ZN7LawnApp15ShowStoreScreenEv
00402a60 T __ZN7LawnApp21KillSeedChooserScreenEv
00402ac0 T __ZN7LawnApp12StartPlayingEv
00402af0 T __ZN7LawnApp9KillBoardEv
00402b60 T __ZN7LawnApp19DoConfirmBackToMainEv
00402ef0 T __ZN7LawnApp15DoAlmanacDialogE8SeedType10ZombieType
00402fd0 T __ZN7LawnApp13DoPauseDialogEv
004031e0 T __ZN7LawnApp9LostFocusEv
00403260 T __ZN7LawnApp14LawnMessageBoxEiPKcS1_S1_S1_i
00403810 T __ZN7LawnApp19DoConfirmSellDialogERKNSt7__cxx1112basic_stringIcSt11char_traitsIcESaIcEEE
00403b50 T __ZN7LawnApp23DoConfirmPurchaseDialogERKNSt7__cxx1112basic_stringIcSt11char_traitsIcESaIcEEE
00403ea0 T __ZN7LawnApp13NeedPauseGameEv
00403f00 t __ZN7LawnApp10KillDialogEi.part.0
00403f90 T __Z14BetaSubmitFuncv
00403fa0 T __ZN7LawnApp19UpdatePlayTimeStatsEv
004040e0 T __ZN7LawnApp12ToggleSlowMoEv
00404100 T __ZN7LawnApp12ToggleFastMoEv
00404110 T __ZN7LawnApp9LoadGroupEPKci
004043e0 T __ZN7LawnApp11ConfirmQuitEv
00404640 T __ZN7LawnApp12CenterDialogEPN4Sexy6DialogEii
004046a0 T __ZN7LawnApp9PlayFoleyE9FoleyType
004046c0 T __ZN7LawnApp14PlayFoleyPitchE9FoleyTypef
004046e0 T __ZN7LawnApp14GetStageStringB5cxx11Ei
00404740 T __ZN7LawnApp15IsAdventureModeEv
00404750 T __ZN7LawnApp14IsSurvivalModeEv
00404760 T __ZN7LawnApp12IsPuzzleModeEv
00404770 T __ZN7LawnApp15IsChallengeModeEv
00404790 T __ZN7LawnApp16IsSurvivalNormalE8GameMode
004047a0 T __ZN7LawnApp14IsSurvivalHardE8GameMode
004047b0 T __ZN7LawnApp17IsSurvivalEndlessE8GameMode
004047c0 T __ZN7LawnApp20IsEndlessScaryPotterE8GameMode
004047d0 T __ZN7LawnApp16IsEndlessIZombieE8GameMode
004047e0 T __ZN7LawnApp21IsContinuousChallengeEv
00404860 T __ZN7LawnApp14IsArtChallengeEv
004048a0 T __ZN7LawnApp15IsSquirrelLevelEv
004048c0 T __ZN7LawnApp14IsIZombieLevelEv
004048f0 T __ZN7LawnApp13IsShovelLevelEv
00404910 T __ZN7LawnApp21IsWallnutBowlingLevelEv
00404950 T __ZN7LawnApp18IsSlotMachineLevelEv
00404970 T __ZN7LawnApp19IsWhackAZombieLevelEv
004049b0 T __ZN7LawnApp20IsLittleTroubleLevelEv
004049e0 T __ZN7LawnApp18IsScaryPotterLevelEv
00404a10 T __ZN7LawnApp18IsStormyNightLevelEv
00404a50 T __ZN7LawnApp18IsBungeeBlitzLevelEv
00404a90 T __ZN7LawnApp15IsMiniBossLevelEv
00404ad0 T __ZN7LawnApp16IsFinalBossLevelEv
00404b10 T __ZN7LawnApp26IsChallengeWithoutSeedBankEv
00404bb0 T __ZN7LawnApp7IsNightEv
00404bf0 T __ZN7LawnApp24GetCurrentChallengeIndexEv
00404c00 T __ZN7LawnApp22GetCurrentChallengeDefEv
00404c20 T __ZN7LawnApp21GetPottedPlantByIndexEi
00404c40 T __ZN7LawnApp20GetAwardSeedForLevelEi
00404ca0 T __ZN7LawnApp17GetSeedsAvailableEv
00404d10 T __ZN7LawnApp11HasSeedTypeE8SeedType
00404e50 T __ZN7LawnApp17SeedTypeAvailableE8SeedType
00404e90 T __ZN7LawnApp14AddReanimationEffi15ReanimationType
00404ea0 T __ZN7LawnApp14AddTodParticleEffi14ParticleEffect
00404eb0 T __ZN7LawnApp13ParticleGetIDEP17TodParticleSystem
00404ec0 T __ZN7LawnApp16ReanimationGetIDEP11Reanimation
00404ed0 T __ZN7LawnApp11ParticleGetE16ParticleSystemID
00404ef0 T __ZN7LawnApp16ParticleTryToGetE16ParticleSystemID
00404f30 T __ZN7LawnApp14ReanimationGetE13ReanimationID
00404f50 T __ZN7LawnApp19ReanimationTryToGetE13ReanimationID
00404f90 T __ZN7LawnApp17RemoveReanimationE13ReanimationID
00404fd0 T __ZN7LawnApp14RemoveParticleE16ParticleSystemID
00405000 T __ZN7LawnApp14CanShowAlmanacEv
00405040 T __ZN7LawnApp12CanShowStoreEv
00405080 T __ZN7LawnApp16CanShowZenGardenEv
00405110 T __ZN7LawnApp13CanSpawnYetisEv
00405170 T __ZN7LawnApp18HasBeatenChallengeE8GameMode
004051f0 T __ZN7LawnApp36UpdatePlayerProfileForFinishingLevelEv
00405480 T __ZN7LawnApp20HasFinishedAdventureEv
004054a0 T __ZN7LawnApp24IsFirstTimeAdventureModeEv
004054d0 T __ZN7LawnApp14CrazyDaveEnterEv
00405610 T __ZN7LawnApp12CrazyDaveDieEv
004056f0 T __ZN7LawnApp14CrazyDaveLeaveEv
00405850 T __ZN7LawnApp20CrazyDaveDoneHandingEv
004058a0 T __ZN7LawnApp18CrazyDaveStopSoundEv
00405900 T __ZN7LawnApp20CrazyDaveTalkMessageERKNSt7__cxx1112basic_stringIcSt11char_traitsIcESaIcEEE
004062f0 T __ZN7LawnApp20CrazyDaveStopTalkingEv
004064d0 T __ZN7LawnApp15UpdateCrazyDaveEv
004068d0 T __ZN7LawnApp21GetNumPreloadingTasksEv
004069b0 T __ZN7LawnApp14PreloadForUserEv
00406c80 T __ZN7LawnApp17LoadingThreadProcEv
004070f0 T __ZN7LawnApp9PluralizeB5cxx11EiPKcS1_
00407320 T __ZN7LawnApp14GetNumTrophiesE13ChallengePage
00407380 T __ZN7LawnApp28TrophiesNeedForGoldSunflowerEv
00407440 T __ZN7LawnApp16EarnedGoldTrophyEv
00407540 T __ZN7LawnApp18IsTrialStageLockedEv
00407580 T __ZN7LawnApp14GetMoneyStringB5cxx11Ei
00407670 T __ZN7LawnApp16GetCrazyDaveTextB5cxx11Ei
004079d0 T __ZN7LawnApp18CrazyDaveTalkIndexEi
00407a30 T __ZN7LawnApp20AdvanceCrazyDaveTextEv
00407af0 T __Z23LawnGetCurrentLevelNameB5cxx11v
00407e90 T __ZN7LawnApp15CanDoPinataModeEv
00407ec0 T __ZN7LawnApp14CanDoDanceModeEv
00407ef0 T __ZN7LawnApp14CanDoDaisyModeEv
00407f10 T __ZN7LawnApp10BetaSubmitEb
00407f20 T __ZN7LawnApp20BetaRecordLevelStatsEv
00407f30 T __ZN7LawnApp11BetaAddFileERNSt7__cxx114listINS0_12basic_stringIcSt11char_traitsIcESaIcEEESaIS6_EEES6_S6_
00407f40 T __ZN7LawnApp14TraceLoadGroupEPKciii
00407f50 T __ZN7LawnApp10DoRegisterEv
00407f60 T __ZN7LawnApp15DoRegisterErrorEv
00407f70 T __ZN7LawnApp20DoNeedRegisterDialogEv
00407f80 T __ZN7LawnApp21FinishModelessDialogsEv
00407f90 T __ZN7LawnApp13DrawCrazyDaveEPN4Sexy8GraphicsE
00408720 T __ZN7LawnApp15WriteToRegistryEv
004087a0 T __ZN7LawnApp16ReadFromRegistryEv
004087b0 T __ZN7LawnApp16ShowCreditScreenEv
00408860 T __ZN7LawnApp19ShowChallengeScreenE13ChallengePage
00408920 T __ZN7LawnApp21ShowSeedChooserScreenEv
004089b0 T __ZN7LawnApp12MakeNewBoardEv
00408a60 T __ZN7LawnApp7NewGameEv
00408ab0 T __ZN7LawnApp8EndLevelEv
00408b60 T __ZN7LawnApp16ShowGameSelectorEv
00408c50 T __ZN7LawnApp16LoadingCompletedEv
00408d40 T __ZN7LawnApp15ShowAwardScreenE9AwardType
00408e00 T __ZN7LawnApp8DoDialogEibRKNSt7__cxx1112basic_stringIcSt11char_traitsIcESaIcEEES7_S7_i
00408f10 T __ZN7LawnApp13DoDialogDelayEibRKNSt7__cxx1112basic_stringIcSt11char_traitsIcESaIcEEES7_S7_i
00408f70 T __ZN7LawnApp10KillDialogEi
00408fb0 t __ZN7LawnApp8ShutdownEv.part.0
00409190 T __ZN7LawnApp8ShutdownEv
004091c0 T __ZN7LawnApp19FinishTimesUpDialogEv
00409210 T __ZN7LawnApp15FinishNameErrorEi
004092a0 T __ZN7LawnApp15KillStoreScreenEv
00409320 T __ZN7LawnApp17KillAlmanacDialogEv
004093a0 T __ZN7LawnApp20KillNewOptionsDialogEv
00409480 T __ZN7LawnApp12DoBackToMainEv
004094d0 T __ZN7LawnApp16FinishUserDialogEb
004095f0 T __ZN7LawnApp25DoConfirmDeleteUserDialogERKNSt7__cxx1112basic_stringIcSt11char_traitsIcESaIcEEE
00409740 T __ZN7LawnApp22FinishRenameUserDialogEb
00409ae0 T __ZN7LawnApp22FinishCreateUserDialogEb
0040a080 T __ZN7LawnApp5StartEv
0040a0a0 T __ZN7LawnApp12DebugKeyDownEi
0040a0b0 T __ZN7LawnApp18HandleCmdLineParamERKNSt7__cxx1112basic_stringIcSt11char_traitsIcESaIcEEES7_
0040a0e0 T __ZN7LawnApp13URLOpenFailedERKNSt7__cxx1112basic_stringIcSt11char_traitsIcESaIcEEE
0040a3a0 T __ZN7LawnApp16URLOpenSucceededERKNSt7__cxx1112basic_stringIcSt11char_traitsIcESaIcEEE
0040a400 T __ZN7LawnApp7OpenURLERKNSt7__cxx1112basic_stringIcSt11char_traitsIcESaIcEEEb
0040a540 T __ZN7LawnApp14PreDisplayHookEv
0040a550 T __ZN7LawnApp9UpdateAppEv
0040a5b0 T __ZN7LawnApp10PlaySampleEi
0040a5d0 T __ZN7LawnApp16SwitchScreenModeEbbb
0040a640 T __ZN7LawnApp4InitEv
0040afe0 T __ZN7LawnApp9NewDialogEibRKNSt7__cxx1112basic_stringIcSt11char_traitsIcESaIcEEES7_S7_i
0040b090 T __ZN7LawnApp13DoCheatDialogEv
0040b160 T __ZN7LawnApp18DoCreateUserDialogEv
0040b240 T __ZN7LawnApp29FinishConfirmDeleteUserDialogEb
0040b4c0 T __ZN7LawnApp18DoRenameUserDialogERKNSt7__cxx1112basic_stringIcSt11char_traitsIcESaIcEEE
0040b5b0 T __ZN7LawnApp12DoUserDialogEv
0040b690 T __ZN7LawnApp16DoContinueDialogEv
0040b720 T __ZN7LawnApp11TryLoadGameEv
0040b7e0 T __ZN7LawnApp10PreNewGameE8GameModeb
0040b8b0 T __ZN7LawnApp26FinishRestartConfirmDialogEv
0040b960 T __ZN7LawnApp17FinishCheatDialogEb
0040ba60 T __ZN7LawnApp13ButtonDepressEi
0040c050 t __ZN7LawnApp15CheckForGameEndEv.part.0
0040c230 T __ZN7LawnApp15CheckForGameEndEv
0040c250 T __ZN7LawnApp12UpdateFramesEv
0040c350 T __ZN7LawnApp8FastLoadE8GameMode
0040c3d0 T __ZN7LawnApp23FinishZenGardenToturialEv
0040c410 T __ZN7LawnApp12DoNewOptionsEb
0040c4c0 t .text
0040c4c0 t __ZNSt8_Rb_treeIiSt4pairIKiiESt10_Select1stIS2_ESt4lessIiESaIS2_EE24_M_get_insert_unique_posERS1_.isra.0
0040c560 t __ZNSt7__cxx1112basic_stringIcSt11char_traitsIcESaIcEEC2EPKcRKS3_.isra.0
0040c620 t __ZNSt8_Rb_treeIiSt4pairIKiiESt10_Select1stIS2_ESt4lessIiESaIS2_EE8_M_eraseEPSt13_Rb_tree_nodeIS2_E.isra.0
0040c7e0 t ___tcf_ZZN4Sexy15GetIdByVariableEPvE4aMap
0040c820 T __ZN4Sexy33ExtractDelayLoad_AlmanacResourcesEPNS_15ResourceManagerE
0040d5c0 T __ZN4Sexy37ExtractDelayLoad_AwardScreenResourcesEPNS_15ResourceManagerE
0040d6b0 T __ZN4Sexy37ExtractDelayLoad_Background1ResourcesEPNS_15ResourceManagerE
0040d930 T __ZN4Sexy37ExtractDelayLoad_Background2ResourcesEPNS_15ResourceManagerE
0040dbb0 T __ZN4Sexy37ExtractDelayLoad_Background3ResourcesEPNS_15ResourceManagerE
0040de30 T __ZN4Sexy37ExtractDelayLoad_Background4ResourcesEPNS_15ResourceManagerE
0040e1d0 T __ZN4Sexy37ExtractDelayLoad_Background5ResourcesEPNS_15ResourceManagerE
0040e380 T __ZN4Sexy37ExtractDelayLoad_Background6ResourcesEPNS_15ResourceManagerE
0040e530 T __ZN4Sexy44ExtractDelayLoad_BackgroundUnsoddedResourcesEPNS_15ResourceManagerE
0040e710 T __ZN4Sexy41ExtractDelayLoad_ChallengeScreenResourcesEPNS_15ResourceManagerE
0040eca0 T __ZN4Sexy33ExtractDelayLoad_CreditsResourcesEPNS_15ResourceManagerE
0040f5d0 T __ZN4Sexy42ExtractDelayLoad_GreenHouseGardenResourcesEPNS_15ResourceManagerE
0040f6c0 T __ZN4Sexy43ExtractDelayLoad_GreenHouseOverlayResourcesEPNS_15ResourceManagerE
0040f7c0 T __ZN4Sexy40ExtractDelayLoad_MushroomGardenResourcesEPNS_15ResourceManagerE
0040f8c0 T __ZN4Sexy31ExtractDelayLoad_StoreResourcesEPNS_15ResourceManagerE
00410a80 T __ZN4Sexy38ExtractDelayLoad_TreeOfWisdomResourcesEPNS_15ResourceManagerE
00410a90 T __ZN4Sexy41ExtractDelayLoad_ZombieFinalNoteResourcesEPNS_15ResourceManagerE
00410b80 T __ZN4Sexy36ExtractDelayLoad_ZombieNoteResourcesEPNS_15ResourceManagerE
00410c60 T __ZN4Sexy37ExtractDelayLoad_ZombieNote1ResourcesEPNS_15ResourceManagerE
00410d40 T __ZN4Sexy37ExtractDelayLoad_ZombieNote2ResourcesEPNS_15ResourceManagerE
00410e20 T __ZN4Sexy37ExtractDelayLoad_ZombieNote3ResourcesEPNS_15ResourceManagerE
00410f00 T __ZN4Sexy37ExtractDelayLoad_ZombieNote4ResourcesEPNS_15ResourceManagerE
00410fe0 T __ZN4Sexy40ExtractDelayLoad_ZombieNoteHelpResourcesEPNS_15ResourceManagerE
004110d0 T __ZN4Sexy38ExtractDelayLoad_ZombiquariumResourcesEPNS_15ResourceManagerE
004112b0 T __ZN4Sexy20ExtractInitResourcesEPNS_15ResourceManagerE
004114c0 T __ZN4Sexy25ExtractLoaderBarResourcesEPNS_15ResourceManagerE
00411aa0 T __ZN4Sexy28ExtractLoadingFontsResourcesEPNS_15ResourceManagerE
004125c0 T __ZN4Sexy29ExtractLoadingImagesResourcesEPNS_15ResourceManagerE
0041af50 T __ZN4Sexy29ExtractLoadingSoundsResourcesEPNS_15ResourceManagerE
0041ea10 T __ZN4Sexy22ExtractResourcesByNameEPNS_15ResourceManagerEPKc
0041ee70 T __ZN4Sexy12GetImageByIdENS_10ResourceIdE
0041ee80 T __ZN4Sexy11GetFontByIdENS_10ResourceIdE
0041ee90 T __ZN4Sexy12GetSoundByIdENS_10ResourceIdE
0041eea0 T __ZN4Sexy15GetImageRefByIdENS_10ResourceIdE
0041eeb0 T __ZN4Sexy14GetFontRefByIdENS_10ResourceIdE
0041eec0 T __ZN4Sexy15GetSoundRefByIdENS_10ResourceIdE
0041eed0 T __ZN4Sexy15GetIdByVariableEPv
0041f200 T __ZN4Sexy12GetIdByImageEPNS_5ImageE
0041f210 T __ZN4Sexy12GetIdBySoundEi
0041f220 T __ZN4Sexy11GetIdByFontEPNS_4FontE
0041f240 t .text
0041f240 T __Z18RenderItemSortFuncRK10RenderItemS1_
0041f270 t __ZNSt7__cxx1112basic_stringIcSt11char_traitsIcESaIcEEC2EPKcRKS3_.isra.0
0041f330 t __ZN5Board20DrawDebugObjectRectsEPN4Sexy8GraphicsE.part.0
0041f730 T __ZN5BoardD1Ev
0041f730 T __ZN5BoardD2Ev
004201f0 T __ZN5BoardD0Ev
00420210 T __ZN5BoardC1EP7LawnApp
00420210 T __ZN5BoardC2EP7LawnApp
00420fd0 T __Z18BoardInitForPlayerv
00420fe0 T __ZN5Board12DisposeBoardEv
00421070 T __ZN5Board23AreEnemyZombiesOnScreenEv
00421110 T __ZN5Board20CountZombiesOnScreenEv
004211b0 T __ZN5Board24CountUntriggerLawnMowersEv
00421200 T __ZN5Board12NeedSaveGameEv
00421250 T __ZN5Board8SaveGameERKNSt7__cxx1112basic_stringIcSt11char_traitsIcESaIcEEE
00421270 T __ZN5Board13ResetFPSStatsEv
004212b0 T __ZN5Board13GetGridItemAtE12GridItemTypeii
00421320 T __ZN5Board7GetRakeEv
00421370 T __ZN5Board11GetCraterAtEii
004213a0 T __ZN5Board15GetGraveStoneAtEii
004213d0 T __ZN5Board11GetLadderAtEii
00421400 T __ZN5Board13GetScaryPotAtEii
00421430 T __ZN5Board13GetSquirrelAtEii
00421460 T __ZN5Board12GetZenToolAtEii
00421490 T __ZN5Board18CanAddGraveStoneAtEii
00421520 T __ZN5Board15MakeRenderOrderE11RenderLayerii
00421540 T __ZN5Board10AddALadderEii
00421630 T __ZN5Board10AddACraterEii
00421720 T __ZN5Board14AddAGraveStoneEii
00421820 T __ZN5Board14AddGraveStonesEiiRN4Sexy6MTRandE
004219d0 T __ZN5Board18GetNumWavesPerFlagEv
00421a10 T __ZN5Board10IsFlagWaveEi
00421a80 T __Z23ZombiePickerInitForWaveP12ZombiePicker
00421ab0 T __Z16ZombiePickerInitP12ZombiePicker
00421ae0 T __ZN5Board15PutZombieInWaveE10ZombieTypeiP12ZombiePicker
00421b40 T __ZN5Board19PutInMissingZombiesEiP12ZombiePicker
00421be0 T __ZN5Board16GetLevelRandSeedEv
00421c40 T __ZN5Board20LoadBackgroundImagesEv
00422390 T __ZN5Board23InitZombieWavesForLevelEi
00422480 T __ZN5Board26IsZombieWaveDistributionOkEv
004225b0 T __ZN5Board19GetShovelButtonRectEv
00422650 T __ZN5Board14InitLawnMowersEv
004227f0 T __ZN5Board18GetBottomLawnMowerEv
00422850 T __ZN5Board33CompleteEndLevelSequenceForSavingEv
004229a0 T __ZN5Board13DisplayAdviceERKNSt7__cxx1112basic_stringIcSt11char_traitsIcESaIcEEE12MessageStyle10AdviceType
004229f0 T __ZN5Board18DisplayAdviceAgainERKNSt7__cxx1112basic_stringIcSt11char_traitsIcESaIcEEE12MessageStyle10AdviceType
00422a40 T __ZN5Board22ClearAdviceImmediatelyEv
00422a70 T __ZN5Board11ClearAdviceE10AdviceType
00422ac0 T __ZN5Board7AddCoinEii8CoinType10CoinMotion
00422ca0 T __ZN5Board15IsPlantInCursorEv
00422cc0 T __ZN5Board19GetSeedTypeInCursorEv
00422d40 T __ZN5Board12IsPoolSquareEii
00422d70 T __ZN5Board8NewPlantEii8SeedTypeS0_
00422e70 T __ZN5Board12GetPumpkinAtEii
00422f10 T __ZN5Board14GetFlowerPotAtEii
00422fb0 T __ZN5Board15GetPlantsOnLawnEiiP12PlantsOnLawn
004231a0 T __ZN5Board13GetTopPlantAtEii13PlantPriority
00423270 T __ZN5Board15CountSunFlowersEv
004232f0 T __ZN5Board16CountPlantByTypeE8SeedType
00423360 T __ZN5Board22CountEmptyPotsOrLiliesE8SeedType
00423410 T __ZN5Board13AddProjectileEiiii14ProjectileType
00423510 T __ZN5Board21CanZombieSpawnOnLevelE10ZombieTypei
00423580 T __ZN5Board23GetIntroducedZombieTypeEv
00423640 T __ZN5Board20IsZombieTypePoolOnlyE10ZombieType
00423660 T __ZN5Board13CanAddBobSledEv
004236a0 T __ZN5Board14AddZombieInRowE10ZombieTypeii
004238f0 T __ZN5Board16RemoveAllZombiesEv
00423980 T __ZN5Board22RemoveZombiesForRepickEv
00423a10 T __ZN5Board21RemoveCutsceneZombiesEv
00423a80 T __ZN5Board13ZombieHitTestEii
00423ba0 T __ZN5Board29IsPlantInGoldWateringCanRangeEiiP5Plant
00423c70 T __ZN5Board17ToolHitTestHelperEP9HitResult
00423ca0 T __ZN5Board17TutorialArrowShowEii
00423d20 T __ZN5Board19TutorialArrowRemoveEv
00423d50 T __ZN5Board19SpecialPlantHitTestEii
00423ec0 T __ZN5Board27CanInteractWithBoardButtonsEv
00423f50 T __ZN5Board12ShowCoinBankEi
00423f60 T __ZN5Board5PauseEb
00423fe0 T __ZN5Board19GetGraveStonesCountEv
00424070 T __ZN5Board21PickSpecialGraveStoneEv
00424100 T __ZN5Board15SetupBungeeDropEP14BungeeDropGrid
00424150 T __ZN5Board24TotalZombiesHealthInWaveEi
00424250 T __ZN5Board17UpdateGameObjectsEv
004244c0 T __ZN5Board19StopAllZombieSoundsEv
00424530 T __ZN5Board16PuzzleSaveStreakEv
004245b0 T __ZN5Board23IsFinalScaryPotterStageEv
00424620 T __ZN5Board21IsLastStandFinalStageEv
00424650 T __ZN5Board26IsLastStandStageWithRepickEv
00424680 T __ZN5Board20HasLevelAwardDroppedEv
004246b0 T __ZN5Board14UpdateTutorialEv
00424c00 T __ZN5Board16SetTutorialStateE13TutorialState
00425450 T __ZN5Board11ClearCursorEv
00425670 T __ZN5Board27RefreshSeedPacketFromCursorEv
00425720 T __ZN5Board22MouseDownCobcannonFireEiii
004257f0 T __ZN5Board10PickUpToolE14GameObjectType
00425b40 T __ZN5Board12UpdateLayersEv
00425ba0 T __ZN5Board8LoadGameERKNSt7__cxx1112basic_stringIcSt11char_traitsIcESaIcEEE
00425c20 T __ZN5Board17RowCanHaveZombiesEi
00425c60 T __ZN5Board10GetIceZPosEi
00425c70 T __ZN5Board17AddBossRenderItemEP10RenderItemRiP6Zombie
00425e20 T __ZN5Board16HasProgressMeterEv
00425ee0 T __ZN5Board21ProgressMeterHasFlagsEv
00425f70 T __ZN5Board17DrawProgressMeterEPN4Sexy8GraphicsE
004267b0 T __ZN5Board19DrawHouseDoorBottomEPN4Sexy8GraphicsE
00426890 T __ZN5Board16DrawHouseDoorTopEPN4Sexy8GraphicsE
004269d0 T __ZN5Board20DrawDebugObjectRectsEPN4Sexy8GraphicsE
004269f0 T __ZN5Board14DrawTopRightUIEPN4Sexy8GraphicsE
00426c00 T __ZN5Board14DrawUICoinBankEPN4Sexy8GraphicsE
00426e10 T __ZN5Board19ClearFogAroundPlantEP5Planti
00427070 T __ZN5Board9UpdateFogEv
00427210 T __ZN5Board7DrawFogEPN4Sexy8GraphicsE
00427570 T __ZN5Board24IsScaryPotterDaveTalkingEv
004275b0 T __ZN5Board15SetMustacheModeEb
00427650 T __ZN5Board13SetFutureModeEb
00427710 T __ZN5Board13SetPinataModeEb
00427750 T __ZN5Board12SetDanceModeEb
004277f0 T __ZN5Board17SetSuperMowerModeEb
00427890 T __ZN5Board12SetDaisyModeEb
004278e0 T __ZN5Board14SetSukhbirModeEb
00427930 T __ZN5Board13DoTypingCheckEN4Sexy7KeyCodeE
00427d60 T __ZN5Board7KeyDownEN4Sexy7KeyCodeE
00427ef0 T __ZN5Board11AddSunMoneyEi
00427f20 T __ZN5Board22CountSunBeingCollectedEv
00427fb0 T __ZN5Board24CountCoinsBeingCollectedEv
00428030 T __ZN5Board12TakeSunMoneyEi
004280a0 T __ZN5Board15CanTakeSunMoneyEi
004280c0 T __ZN5Board18ProcessDeleteQueueEv
004283e0 T __ZN5Board23HasConveyorBeltSeedBankEv
00428480 T __ZN5Board25ChooseSeedsOnCurrentLevelEv
00428520 T __ZN5Board17UpdateSunSpawningEv
004286c0 T __ZN5Board17GetNumSeedsInBankEv
004287b0 T __ZN5Board12StageIsNightEv
004287d0 T __ZN5Board19StageHasGraveStonesEv
00428840 T __ZN5Board25PickGraveRisingZombieTypeEi
00428940 T __ZN5Board20SpawnZombiesFromPoolEv
00428ab0 T __ZN5Board14PickBackgroundEv
00429120 T __ZN5Board12StageHasRoofEv
00429130 T __ZN5Board12StageHasPoolEv
00429140 T __ZN5Board13StageHas6RowsEv
00429150 T __ZN5Board29StageHasZombieWalkInFromRightEv
004291d0 T __ZN5Board11StageHasFogEv
00429210 T __ZN5Board13LeftFogColumnEv
00429270 T __ZN5Board22GetSeedPacketPositionXEi
00429320 T __ZN5Board21GetSeedBankExtraWidthEv
00429350 T __ZN5Board18OffsetYForPlantingERi8SeedType
004293d0 T __ZN5Board20PlantingPixelToGridXEii8SeedType
00429470 T __ZN5Board12PixelToGridXEii
004294e0 T __ZN5Board7IsIceAtEii
00429540 T __ZN5Board10CanPlantAtEii8SeedType
00429c10 T __ZN5Board26IsValidCobCannonSpotHelperEii
00429cb0 T __ZN5Board20IsValidCobCannonSpotEii
00429d50 T __ZN5Board21HasValidCobCannonSpotEv
00429df0 T __ZN5Board23PixelToGridXKeepOnBoardEii
00429e70 T __ZN5Board12PixelToGridYEii
00429fa0 T __ZN5Board20PlantingPixelToGridYEii8SeedType
0042a0e0 T __ZN5Board17MouseHitTestPlantEiiP9HitResult
0042a3e0 T __ZN5Board23PixelToGridYKeepOnBoardEii
0042a420 T __ZN5Board12GridToPixelXEii
0042a460 T __ZN5Board12GridToPixelYEii
0042a510 T __ZN5Board16CreateRakeReanimEffi
0042a610 T __ZN5Board17DoPlantingEffectsEiiP5Plant
0042a7f0 T __ZN5Board8AddPlantEii8SeedTypeS0_
0042a890 T __ZN5Board9UpdateIceEv
0042aa50 T __ZN5Board17GetPosYBasedOnRowEfi
0042aae0 T __ZN5Board7DrawIceEPN4Sexy8GraphicsEi
0042aca0 T __ZN5Board9PlaceRakeEv
0042af80 T __ZN5Board11ZombieGetIDEP6Zombie
0042af90 T __ZN5Board9ZombieGetE8ZombieID
0042afb0 T __ZN5Board14ZombieTryToGetE8ZombieID
0042aff0 T __Z14GetRectOverlapRKN4Sexy5TRectIiEES3_
0042b030 T __Z20GetCircleRectOverlapiiiRKN4Sexy5TRectIiEE
0042b110 T __ZN5Board14IterateZombiesERP6Zombie
0042b180 T __ZN5Board13IteratePlantsERP5Plant
0042b1f0 T __ZN5Board18IterateProjectilesERP10Projectile
0042b260 T __ZN5Board12IterateCoinsERP4Coin
0042b2d0 T __ZN5Board17IterateLawnMowersERP9LawnMower
0042b330 T __ZN5Board16IterateGridItemsERP8GridItem
0042b3a0 T __ZN5Board16IterateParticlesERP17TodParticleSystem
0042b400 T __ZN5Board19IterateReanimationsERP11Reanimation
0042b470 T __ZN5Board24FreezeEffectsForCutsceneEb
0042b510 T __ZN5Board10StartLevelEv
0042b650 T __ZN5Board21KillAllPlantsInRadiusEiii
0042b790 T __ZN5Board26SeedNotRecommendedForLevelE8SeedType
0042b8e0 T __ZN5Board15CountCoinByTypeE8CoinType
0042b940 T __ZN5Board18GetGraveStoneCountEv
0042b9d0 T __ZN5Board13DropLootPieceEiii
0042bf30 T __ZN5Board11CanDropLootEv
0042bf80 T __ZN5Board21BungeeIsTargetingCellEii
0042c010 T __ZN5Board13GetBossZombieEv
0042c070 T __ZN5Board19UpdateProgressMeterEv
0042c330 T __ZN5Board13DrawDebugTextEPN4Sexy8GraphicsE
0042d880 T __ZN5Board17FindUmbrellaPlantEii
0042d940 T __ZN5Board8DoFwooshEi
0042dac0 T __ZN5Board12UpdateFwooshEv
0042dbb0 T __ZN5Board15UpdateGridItemsEv
0042dc70 T __ZN5Board23PlantingRequirementsMetE8SeedType
0042dd80 T __ZN5Board22KillAllZombiesInRadiusEiiiiibi
0042df90 T __ZN5Board27GetNumWavesPerSurvivalStageEv
0042e010 T __ZN5Board20RowCanHaveZombieTypeEi10ZombieType
0042e2a0 T __ZN5Board19PickRowForNewZombieE10ZombieType
0042e460 T __ZN5Board9AddZombieE10ZombieTypei
0042e4a0 T __ZN5Board16BungeeDropZombieEP14BungeeDropGrid10ZombieType
0042e550 T __ZN5Board19SpawnZombiesFromSkyEv
0042e650 T __ZN5Board22SpawnZombiesFromGravesEv
0042e7f0 T __ZN5Board15SpawnZombieWaveEv
0042eaa0 T __ZN5Board25GetSurvivalFlagsCompletedEv
0042eb80 T __ZN5Board14PickZombieTypeEiiP12ZombiePicker
0042f0f0 T __ZN5Board17SurvivalSaveScoreEv
0042f150 T __ZN5Board13TryToSaveGameEv
0042f360 T __ZN5Board9DrawLevelEPN4Sexy8GraphicsE
00430170 T __ZN5Board15PickZombieWavesEv
00430c50 T __ZN5Board15InitZombieWavesEv
00430d70 T __ZN5Board9InitLevelEv
00431a40 T __ZN5Board17InitSurvivalStageEv
00431b70 T __ZN5Board20IsFinalSurvivalStageEv
00431c30 T __ZN5Board25IsSurvivalStageWithRepickEv
00431c60 T __ZN5Board11DrawFadeOutEPN4Sexy8GraphicsE
00431e10 T __ZN5Board14NextWaveComingEv
00431f90 T __ZN5Board12FadeOutLevelEv
00432630 t __ZN5Board7KeyCharEc.part.0
00433af0 T __ZN5Board7KeyCharEc
00433b20 T __ZN5Board20UpdateZombieSpawningEv
004340b0 T __ZN5Board10UpdateGameEv
004344d0 T __ZN5Board22UpdateLevelEndSequenceEv
00434910 T __ZN5Board20RemoveParticleByTypeE14ParticleEffect
00434960 T __ZN5Board27PlantUsesAcceleratedPricingE8SeedType
004349a0 T __ZN5Board19GetCurrentPlantCostE8SeedTypeS0_
00434a10 T __ZN5Board18MouseDownWithPlantEiii
00436300 T __ZN5Board16CanUseGameObjectE14GameObjectType
00436460 T __ZN5Board16GetZenButtonRectE14GameObjectTypeRN4Sexy5TRectIiEE
004364e0 T __ZN5Board12MouseHitTestEiiP9HitResult
00436c00 T __ZN5Board12UpdateCursorEv
00436e20 T __ZN5Board10ZombiesWonEP6Zombie
00437630 T __ZN5Board11ToolHitTestEii
00437690 T __ZN5Board13UpdateToolTipEv
00438700 T __ZN5Board23HighlightPlantsForMouseEii
004388d0 T __ZN5Board19UpdateMousePositionEv
00438dc0 T __ZN5Board17MouseDownWithToolEiii10CursorType
00438fd0 T __ZN5Board24DrawZenWheelBarrowButtonEPN4Sexy8GraphicsEi
004391a0 T __ZN5Board14DrawZenButtonsEPN4Sexy8GraphicsE
00439ad0 T __ZN5Board10DrawShovelEPN4Sexy8GraphicsE
00439c30 T __ZN5Board12DrawUIBottomEPN4Sexy8GraphicsE
00439f00 T __ZN5Board10ShakeBoardEii
00439f30 T __ZN5Board18FindLawnMowerInRowEi
00439f80 T __ZN5Board16GetWinningZombieEv
00439fd0 T __ZN5Board17CountZombieByTypeE10ZombieType
0043a040 T __ZN5Board19NumberZombiesInWaveEi
0043a080 T __ZN5Board23IsZombieTypeSpawnedOnlyE10ZombieType
0043a0a0 T __ZN5Board9MouseMoveEii
0043a0e0 T __ZN5Board9MouseDragEii
0043a120 T __ZN5Board9MouseDownEiii
0043a590 T __ZN5Board7MouseUpEiii
0043a8a0 T __ZN5Board6UpdateEv
0043acc0 T __ZN5Board12DrawBackdropEPN4Sexy8GraphicsE
0043b2a0 T __ZN5Board9DrawUITopEPN4Sexy8GraphicsE
0043b620 T __ZN5Board15DrawGameObjectsEPN4Sexy8GraphicsE
0043c290 T __ZN5Board4DrawEPN4Sexy8GraphicsE
0043c3c0 t .text
0043c3c0 t __ZN9Challenge18UpdateConveyorBeltEv.part.0
0043cd20 t __ZN9Challenge18UpdateRainingSeedsEv.part.0
0043ce50 t __ZN9Challenge15SpawnLevelAwardEii.part.0
0043d010 t __ZN9Challenge10UpdateRainEv.part.0
0043d2a0 T __ZN9ChallengeC1Ev
0043d2a0 T __ZN9ChallengeC2Ev
0043d460 T __ZN9Challenge23LoadBeghouledBoardStateEP19BeghouledBoardState
0043d500 T __ZN9Challenge23BeghouledTwistValidMoveEiiP19BeghouledBoardState
0043d570 T __ZN9Challenge29BeghouledTwistSquareFromMouseEiiRiS0_
0043d600 T __ZN9Challenge21BeghouledStartFallingE14ChallengeState
0043d620 T __ZN9Challenge19BeghouledGetPlantAtEiiP19BeghouledBoardState
0043d650 T __ZN9Challenge30BeghouledRemoveHorizontalMatchEiiP19BeghouledBoardState
0043d710 T __ZN9Challenge28BeghouledRemoveVerticalMatchEiiP19BeghouledBoardState
0043d7c0 T __ZN9Challenge23BeghouledFallIntoSquareEiiP19BeghouledBoardState
0043d880 T __ZN9Challenge23BeghouledMakePlantsFallEP19BeghouledBoardState
0043d8f0 T __ZN9Challenge22BeghouledUpdateCratersEv
0043d960 T __ZN9Challenge20BeghouledClearCraterEi
0043d9d0 T __ZN9Challenge14BeghouledScoreEiiib
0043df60 T __ZN9Challenge30BeghouledHorizontalMatchLengthEiiP19BeghouledBoardState
0043dff0 T __ZN9Challenge28BeghouledVerticalMatchLengthEiiP19BeghouledBoardState
0043e090 T __ZN9Challenge22BeghouledRemoveMatchesEP19BeghouledBoardState
0043e190 T __ZN9Challenge22BeghouledBoardHasMatchEP19BeghouledBoardState
0043e210 T __ZN9Challenge29BeghouledTwistMoveCausesMatchEiiP19BeghouledBoardState
0043e2d0 t __ZN9Challenge23BeghouledTwistMouseDownEii.part.0
0043e540 T __ZN9Challenge23BeghouledTwistMouseDownEii
0043e580 T __ZN9Challenge20BeghouledIsValidMoveEiiiiP19BeghouledBoardState
0043e640 T __ZN9Challenge19BeghouledDragUpdateEii
0043e8e0 T __ZN9Challenge17BeghouledPickSeedEiiP19BeghouledBoardStateb
0043ea80 T __ZN9Challenge18BeghouledFillHolesEP19BeghouledBoardStateb
0043eb10 T __ZN9Challenge21BeghouledCreatePlantsEP19BeghouledBoardStateS1_
0043ebd0 T __ZN9Challenge23BeghouledMakeStartBoardEv
0043ec50 T __ZN9Challenge30BeghouledCheckForPossibleMovesEP19BeghouledBoardState
0043ed70 T __ZN9Challenge22BeghouledPopulateBoardEv
0043ee10 T __ZN9Challenge18BeghouledDragStartEii
0043ee40 T __ZN9Challenge9MouseMoveEii
0043ef30 T __ZN9Challenge13UpdateToolTipEii
0043f160 T __ZN9Challenge21MouseDownWhackAZombieEii
0043f320 T __ZN9Challenge24SlotMachineGetHandleRectEv
0043f360 T __ZN9Challenge7MouseUpEii
0043f490 T __ZN9Challenge11ClearCursorEv
0043f4e0 T __ZN9Challenge20UpdateBeghouledPlantEP5Plant
0043f640 T __ZN9Challenge19BeghouledFlashPlantEiiiiii
0043f6c0 T __ZN9Challenge24BeghouledTwistFlashMatchEP19BeghouledBoardStateii
0043f750 T __ZN9Challenge28BeghouledFlashFromBoardStateEP19BeghouledBoardStateiiii
0043f940 T __ZN9Challenge28BeghouledCancelMatchFlashingEv
0043f990 T __ZN9Challenge20BeghouledFlashAMatchEv
0043fac0 T __ZN9Challenge18UpdateConveyorBeltEv
0043fb10 T __ZN9Challenge18UpdateRainingSeedsEv
0043fb40 T __ZN9Challenge17UpdateStormyNightEv
0043fcb0 T __ZN9Challenge17UpdateSlotMachineEv
00440710 T __ZN9Challenge24BeghouledCheckStuckStateEv
00440860 T __ZN9Challenge14ZombieAtePlantEP6ZombieP5Plant
004409a0 T __ZN9Challenge19GetArtChallengeSeedEii
00440a10 T __ZN9Challenge15SpawnLevelAwardEii
00440a50 T __ZN9Challenge28CheckForCompleteArtChallengeEii
00440b50 T __ZN9Challenge16DrawArtChallengeEPN4Sexy8GraphicsE
00440ce0 T __ZN9Challenge13DrawBeghouledEPN4Sexy8GraphicsE
00440f50 T __ZN9Challenge10PlantAddedEP5Plant
00441070 T __ZN9Challenge10CanPlantAtEii8SeedType
00441240 T __ZN9Challenge23InitZombieWavesSurvivalEv
004413d0 T __ZN9Challenge23InitZombieWavesFromListEP10ZombieTypei
00441420 T __ZN9Challenge15InitZombieWavesEv
00441810 T __ZN9Challenge23WhackAZombiePlaceGravesEi
00441960 T __ZN9Challenge20WhackAZombieSpawningEv
00441ee0 T __ZN9Challenge20UpdateZombieSpawningEv
00441f60 T __ZN9Challenge23GraveDangerSpawnGraveAtEii
00441fe0 T __ZN9Challenge27GraveDangerSpawnRandomGraveEv
004420b0 T __ZN9Challenge15SpawnZombieWaveEv
004422f0 T __ZN9Challenge14DrawStormFlashEPN4Sexy8GraphicsEii
00442490 T __ZN9Challenge8DrawRainEPN4Sexy8GraphicsE
00442710 T __ZN9Challenge14DrawStormNightEPN4Sexy8GraphicsE
00442820 T __ZN9Challenge11DrawWeatherEPN4Sexy8GraphicsE
00442880 T __ZN9Challenge13PlayBossEnterEv
004428b0 T __ZN9Challenge11PortalStartEv
00442cb0 T __ZN9Challenge12UpdatePortalEP8GridItem
00443010 T __ZN9Challenge14GetOtherPortalEP8GridItem
00443070 T __ZN9Challenge11GetPortalAtEii
004430e0 T __ZN9Challenge11MoveAPortalEv
00443330 T __ZN9Challenge18UpdatePortalCombatEv
004434c0 T __ZN9Challenge15GetPortalToLeftEii
00443540 T __ZN9Challenge24GetPortalDistanceToMowerEi
004435e0 T __ZN9Challenge26PortalCombatRowSpawnWeightEi
00443660 T __ZN9Challenge16GetPortalToRightEii
004436e0 T __ZN9Challenge18GetPortalLeftRightEiib
00443780 T __ZN9Challenge26CanTargetZombieWithPortalsEP5PlantP6Zombie
00443860 T __ZN9Challenge16BeghouledShuffleEv
004438e0 T __ZN9Challenge22BeghouledPacketClickedEP10SeedPacket
00443bc0 T __ZN9Challenge15UpdateBeghouledEv
00443ff0 T __ZN9Challenge23BeghouledCanClearCraterEv
00444020 T __ZN9Challenge24ZombiquariumSpawnSnorkleEv
00444080 T __ZN9Challenge25ZombiquariumPacketClickedEP10SeedPacket
00444220 T __ZN9Challenge21ZombiquariumDropBrainEii
00444350 T __ZN9Challenge21ZombiquariumMouseDownEii
00444400 T __ZN9Challenge18ZombiquariumUpdateEv
004449e0 T __ZN9Challenge17ShovelAddWallnutsEv
00444a30 T __ZN9Challenge25ScaryPotterDontPlaceInColEiP20TodWeightedGridArrayi
00444a80 T __ZN9Challenge30ScaryPotterFillColumnWithPlantEi8SeedTypeP20TodWeightedGridArrayi
00444b10 T __ZN9Challenge19ScaryPotterPlacePotE12ScaryPotType10ZombieType8SeedTypeiP20TodWeightedGridArrayi
00444c80 T __ZN9Challenge24ScaryPotterChangePotTypeE13GridItemStatei
00444d60 T __ZN9Challenge19ScaryPotterPopulateEv
004468c0 T __ZN9Challenge22AdvanceCrazyDaveDialogEv
00446940 T __ZN9Challenge16ScaryPotterStartEv
00446a20 T __ZN9Challenge22ScaryPotterIsCompletedEv
00446a70 T __ZN9Challenge20ScaryPotterMalletPotEP8GridItem
00446b40 T __ZN9Challenge9MouseDownEiiiP9HitResult
00446e60 T __ZN9Challenge20ScaryPotterCountPotsEv
00446eb0 T __ZN9Challenge18PuzzleIsAwardStageEv
00446f30 T __ZN9Challenge19PuzzlePhaseCompleteEii
00447060 T __ZN9Challenge24ScaryPotterCountSunInPotEP8GridItem
00447070 T __ZN9Challenge18ScaryPotterOpenPotEP8GridItem
004473b0 t __ZN9Challenge17ScaryPotterUpdateEv.part.0
00447440 T __ZN9Challenge17ScaryPotterUpdateEv
00447460 T __ZN9Challenge22ScaryPotterJackExplodeEii
00447530 T __ZN9Challenge20PuzzleNextStageClearEv
004476a0 T __ZN9Challenge27IZombieSeedTypeToZombieTypeE8SeedType
004476b0 T __ZN9Challenge18IZombiePlaceZombieE10ZombieTypeii
00447790 T __ZN9Challenge26IZombieMouseDownWithZombieEiii
00447a90 T __ZN9Challenge17IZombieSetupPlantEP5Plant
00447b80 T __ZN9Challenge25IZombiePlacePlantInSquareE8SeedTypeii
00447c00 T __ZN9Challenge18IZombiePlacePlantsE8SeedTypeii
00447dc0 T __ZN9Challenge16IZombieInitLevelEv
00449850 T __ZN9Challenge12IZombieStartEv
00449920 T __ZN9Challenge13IZombieUpdateEv
00449a80 T __ZN9Challenge16IsZombieSeedTypeE8SeedType
00449a90 T __ZN9Challenge27IZombieSetPlantFilterEffectEP5Plant12FilterEffect
00449b40 T __ZN9Challenge16IZombieDrawPlantEPN4Sexy8GraphicsEP5Plant
00449d70 T __ZN9Challenge21IZombieGetBrainTargetEP6Zombie
00449e30 T __ZN9Challenge17IZombieScoreBrainEP8GridItem
00449fb0 T __ZN9Challenge15IZombieEatBrainEP6Zombie
0044a030 T __ZN9Challenge28IZombiePlantDropRemainingSunEP5Plant
0044a0b0 T __ZN9Challenge18IZombieSquishBrainEP8GridItem
0044a110 T __ZN9Challenge21SquirrelCountUncaughtEv
0044a170 T __ZN9Challenge13SquirrelStartEv
0044a440 T __ZN9Challenge10StartLevelEv
0044aff0 T __ZN9Challenge12SquirrelChewEP8GridItem
0044b0d0 T __ZN9Challenge12SquirrelPeekEP8GridItem
0044b0f0 T __ZN9Challenge13SquirrelFoundEP8GridItem
0044b450 T __ZN9Challenge17SquirrelUpdateOneEP8GridItem
0044b5b0 T __ZN9Challenge14SquirrelUpdateEv
0044b650 T __ZN9Challenge10UpdateRainEv
0044b690 T __ZN9Challenge15LastStandUpdateEv
0044b880 T __ZN9Challenge23LastStandCompletedStageEv
0044ba60 T __ZN9Challenge18WhackAZombieUpdateEv
0044bb20 T __ZN9Challenge19TreeOfWisdomMouseOnEii
0044bb70 T __ZN9Challenge19TreeOfWisdomGetSizeEv
0044bb90 T __ZN9Challenge16TreeOfWisdomDrawEPN4Sexy8GraphicsE
0044c0f0 T __ZN9Challenge16TreeOfWisdomInitEv
0044c3f0 T __ZN9Challenge9InitLevelEv
0044c820 T __ZN9Challenge16TreeOfWisdomGrowEv
0044c910 T __ZN9Challenge21TreeOfWisdomFertilizeEv
0044ca90 T __ZN9Challenge18TreeOfWisdomBabbleEv
0044cb50 T __ZN9Challenge22TreeOfWisdomGiveWisdomEv
0044cc00 T __ZN9Challenge21TreeOfWisdomSayRepeatEv
0044ccb0 T __ZN9Challenge22TreeOfWisdomToolUpdateEP8GridItem
0044cd00 T __ZN9Challenge18TreeOfWisdomUpdateEv
0044ceb0 T __ZN9Challenge17TreeOfWisdomLeaveEv
0044cf10 T __ZN9Challenge22TreeOfWisdomNextGardenEv
0044cf40 T __ZN9Challenge21TreeOfWisdomOpenStoreEv
0044d030 T __ZN9Challenge16TreeOfWisdomToolEii
0044d0a0 T __ZN9Challenge19TreeOfWisdomHitTestEiiP9HitResult
0044d180 T __ZN9Challenge19TreeOfWisdomCanFeedEv
0044d1f0 T __ZN9Challenge16UpdateWallKnightEv
0044d400 T __ZN9Challenge6UpdateEv
0044d7f0 T __ZN9Challenge17WallKnightKeyDownEN4Sexy7KeyCodeE
0044d8f0 T __ZN9Challenge15DrawSlotMachineEPN4Sexy8GraphicsE
0044da10 T __ZN9Challenge12DrawBackdropEPN4Sexy8GraphicsE
0044dc00 t .text
0044dc00 T __ZN4CoinC1Ev
0044dc00 T __ZN4CoinC2Ev
0044dc10 T __ZN4CoinD1Ev
0044dc10 T __ZN4CoinD2Ev
0044dc30 T __ZN4Coin7IsMoneyE8CoinType
0044dc40 T __ZN4Coin7IsMoneyEv
0044dc50 T __ZN4Coin5IsSunEv
0044dc60 T __ZN4Coin19IsPresentWithAdviceEv
0044dc70 T __ZN4Coin9ScoreCoinEv
0044dd20 T __ZN4Coin9StartFadeEv
0044dd30 T __ZN4Coin10UpdateFadeEv
0044dda0 T __ZN4Coin15UpdateCollectedEv
0044e2f0 T __ZN4Coin8GetColorEv
0044e400 T __ZN4Coin22GetFinalSeedPacketTypeEv
0044e440 T __ZN4Coin11FanOutCoinsE8CoinTypei
0044e540 T __ZN4Coin7CollectEv
0044f490 T __ZN4Coin11GetSunScaleEv
0044f4b0 T __ZN4Coin11GetSunValueEv
0044f4d0 T __ZN4Coin12GetCoinValueE8CoinType
0044f4f0 T __ZN4Coin15PlayLaunchSoundEv
0044f520 T __ZN4Coin15PlayGroundSoundEv
0044f550 T __ZN4Coin16PlayCollectSoundEv
0044f600 T __ZN4Coin29TryAutoCollectAfterLevelAwardEv
0044f660 T __ZN4Coin17DroppedUsableSeedEv
0044f6a0 T __ZN4Coin9MouseDownEiii
0044f7c0 T __ZN4Coin3DieEv
0044f7e0 T __ZN4Coin12MouseHitTestEiiP9HitResult
0044f9a0 T __ZN4Coin12IsLevelAwardEv
0044f9c0 T __ZN4Coin19CoinGetsBouncyArrowEv
0044fa50 T __ZN4Coin14CoinInitializeEii8CoinType10CoinMotion
00450550 T __ZN4Coin16GetDisappearTimeEv
004505d0 T __ZN4Coin10UpdateFallEv
00450a40 T __ZN4Coin6UpdateEv
00450ba0 T __ZN4Coin4DrawEPN4Sexy8GraphicsE
004514f0 t .text
004514f0 T __ZN12CursorObjectC1Ev
004514f0 T __ZN12CursorObjectC2Ev
00451600 T __ZN12CursorObject6UpdateEv
00451690 T __ZN12CursorObject3DieEv
004516b0 T __ZN12CursorObject4DrawEPN4Sexy8GraphicsE
00451ca0 T __ZN13CursorPreviewC1Ev
00451ca0 T __ZN13CursorPreviewC2Ev
00451ce0 T __ZN13CursorPreview6UpdateEv
00451e50 T __ZN13CursorPreview4DrawEPN4Sexy8GraphicsE
00452100 t .text
00452100 t __ZNSt7__cxx1112basic_stringIcSt11char_traitsIcESaIcEE12_M_constructIPKcEEvT_S8_St20forward_iterator_tag.isra.0
004521c0 T __ZN8CutSceneC1Ev
004521c0 T __ZN8CutSceneC2Ev
00452250 T __ZN8CutSceneD1Ev
00452250 T __ZN8CutSceneD2Ev
00452270 T __ZN8CutScene12PlaceAZombieE10ZombieTypeii
004525d0 T __ZN8CutScene21CanZombieGoInGridSpotE10ZombieTypeiiPA5_b
004527a0 t __ZN8CutScene25FindPlaceForStreetZombiesE10ZombieTypePA5_bRiS3_.part.0
00452860 T __ZN8CutScene25FindPlaceForStreetZombiesE10ZombieTypePA5_bRiS3_
004528b0 T __ZN8CutScene18FindAndPlaceZombieE10ZombieTypePA5_b
004529b0 t __ZN8CutScene18PlaceStreetZombiesEv.part.0
00452cf0 T __ZN8CutScene11Is2x2ZombieE10ZombieType
00452d10 T __ZN8CutScene16PreloadResourcesEv
004536c0 T __ZN8CutScene18PlaceStreetZombiesEv
00453700 T __ZN8CutScene16IsSurvivalRepickEv
00453740 T __ZN8CutScene22IsNonScrollingCutsceneEv
004537c0 T __ZN8CutScene21IsScrolledLeftAtStartEv
00453800 T __ZN8CutScene19CanGetPacketUpgradeEv
00453840 T __ZN8CutScene25CanGetSecondPacketUpgradeEv
00453890 T __ZN8CutScene19CanGetPacketUpgradeEi
004538e0 T __ZN8CutScene18IsBeforePreloadingEv
00453900 T __ZN8CutScene22AddGraveStoneParticlesEv
00453950 T __ZN8CutScene13AddFlowerPotsEv
00453a50 T __ZN8CutScene14PlaceLawnItemsEv
00453ae0 T __ZN8CutScene12CalcPositionEiiii
00453b20 T __ZN8CutScene12AnimateBoardEv
00454720 T __ZN8CutScene10ShowShovelEv
004547a0 T __ZN8CutScene18IsInShovelTutorialEv
004547c0 T __ZN8CutScene16StartSeedChooserEv
004547f0 T __ZN8CutScene14EndSeedChooserEv
00454830 T __ZN8CutScene18IsShowingCrazyDaveEv
00454860 T __ZN8CutScene15StartZombiesWonEv
004548c0 T __ZN8CutScene16UpdateZombiesWonEv
00454d30 T __ZN8CutScene14IsCutSceneOverEv
00454d40 T __ZN8CutScene14ZombieWonClickEv
00454d70 T __ZN8CutScene22AdvanceCrazyDaveDialogEb
004552b0 T __ZN8CutScene11CancelIntroEv
004555b0 T __ZN8CutScene15StartLevelIntroEv
004563c0 T __ZN8CutScene9MouseDownEii
00456450 T __ZN8CutScene7KeyDownEN4Sexy7KeyCodeE
004565f0 T __ZN8CutScene25ParseDelayTimeFromMessageEv
00456700 T __ZN8CutScene24ParseTalkTimeFromMessageEv
00456810 T __ZN8CutScene16ClearUpsellBoardEv
00456cb0 T __ZN8CutScene15AddUpsellZombieE10ZombieTypeii
00456d40 T __ZN8CutScene14LoadIntroBoardEv
00457430 T __ZN8CutScene19LoadUpsellBoardPoolEv
00457ad0 T __ZN8CutScene18LoadUpsellBoardFogEv
004580d0 T __ZN8CutScene25LoadUpsellChallengeScreenEv
00458120 T __ZN8CutScene19LoadUpsellBoardRoofEv
00458c30 T __ZN8CutScene12UpdateUpsellEv
00459290 T __ZN8CutScene10DrawUpsellEPN4Sexy8GraphicsE
00459390 T __ZN8CutScene11UpdateIntroEv
00459510 T __ZN8CutScene6UpdateEv
004597d0 T __ZN8CutScene9DrawIntroEPN4Sexy8GraphicsE
00459c10 T __ZN8CutScene20ShouldRunUpsellBoardEv
00459c30 T __ZN8CutScene18IsAfterSeedChooserEv
00459c40 T __ZN8CutScene17ShowZombieWalkingEv
00459c80 t .text
00459c80 T __ZN10GameObjectC1Ev
00459c80 T __ZN10GameObjectC2Ev
00459cc0 T __ZN10GameObject9BeginDrawEPN4Sexy8GraphicsE
00459d00 T __ZN10GameObject7EndDrawEPN4Sexy8GraphicsE
00459d30 T __ZN10GameObject23MakeParentGraphicsFrameEPN4Sexy8GraphicsE
00459d60 t .text
00459d60 T __ZN8GridItemC1Ev
00459d60 T __ZN8GridItemC2Ev
00459df0 T __ZN8GridItem11GridItemDieEv
00459e50 T __ZN8GridItem19DrawGridItemOverlayEPN4Sexy8GraphicsE
00459f30 T __ZN8GridItem16DrawIZombieBrainEPN4Sexy8GraphicsE
0045a0f0 T __ZN8GridItem14DrawGraveStoneEPN4Sexy8GraphicsE
0045a3f0 T __ZN8GridItem10DrawStinkyEPN4Sexy8GraphicsE
0045a5d0 T __ZN8GridItem10DrawCraterEPN4Sexy8GraphicsE
0045a860 T __ZN8GridItem10DrawLadderEPN4Sexy8GraphicsE
0045a8f0 T __ZN8GridItem12DrawSquirrelEPN4Sexy8GraphicsE
0045aa40 T __ZN8GridItem22AddGraveStoneParticlesEv
0045aaf0 T __ZN8GridItem10OpenPortalEv
0045ac40 T __ZN8GridItem11ClosePortalEv
0045acc0 T __ZN8GridItem12IsOpenPortalEv
0045ace0 T __ZN8GridItem12UpdatePortalEv
0045adf0 T __ZN8GridItem14UpdateScaryPotEv
0045aec0 T __ZN8GridItem11UpdateBrainEv
0045af10 T __ZN8GridItem14RakeFindZombieEv
0045aff0 T __ZN8GridItem10UpdateRakeEv
0045b0e0 T __ZN8GridItem6UpdateEv
0045b1a0 T __ZN8GridItem12DrawScaryPotEPN4Sexy8GraphicsE
0045b6d0 T __ZN8GridItem12DrawGridItemEPN4Sexy8GraphicsE
0045b7e0 t .text
0045b7e0 T __ZN14LawnEditWidgetD1Ev
0045b7e0 T __ZN14LawnEditWidgetD2Ev
0045b7f0 T __ZN14LawnEditWidgetD0Ev
0045b820 T __Z10ModInRangeiii
0045b880 T __Z11GridInRangeiiiiii
0045b8c0 T __Z21TileImageHorizontallyPN4Sexy8GraphicsEPNS_5ImageEiii
0045b940 T __Z19TileImageVerticallyPN4Sexy8GraphicsEPNS_5ImageEiii
0045b9c0 T __ZN14LawnEditWidgetC1EiPN4Sexy12EditListenerEPNS0_6DialogE
0045b9c0 T __ZN14LawnEditWidgetC2EiPN4Sexy12EditListenerEPNS0_6DialogE
0045ba00 T __Z16CreateEditWidgetiPN4Sexy12EditListenerEPNS_6DialogE
0045ba90 T __Z11DrawEditBoxPN4Sexy8GraphicsEPNS_10EditWidgetE
0045baf0 T __Z15MakeNewCheckboxiPN4Sexy16CheckboxListenerEb
0045bb60 T __Z16GetSavedGameNameB5cxx118GameModei
0045be30 T __Z23GetCurrentDaysSince2000v
0045beb0 T __ZN14LawnEditWidget7KeyDownEN4Sexy7KeyCodeE
0045bf00 T __ZN14LawnEditWidget7KeyCharEc
0045bf60 t .text
0045bf60 t __ZN9LawnMower10StartMowerEv.part.0
0045bfe0 T __ZN9LawnMower19LawnMowerInitializeEi
0045c1f0 T __ZN9LawnMower10UpdatePoolEv
0045c4e0 T __ZN9LawnMower9MowZombieEP6Zombie
0045c5f0 T __ZN9LawnMower3DieEv
0045c710 T __ZN9LawnMower6UpdateEv
0045cae0 T __ZN9LawnMower10StartMowerEv
0045cb00 T __ZN9LawnMower11SquishMowerEv
0045cb70 T __ZN9LawnMower22GetLawnMowerAttackRectEv
0045cbc0 T __ZN9LawnMower16EnableSuperMowerEb
0045cc00 T __ZN9LawnMower4DrawEPN4Sexy8GraphicsE
0045cee0 t .text
0045cee0 T __ZN13MessageWidgetC1EP7LawnApp
0045cee0 T __ZN13MessageWidgetC2EP7LawnApp
0045cf50 T __ZN13MessageWidget11ClearReanimEv
0045cfa0 T __ZN13MessageWidget10ClearLabelEv
0045cfd0 T __ZN13MessageWidget16LayoutReanimTextEv
0045d230 T __ZN13MessageWidget8SetLabelERKNSt7__cxx1112basic_stringIcSt11char_traitsIcESaIcEEE12MessageStyle
0045d3d0 T __ZN13MessageWidget6UpdateEv
0045d650 T __ZN13MessageWidget18DrawReanimatedTextEPN4Sexy8GraphicsEPNS0_4FontERKNS0_5ColorEf
0045d880 T __ZN13MessageWidget7GetFontEv
0045d8a0 T __ZN13MessageWidget4DrawEPN4Sexy8GraphicsE
0045e520 t .text
0045e520 T __ZN5PlantC1Ev
0045e520 T __ZN5PlantC2Ev
0045e570 T __ZN5Plant15CalcRenderOrderEv
0045e640 T __ZN5Plant19GetDamageRangeFlagsE11PlantWeapon
0045e6e0 T __ZN5Plant14IsOnHighGroundEv
0045e710 T __ZN5Plant7IsSpikyEv
0045e730 T __ZN5Plant19AddAttachedParticleEiii14ParticleEffect
0045e7b0 T __ZN5Plant19FindStarFruitTargetEv
0045ea60 T __ZN5Plant15LaunchStarFruitEv
0045eae0 T __ZN5Plant13StarFruitFireEv
0045ebe0 T __ZN5Plant8MakesSunEv
0045ec00 T __ZN5Plant21UpdateProductionPlantEv
0045eef0 T __ZN5Plant15UpdateSunShroomEv
0045f040 T __ZN5Plant14PlayBodyReanimEPKc14ReanimLoopTypeif
0045f0c0 T __ZN5Plant15SpikeweedAttackEv
0045f160 T __ZN5Plant16UpdateDoomShroomEv
0045f240 T __ZN5Plant15UpdateIceShroomEv
0045f260 T __ZN5Plant15UpdateFlowerPotEv
0045f280 T __ZN5Plant13UpdateLilypadEv
0045f2a0 T __ZN5Plant18UpdateConceptPlantEv
0045f2c0 T __ZN5Plant17GetFreeMagnetItemEv
0045f300 T __ZN5Plant22MagnetShroomAttactItemEP6Zombie
0045f9e0 T __ZN5Plant20DrawMagnetItemsOnTopEv
0045fa60 T __ZN5Plant18UpdateMagnetShroomEv
00460060 T __ZN5Plant20FindGoldMagnetTargetEv
00460160 T __ZN5Plant21GoldMagnetFindTargetsEv
00460290 T __ZN5Plant24IsAGoldMagnetAboutToSuckEv
00460330 T __ZN5Plant13RemoveEffectsEv
004603e0 T __ZN5Plant14IsUpgradableToE8SeedType
00460500 T __ZN5Plant20IsPartOfUpgradableToE8SeedType
00460570 T __ZN5Plant17UpdateReanimColorEv
00460af0 T __ZN5Plant9IsOnBoardEv
00460b00 T __ZN5Plant8IsInPlayEv
00460b30 T __ZN5Plant11NotOnGroundEv
00460b80 T __ZN5Plant15AttachBlinkAnimEP11Reanimation
00461000 T __ZN5Plant8EndBlinkEv
00461070 T __ZN5Plant11SetSleepingEb
00461380 T __ZN5Plant7DoBlinkEv
00461530 T __ZN5Plant11UpdateBlinkEv
004615d0 T __ZN5Plant11AnimateNutsEv
004617b0 T __ZN5Plant13AnimateGarlicEv
004618b0 T __ZN5Plant14AnimatePumpkinEv
00461970 T __ZN5Plant7AnimateEv
00461af0 T __Z26PlantFlowerPotHeightOffset8SeedTypef
00461bb0 T __Z21PlantDrawHeightOffsetP5BoardP5Plant8SeedTypeii
00461fc0 T __ZN5Plant15PlantInitializeEii8SeedTypeS0_
00462e30 T __ZN5Plant12UpdateReanimEv
00463280 T __ZN5Plant16GetPeaHeadOffsetERiS0_
00463350 T __ZN5Plant15DrawMagnetItemsEPN4Sexy8GraphicsE
004635b0 T __ZN5Plant8GetImageE8SeedType
004635d0 T __ZN5Plant10DrawShadowEPN4Sexy8GraphicsEff
00463a80 T __ZN5Plant9MouseDownEiii
00463b30 T __ZN5Plant10IceZombiesEv
00463bb0 T __ZN5Plant7BurnRowEi
00463cb0 T __ZN5Plant14BlowAwayFliersEii
00463d50 T __ZN5Plant13CobCannonFireEii
00463e40 T __ZN5Plant3DieEv
00463f50 T __ZN5Plant19SpikeRockTakeDamageEv
00464060 T __ZN5Plant17UpdateGraveBusterEv
004641e0 T __ZN5Plant21KillAllPlantsNearDoomEv
00464240 T __ZN5Plant9DoSpecialEv
00464740 T __ZN5Plant12UpdateBloverEv
004647c0 T __ZN5Plant6SquishEv
00464910 T __ZN5Plant13ImitaterMorphEv
00464a00 T __ZN5Plant14UpdateImitaterEv
00464b00 T __ZN5Plant16UpdateCoffeeBeanEv
00464b50 T __Z18GetPlantDefinition8SeedType
00464b60 T __ZN5Plant7GetCostE8SeedTypeS0_
00464cb0 T __ZN5Plant13GetNameStringB5cxx11E8SeedTypeS0_
00464ea0 T __ZN5Plant10GetToolTipB5cxx11E8SeedType
00464f10 T __ZN5Plant14GetRefreshTimeE8SeedTypeS0_
00464f60 T __ZN5Plant11IsNocturnalE8SeedType
00464f90 T __ZN5Plant9IsAquaticE8SeedType
00464fc0 T __ZN5Plant8IsFlyingE8SeedType
00464fd0 T __ZN5Plant9IsUpgradeE8SeedType
00464fe0 T __ZN5Plant12GetPlantRectEv
00465080 T __ZN5Plant18GetPlantAttackRectE11PlantWeapon
00465220 T __ZN5Plant15DoRowAreaDamageEij
004653a0 T __ZN5Plant4FireEP6Zombiei11PlantWeapon
00465c20 T __ZN5Plant15UpdateTorchwoodEv
00465cf0 T __ZN5Plant14DoSquashDamageEv
00465de0 T __ZN5Plant16FindSquashTargetEv
00465fb0 T __ZN5Plant12UpdateSquashEv
004664e0 T __ZN5Plant16FindTargetZombieEi11PlantWeapon
00466900 T __ZN5Plant17FindTargetAndFireEi11PlantWeapon
00466d50 T __ZN5Plant17LaunchThreepeaterEv
00466f30 T __ZN5Plant13UpdateShooterEv
00467120 T __ZN5Plant16UpdateTanglekelpEv
004673d0 T __ZN5Plant13UpdateBowlingEv
00467a40 T __ZN5Plant23DistanceToClosestZombieEv
00467b00 T __ZN5Plant12UpdatePotatoEv
00467df0 T __ZN5Plant21PreloadPlantResourcesE8SeedType
00467eb0 T __ZN5Plant12PlayIdleAnimEf
00467f50 t __ZN5Plant19UpdateScaredyShroomEv.part.0
004681f0 T __ZN5Plant19UpdateScaredyShroomEv
00468210 T __ZN5Plant14UpdateUmbrellaEv
004682c0 T __ZN5Plant15UpdateCobCannonEv
004684a0 T __ZN5Plant22UpdateGoldMagnetShroomEv
00468730 T __ZN5Plant15UpdateSpikeweedEv
00468880 t __ZN5Plant12UpdateCactusEv.part.0
00468ac0 T __ZN5Plant12UpdateCactusEv
00468ae0 T __ZN5Plant13UpdateChomperEv
00468dc0 T __ZN5Plant14UpdateShootingEv
00469640 T __ZN5Plant15UpdateAbilitiesEv
00469a00 T __ZN5Plant6UpdateEv
00469ab0 T __ZN5Plant12DrawSeedTypeEPN4Sexy8GraphicsE8SeedTypeS3_13DrawVariationff
00469f10 T __ZN5Plant4DrawEPN4Sexy8GraphicsE
0046a9e0 t .text
0046a9e0 T __ZN10ProjectileC1Ev
0046a9e0 T __ZN10ProjectileC2Ev
0046a9f0 T __ZN10ProjectileD1Ev
0046a9f0 T __ZN10ProjectileD2Ev
0046aa10 T __ZN10Projectile20ProjectileInitializeEiiii14ProjectileType
0046ad40 T __ZN10Projectile17CantHitHighGroundEv
0046ad80 T __ZN10Projectile14IsSplashDamageEP6Zombie
0046add0 T __ZN10Projectile14GetDamageFlagsEP6Zombie
0046ae60 T __ZN10Projectile15PlayImpactSoundEP6Zombie
0046afe0 T __ZN10Projectile10DrawShadowEPN4Sexy8GraphicsE
0046b1e0 T __ZN10Projectile3DieEv
0046b230 T __ZN10Projectile17GetProjectileRectEv
0046b330 T __ZN10Projectile24FindCollisionTargetPlantEv
0046b440 T __ZN10Projectile22PeaAboutToHitTorchwoodEv
0046b500 T __ZN10Projectile19FindCollisionTargetEv
0046b620 T __ZN10Projectile19IsZombieHitBySplashEP6Zombie
0046b6e0 T __ZN10Projectile14DoSplashDamageEP6Zombie
0046b830 T __ZN10Projectile8DoImpactEP6Zombie
0046bd80 T __ZN10Projectile18CheckForHighGroundEv
0046bef0 T __ZN10Projectile15UpdateLobMotionEv
0046c310 T __ZN10Projectile17CheckForCollisionEv
0046c620 T __ZN10Projectile18UpdateNormalMotionEv
0046c9d0 T __ZN10Projectile12UpdateMotionEv
0046cad0 T __ZN10Projectile6UpdateEv
0046cba0 T __ZN10Projectile17ConvertToFireballEi
0046cca0 T __ZN10Projectile12ConvertToPeaEi
0046ccf0 T __ZN10Projectile16GetProjectileDefEv
0046cd00 T __ZN10Projectile4DrawEPN4Sexy8GraphicsE
0046d060 t .text
0046d060 t __ZN10SeedPacket12FlashIfReadyEv.part.0
0046d170 t __ZNSt7__cxx1112basic_stringIcSt11char_traitsIcESaIcEEC2EPKcRKS3_.isra.0
0046d230 T __ZN10SeedPacketC1Ev
0046d230 T __ZN10SeedPacketC2Ev
0046d2a0 T __ZN10SeedPacket23PickNextSlotMachineSeedEv
0046d3c0 T __ZN10SeedPacket16SlotMachineStartEv
0046d3e0 T __ZN10SeedPacket8ActivateEv
0046d3f0 T __ZN10SeedPacket10DeactivateEv
0046d410 T __ZN10SeedPacket11SetActivateEb
0046d430 T __ZN10SeedPacket9CanPickUpEv
0046d500 T __ZN10SeedPacket12FlashIfReadyEv
0046d530 T __ZN10SeedPacket6UpdateEv
0046d6c0 T __ZN10SeedPacket9MouseDownEiii
0046de10 T __ZN10SeedPacket12MouseHitTestEiiP9HitResult
0046de80 T __ZN8SeedBankC1Ev
0046de80 T __ZN8SeedBankC2Ev
0046df50 T __ZN8SeedBank12MouseHitTestEiiP9HitResult
0046e010 T __ZN8SeedBank13ContainsPointEii
0046e040 T __ZN8SeedBank7AddSeedE8SeedTypeb
0046e0d0 T __ZN8SeedBank10RemoveSeedEi
0046e150 T __ZN10SeedPacket10WasPlantedEv
0046e220 T __ZN8SeedBank25GetNumSeedsOnConveyorBeltEv
0046e250 T __ZN8SeedBank25CountOfTypeOnConveyorBeltE8SeedType
0046e2a0 T __ZN10SeedPacket13SetPacketTypeE8SeedTypeS0_
0046e400 T __ZN8SeedBank18UpdateConveyorBeltEv
0046e470 T __ZN8SeedBank11UpdateWidthEv
0046e4e0 T __ZN8SeedBank17RefreshAllPacketsEv
0046e560 T __Z18SeedPacketDrawSeedPN4Sexy8GraphicsEff8SeedTypeS2_fff
0046ebc0 T __Z14DrawSeedPacketPN4Sexy8GraphicsEff8SeedTypeS2_fibb
0046f890 T __ZN10SeedPacket4DrawEPN4Sexy8GraphicsE
0046fc60 T __ZN8SeedBank4DrawEPN4Sexy8GraphicsE
00470040 t .text
00470040 T __ZN13ToolTipWidgetC1Ev
00470040 T __ZN13ToolTipWidgetC2Ev
004700c0 T __ZN13ToolTipWidget8GetLinesERSt6vectorINSt7__cxx1112basic_stringIcSt11char_traitsIcESaIcEEESaIS6_EE
004702e0 T __ZN13ToolTipWidget13CalculateSizeEv
00470480 T __ZN13ToolTipWidget8SetLabelERKNSt7__cxx1112basic_stringIcSt11char_traitsIcESaIcEEE
00470570 T __ZN13ToolTipWidget8SetTitleERKNSt7__cxx1112basic_stringIcSt11char_traitsIcESaIcEEE
00470660 T __ZN13ToolTipWidget14SetWarningTextERKNSt7__cxx1112basic_stringIcSt11char_traitsIcESaIcEEE
00470750 T __ZN13ToolTipWidget4DrawEPN4Sexy8GraphicsE
00470cc0 t .text
00470cc0 T __ZN9ZenGardenC1Ev
00470cc0 T __ZN9ZenGardenC2Ev
00470ce0 T __ZN9ZenGarden17RemovePottedPlantEP5Plant
00470d30 T __ZN9ZenGarden20PottedPlantFromIndexEi
00470d50 T __ZN9ZenGarden14ZenGardenStartEv
00470d60 T __ZN9ZenGarden16CanDropChocolateEv
00470d90 T __ZN9ZenGarden15IsZenGardenFullEb
00470e20 T __ZN9ZenGarden22CanDropPottedPlantLootEv
00470e60 T __ZN9ZenGarden21FindOpenZenGardenSpotERiS0_
00470f80 T __ZN9ZenGarden17GetPlantSellPriceEP5Plant
00471030 T __ZN9ZenGarden22MouseDownWithMoneySignEP5Plant
00471a70 T __ZN9ZenGarden16PlantFulfillNeedEP5Plant
00471b90 T __ZN9ZenGarden27AllPlantsHaveBeenFertilizedEv
00471bd0 T __ZN9ZenGarden12PlantWateredEP5Plant
00471dc0 T __ZN9ZenGarden14AddHappyEffectEP5Plant
00471eb0 T __ZN9ZenGarden17RemoveHappyEffectEP5Plant
00471f20 T __ZN9ZenGarden26WasPlantNeedFulfilledTodayEP11PottedPlant
00471fc0 T __ZN9ZenGarden21PlantCanHaveChocolateEP5Plant
00472040 T __ZN9ZenGarden22PlantShouldRefreshNeedEP11PottedPlant
004720e0 T __ZN9ZenGarden17RefreshPlantNeedsEP11PottedPlant
00472170 T __ZN9ZenGarden16UpdatePlantNeedsEv
00472250 T __ZN9ZenGarden28WasPlantFertilizedInLastHourEP11PottedPlant
00472290 T __ZN9ZenGarden13GetPlantsNeedEP11PottedPlant
004723f0 T __ZN9ZenGarden15PlantsNeedWaterEv
00472460 T __ZN9ZenGarden17PlantCanBeWateredEP5Plant
004724b0 T __ZN9ZenGarden28CountPlantsNeedingFertilizerEv
00472530 T __ZN9ZenGarden22UpdatePlantEffectStateEP5Plant
004726e0 T __ZN9ZenGarden20FeedChocolateToPlantEP5Plant
00472760 T __ZN9ZenGarden9MovePlantEP5Plantii
00472980 T __ZN9ZenGarden27PlantPottedDrawHeightOffsetE8SeedTypef
004729c0 T __ZN9ZenGarden15ZenPlantOffsetXEP11PottedPlant
004729e0 T __ZN9ZenGarden18HasPurchasedStinkyEv
00472a00 T __ZN9ZenGarden14StinkyPickGoalEP8GridItem
00472da0 T __ZN9ZenGarden12StinkyWakeUpEP8GridItem
00472e30 T __ZN9ZenGarden24StinkyStartFallingAsleepEP8GridItem
00472e80 T __ZN9ZenGarden25StinkyFinishFallingAsleepEP8GridItemi
00473020 T __ZN9ZenGarden9AddStinkyEv
004732e0 T __ZN9ZenGarden23UpdateStinkyMotionTrailEP8GridItemb
00473390 T __ZN9ZenGarden20StinkyAnimRateUpdateEP8GridItem
00473410 T __ZN9ZenGarden17ResetStinkyTimersEv
00473430 T __ZN9ZenGarden12StinkyUpdateEP8GridItem
00473ba0 T __ZN9ZenGarden9GetStinkyEv
00473be0 T __ZN9ZenGarden29MouseDownWithEmptyWheelBarrowEP5Plant
00473c70 T __ZN9ZenGarden27GetPottedPlantInWheelbarrowEv
00473cc0 T __ZN9ZenGarden24GetSpecialGridPlacementsERi
00473d30 T __ZN9ZenGarden12PixelToGridXEii
00473dd0 T __ZN9ZenGarden12PixelToGridYEii
00473e70 T __ZN9ZenGarden12GridToPixelXEii
00473f00 T __ZN9ZenGarden12GridToPixelYEii
00473f90 T __ZN9ZenGarden12DrawBackdropEPN4Sexy8GraphicsE
004740b0 T __ZN9ZenGarden30ShowTutorialArrowOnWateringCanEv
004741e0 T __ZN9ZenGarden17SetPlantAnimSpeedEP5Plant
004743c0 T __ZN9ZenGarden25PlantGetMinutesSinceHappyEP5Plant
004744d0 T __ZN9ZenGarden21PlantSetLaunchCounterEP5Plant
00474530 T __ZN9ZenGarden16PlacePottedPlantEi
004747f0 T __ZN9ZenGarden14AddPottedPlantEP11PottedPlant
00474900 T __ZN9ZenGarden22AdvanceCrazyDaveDialogEv
00474a00 T __ZN9ZenGarden15PlantFertilizedEP5Plant
00474c40 T __ZN9ZenGarden13DoFeedingToolEii13GridItemState
00475020 T __ZN9ZenGarden13ZenToolUpdateEP8GridItem
004750b0 T __ZN9ZenGarden18ZenGardenInitLevelEb
00475150 T __ZN9ZenGarden28MouseDownWithFullWheelBarrowEii
00475350 T __ZN9ZenGarden21PlantUpdateProductionEP5Plant
004754c0 T __ZN9ZenGarden16ResetPlantTimersEP11PottedPlant
00475500 T __ZN9ZenGarden17PottedPlantUpdateEP5Plant
00475660 T __ZN9ZenGarden15ZenGardenUpdateEv
00475930 T __ZN9ZenGarden16DrawPlantOverlayEPN4Sexy8GraphicsEP5Plant
00475a80 T __ZN9ZenGarden10WakeStinkyEv
00475af0 T __ZN9ZenGarden24MouseDownWithFeedingToolEii10CursorType
00475ff0 T __ZN9ZenGarden17MouseDownWithToolEii10CursorType
004761a0 T __ZN9ZenGarden18MouseDownZenGardenEiiiP9HitResult
004764b0 T __ZN9ZenGarden23IsStinkyHighOnChocolateEv
004764e0 T __ZN9ZenGarden20PlantHighOnChocolateEP11PottedPlant
00476520 T __ZN9ZenGarden16IsStinkySleepingEv
00476570 T __ZN9ZenGarden19ShouldStinkyBeAwakeEv
004765d0 T __ZN9ZenGarden19SetupForZenTutorialEv
004766c0 T __ZN9ZenGarden18PickRandomSeedTypeEv
00476710 T __ZN9ZenGarden11LeaveGardenEv
00476840 T __ZN9ZenGarden14GotoNextGardenEv
00476e70 T __ZN9ZenGarden9OpenStoreEv
004770c0 T __ZN9ZenGarden15DrawPottedPlantEPN4Sexy8GraphicsEffP11PottedPlantfb
004773c0 T __ZN9ZenGarden19DrawPottedPlantIconEPN4Sexy8GraphicsEffP11PottedPlant
00477400 t .text
00477400 t __ZN6Zombie23UpdateZombieGatlingHeadEv.part.0
004775a0 t __ZN6Zombie15BungeeDropPlantEv.part.0
00477620 t __ZN6Zombie8DropPoleEv.part.0
004776c0 T __Z19GetZombieDefinition10ZombieType
004776d0 T __ZN6ZombieC1Ev
004776d0 T __ZN6ZombieC2Ev
00477730 T __ZN6Zombie13SetupDoorArmsEP11Reanimationb
004777e0 T __ZN6Zombie17SetupReanimLayersEP11Reanimation10ZombieType
004779d0 T __ZN6Zombie12ShowDoorArmsEb
00477a80 T __ZN6Zombie20ReanimIgnoreClipRectEPKcb
00477b10 T __ZN6Zombie22ReanimReenableClippingEv
00477b80 T __ZN6Zombie31CountBungeesTargetingSunFlowersEv
00477c20 T __ZN6Zombie14IsBouncingPogoEv
00477c30 T __ZN6Zombie18ZombieCatapultFireEP5Plant
00477d60 T __ZN6Zombie18FindCatapultTargetEv
00477e10 T __ZN6Zombie18IsTanglekelpTargetEv
00477e70 T __ZN6Zombie19UpdateZombiePeaHeadEv
00478010 T __ZN6Zombie23UpdateZombieGatlingHeadEv
00478030 T __ZN6Zombie22NeedsMoreBackupDancersEv
004780c0 T __ZN6Zombie25UpdateZombieRiseFromGraveEv
00478250 T __ZN6Zombie22UpdateZombieHighGroundEv
004782d0 T __ZN6Zombie19UpdateZombieFallingEv
00478380 T __ZN6Zombie21OverrideParticleScaleEP17TodParticleSystem
004783b0 T __ZN6Zombie21OverrideParticleColorEP17TodParticleSystem
00478460 T __ZN6Zombie8DropPoleEv
00478510 T __ZN6Zombie22SetupReanimForLostHeadEv
004785b0 T __ZN6Zombie16ZombieNotWalkingEv
00478730 T __ZN6Zombie13UpdateZamboniEv
00478880 T __ZN6Zombie9IsOnBoardEv
00478890 T __ZN6Zombie20UpdateClimbingLadderEv
00478970 T __ZN6Zombie17HasYuckyFaceImageEv
004789a0 T __ZN6Zombie13ShowYuckyFaceEb
00478ad0 T __ZN6Zombie10DrawZombieEPN4Sexy8GraphicsERK18ZombieDrawPosition
00478ae0 T __ZN6Zombie18IsWalkingBackwardsEv
00478b80 T __ZN6Zombie14DrawZombiePartEPN4Sexy8GraphicsEPNS0_5ImageEiiRK18ZombieDrawPosition
00479100 T __ZN6Zombie14DrawZombieHeadEPN4Sexy8GraphicsERK18ZombieDrawPositioni
00479110 T __ZN6Zombie19DrawZombieWithPartsEPN4Sexy8GraphicsERK18ZombieDrawPosition
00479120 T __ZN6Zombie16DrawDancerReanimEPN4Sexy8GraphicsERK18ZombieDrawPosition
00479380 T __ZN6Zombie18GetHelmDamageIndexEv
004793c0 T __ZN6Zombie18GetBodyDamageIndexEv
00479440 T __ZN6Zombie20GetShieldDamageIndexEv
00479480 T __ZN6Zombie10GetDrawPosER18ZombieDrawPosition
00479bd0 T __ZN6Zombie12UpdateReanimEv
0047a010 T __ZN6Zombie16DrawBungeeTargetEPN4Sexy8GraphicsE
0047a190 T __ZN6Zombie14GetDancerFrameEv
0047a1f0 T __ZN6Zombie14GetDancerPhaseEv
0047a2a0 T __ZN6Zombie11DrawIceTrapEPN4Sexy8GraphicsERK18ZombieDrawPositionb
0047a3a0 T __ZN6Zombie14CanTargetPlantEP5Plant16ZombieAttackType
0047a6a0 T __ZN6Zombie17SquishAllInSquareEii16ZombieAttackType
0047a720 T __ZN6Zombie14IsImmobiliziedEv
0047a740 T __ZN6Zombie22IsMovingAtChilledSpeedEv
0047a800 T __ZN6Zombie11SetAnimRateEf
0047a860 T __ZN6Zombie13ApplyAnimRateEf
0047a8b0 T __ZN6Zombie10PoolSplashEb
0047a9b0 T __ZN6Zombie14IsOnHighGroundEv
0047aa10 T __ZN6Zombie18CheckForHighGroundEv
0047aad0 T __ZN6Zombie19StartMindControlledEv
0047abc0 T __ZN6Zombie15BungeeDropPlantEv
0047ac50 T __ZN6Zombie21PlayZombieAppearSoundEv
0047acc0 T __ZN6Zombie16StartZombieSoundEv
0047ad40 T __ZN6Zombie15StopZombieSoundEv
0047ae40 T __ZN6Zombie17GetPosYBasedOnRowEi
0047af10 T __ZN6Zombie18SummonBackupDancerEii
0047b130 t __ZN6Zombie19SummonBackupDancersEv.part.0
0047b260 T __ZN6Zombie19SummonBackupDancersEv
0047b280 T __ZN6ZombieD1Ev
0047b280 T __ZN6ZombieD2Ev
0047b2b0 T __ZN6Zombie6SetRowEi
0047b2e0 T __ZN6Zombie11IsZombotanyE10ZombieType
0047b2f0 T __ZN6Zombie21ZombieTypeCanGoInPoolE10ZombieType
0047b330 T __ZN6Zombie27ZombieTypeCanGoOnHighGroundE10ZombieType
0047b340 T __ZN6Zombie13GetZombieRectEv
0047b400 T __ZN6Zombie17ZombieTargetLeadXEf
0047b490 T __ZN6Zombie21IsStandingOnSpikeweedEv
0047b580 T __ZN6Zombie18TrySpawnLevelAwardEv
0047b9f0 T __ZN6Zombie8DropLootEv
0047bbd0 T __ZN6Zombie19GetZombieAttackRectEv
0047bcc0 T __ZN6Zombie15FindPlantTargetE16ZombieAttackType
0047bd70 T __ZN6Zombie17AnimateChewEffectEv
0047bf10 T __ZN6Zombie16FindZombieTargetEv
0047c040 T __ZN6Zombie11CheckSquishE16ZombieAttackType
0047c160 T __ZN6Zombie18CheckForZombieStepEv
0047c190 T __ZN6Zombie19AddAttachedParticleEii14ParticleEffect
0047c240 T __ZN6Zombie17AddAttachedReanimEii15ReanimationType
0047c2e0 T __ZN6Zombie18IsTangleKelpTargetEv
0047c350 T __ZN6Zombie14IsSquashTargetEP5Plant
0047c3c0 T __ZN6Zombie15IsFireResistantEv
0047c3f0 T __ZN6Zombie23BalloonPropellerHatSpinEb
0047c460 T __ZN6Zombie12AttachShieldEv
0047c580 T __ZN6Zombie16ReanimShowPrefixEPKci
0047c5d0 T __ZN6Zombie15ReanimShowTrackEPKci
0047c620 T __ZN6Zombie9DoDaisiesEv
0047c810 T __ZN6Zombie9HasShadowEv
0047c8f0 T __ZN6Zombie18SetupDrawZombieWonEPN4Sexy8GraphicsE
0047c9c0 T __ZN6Zombie10DrawShadowEPN4Sexy8GraphicsE
0047cfc0 T __ZN6Zombie16GetTrackPositionEPKcRfS2_
0047d060 T __ZN6Zombie8DropFlagEv
0047d1c0 T __ZN6Zombie10DrawButterEPN4Sexy8GraphicsERK18ZombieDrawPosition
0047d3a0 T __ZN6Zombie14DrawBungeeCordEPN4Sexy8GraphicsEii
0047d660 T __ZN6Zombie21SetupReanimForLostArmEj
0047df40 T __ZN6Zombie8IsFlyingEv
0047df50 T __ZN6Zombie18GetBobsledPositionEv
0047dfd0 T __ZN6Zombie17DrawBobsledReanimEPN4Sexy8GraphicsERK18ZombieDrawPositionb
0047e4f0 T __ZN6Zombie16CanLoseBodyPartsEv
0047e540 t __ZN6Zombie19UpdateZombieWalkingEv.part.0
0047e8e0 T __ZN6Zombie19UpdateZombieWalkingEv
0047e910 T __ZN6Zombie15UpdateAnimSpeedEv
0047ebe0 T __ZN6Zombie15PickRandomSpeedEv
0047ede0 T __ZN6Zombie10UpdateYetiEv
0047ee30 T __ZN6Zombie21ConvertToNormalZombieEv
0047eed0 T __ZN6Zombie16PlayZombieReanimEPKc14ReanimLoopTypeif
0047ef50 T __ZN6Zombie13RemoveIceTrapEv
0047eff0 T __ZN6Zombie12RemoveButterEv
0047f0c0 T __ZN6Zombie13DiggerLoseAxeEv
0047f1c0 t __ZN6Zombie16AnimateChewSoundEv.part.0
0047f320 T __ZN6Zombie16AnimateChewSoundEv
0047f340 T __ZN6Zombie17RemoveColdEffectsEv
0047f3f0 T __ZN6Zombie17BungeeStealTargetEv
0047f4d0 T __ZN6Zombie16BungeeLiftTargetEv
0047f620 T __ZN6Zombie16BungeeDropZombieEPS_ii
0047f790 t __ZN6Zombie11StartEatingEv.part.0
0047f8e0 T __ZN6Zombie11StartEatingEv
0047f900 t __ZN6Zombie24UpdateZombieBackupDancerEv.part.0
0047faf0 T __ZN6Zombie24UpdateZombieBackupDancerEv
0047fb10 T __ZN6Zombie28ZombiquariumFindClosestBrainEv
0047fcf0 T __ZN6Zombie13StartWalkAnimEi
0047ff80 t __ZN6Zombie21UpdateZombieNewspaperEv.part.0
00480020 T __ZN6Zombie21UpdateZombieNewspaperEv
00480040 T __ZN6Zombie16UpdateZombiePoolEv
00480150 T __ZN6Zombie13RiseFromGraveEii
004805a0 T __ZN6Zombie10LoadReanimE15ReanimationType
00480780 T __ZN6Zombie13BungeeLandingEv
004809e0 T __ZN6Zombie15UpdateZombieImpEv
00480b20 T __ZN6Zombie12DetachShieldEv
00480c70 T __ZN6Zombie10StopEatingEv
00480d00 T __ZN6Zombie9DragUnderEv
00480d80 T __ZN6Zombie10DropShieldEj
00480ff0 T __ZN6Zombie16TakeShieldDamageEij
00481250 T __ZN6Zombie8EatPlantEP5Plant
004815a0 T __ZN6Zombie15UpdateYuckyFaceEv
00481850 T __ZN6Zombie7AnimateEv
00481a30 t __ZN6Zombie9PogoBreakEj.part.0
00481b50 T __ZN6Zombie9PogoBreakEj
00481b70 T __ZN6Zombie8DropHeadEj
004821f0 T __ZN6Zombie16UpdateZombiePogoEv
00482540 T __ZN6Zombie12BobsledCrashEv
00482660 t __ZN6Zombie8DropHelmEj.part.0
004829a0 T __ZN6Zombie8DropHelmEj
004829c0 T __ZN6Zombie18UpdateZombieDiggerEv
00482eb0 T __ZN6Zombie23UpdateZombiePolevaulterEv
004832b0 t __ZN6Zombie18UpdateZombieDancerEv.part.0
004836e0 T __ZN6Zombie18UpdateZombieDancerEv
00483700 T __ZN6Zombie20UpdateZombieCatapultEv
00483a00 T __ZN6Zombie12UpdateLadderEv
00483b90 t __ZN6Zombie24UpdateZombieDolphinRiderEv.part.0
00484230 T __ZN6Zombie24UpdateZombieDolphinRiderEv
00484260 T __ZN6Zombie19UpdateZombieDashAOEEv
00484590 T __ZN6Zombie12CanBeChilledEv
00484610 T __ZN6Zombie10ApplyChillEb
00484680 T __ZN6Zombie12CheckForPoolEv
00484840 T __ZN6Zombie14TakeHelmDamageEij
00484bc0 T __ZN6Zombie11CanBeFrozenEv
00484c50 T __ZN6Zombie11ApplyButterEv
00484d70 T __ZN6Zombie16EffectedByDamageEj
00484fc0 T __ZN6Zombie7DropArmEj
00485080 T __ZN6Zombie21IsBobsledTeamWithSledEv
004850f0 T __ZN6Zombie13IsDeadOrDyingEv
00485110 T __ZN6Zombie19UpdateZombieChimneyEv
00485180 T __ZN6Zombie13WalkIntoHouseEv
00485430 T __ZN6Zombie12BossPlayIdleEv
004854c0 T __ZN6Zombie16DrawBossFireBallEPN4Sexy8GraphicsERK18ZombieDrawPosition
00485560 T __ZN6Zombie12BossRVAttackEv
00485610 T __ZN6Zombie13BossRVLandingEv
004856f0 T __ZN6Zombie15BossSpawnAttackEv
00485810 T __ZN6Zombie16BossSpawnContactEv
004858a0 T __ZN6Zombie15BossCanStompRowEi
00485910 T __ZN6Zombie15BossStompAttackEv
00485a00 T __ZN6Zombie16BossStompContactEv
00485aa0 T __ZN6Zombie16BossBungeeAttackEv
00485b60 T __ZN6Zombie18BossAreBungeesDoneEv
00485bc0 T __ZN6Zombie14BossHeadAttackEv
00485c50 T __ZN6Zombie12BossHeadSpitEv
00485df0 T __ZN6Zombie23BossDestroyIceballInRowEi
00485e80 T __ZN6Zombie19BossDestroyFireballEv
00485fb0 T __ZN6Zombie18BossHeadSpitEffectEv
00486110 T __ZN6Zombie19BossHeadSpitContactEv
004862b0 T __ZN6Zombie18UpdateBossFireballEv
004866b0 T __ZN6Zombie7BossDieEv
00486790 T __ZN6Zombie9DieNoLootEv
00486840 T __ZN6Zombie11DieWithLootEv
00486860 T __ZN6Zombie9LandFlyerEj
00486930 T __ZN6Zombie17UpdateZombieFlyerEv
00486a20 T __ZN6Zombie16TakeFlyingDamageEij
00486a80 T __ZN6Zombie10UpdateBurnEv
00486ab0 T __ZN6Zombie12ZamboniDeathEj
00486cb0 T __ZN6Zombie13CatapultDeathEj
00486df0 T __ZN6Zombie13UpdateMoweredEv
00486e60 T __ZN6Zombie15BossBungeeLeaveEv
00486f10 T __ZN6Zombie22PickBungeeZombieTargetEi
00487140 T __ZN6Zombie15BossBungeeSpawnEv
004871c0 T __ZN6Zombie24UpdateZombieJackInTheBoxEv
00487470 T __ZN6Zombie24UpdateZombieJalapenoHeadEv
00487540 T __ZN6Zombie10BobsledDieEv
004875f0 T __ZN6Zombie9BungeeDieEv
00487680 T __ZN6Zombie18UpdateZombieBungeeEv
00487880 T __ZN6Zombie7MowDownEv
00487b90 T __ZN6Zombie11UpdateDeathEv
00488220 T __ZN6Zombie20UpdateZombiePositionEv
00488330 t __ZN6Zombie13PlayDeathAnimEj.part.0
00488810 T __ZN6Zombie13PlayDeathAnimEj
00488830 T __ZN6Zombie18UpdateDamageStatesEj
00488950 T __ZN6Zombie14BossStartDeathEv
00488a10 T __ZN6Zombie15BossSetupReanimEv
00488b60 T __ZN6Zombie22PreloadZombieResourcesE10ZombieType
00488d30 T __ZN6Zombie23ApplyBossSmokeParticlesEb
00488ed0 T __ZN6Zombie10UpdateBossEv
004895e0 T __ZN6Zombie14TakeBodyDamageEij
00489c40 T __ZN6Zombie10TakeDamageEij
00489d70 T __ZN6Zombie19UpdateZombieSnorkelEv
0048a240 T __ZN6Zombie22UpdateZombieSquashHeadEv
0048a6d0 T __ZN6Zombie19UpdateZombieBobsledEv
0048a8e0 t __ZN6Zombie18UpdateZombiquariumEv.part.0
0048ace0 T __ZN6Zombie18UpdateZombiquariumEv
0048ad00 T __ZN6Zombie17CheckForBoardEdgeEv
0048ae90 T __ZN6Zombie9EatZombieEPS_
0048af00 T __ZN6Zombie17CheckIfPreyCaughtEv
0048b090 T __ZN6Zombie10HitIceTrapEv
0048b1b0 t __ZN6Zombie9ApplyBurnEv.part.0
0048b6a0 T __ZN6Zombie9ApplyBurnEv
0048b6c0 T __ZN6Zombie7BurnRowEi
0048b7c0 T __ZN6Zombie11BobsledBurnEv
0048b840 T __ZN6Zombie22UpdateZombieGargantuarEv
0048bea0 T __ZN6Zombie13UpdateActionsEv
0048c260 T __ZN6Zombie13UpdatePlayingEv
0048c550 T __ZN6Zombie6UpdateEv
0048c810 T __ZN6Zombie14EnableMustacheEb
0048c950 T __ZN6Zombie12EnableFutureEb
0048ca10 T __ZN6Zombie21LoadPlainZombieReanimEv
0048cba0 T __ZN6Zombie16ZombieInitializeEi10ZombieTypebPS_i
0048f0e0 T __ZN6Zombie11EnableDanceEb
0048f150 T __ZN6Zombie15SetupWaterTrackEPKc
0048f190 T __ZN6Zombie16DrawBungeeReanimEPN4Sexy8GraphicsERK18ZombieDrawPosition
0048f3c0 T __ZN6Zombie10DrawReanimEPN4Sexy8GraphicsERK18ZombieDrawPositioni
0048fb80 T __ZN6Zombie15DrawBossBackArmEPN4Sexy8GraphicsERK18ZombieDrawPosition
0048fc80 T __ZN6Zombie12DrawBossPartEPN4Sexy8GraphicsE8BossPart
0048fd60 T __ZN6Zombie4DrawEPN4Sexy8GraphicsE
0048ffa0 t .text
0048ffa0 T __ZN10DataWriterD1Ev
0048ffa0 T __ZN10DataWriterD2Ev
0048ffe0 T __ZN10DataReaderD1Ev
0048ffe0 T __ZN10DataReaderD2Ev
00490020 t __ZNSt8_Rb_treeIiSt4pairIKiPvESt10_Select1stIS3_ESt4lessIiESaIS3_EE24_M_get_insert_unique_posERS1_.isra.0
004900c0 t __ZNSt8_Rb_treeIPvSt4pairIKS0_iESt10_Select1stIS3_ESt4lessIS0_ESaIS3_EE24_M_get_insert_unique_posERS2_.isra.0
00490160 T __ZN10DataWriterD0Ev
004901a0 T __ZN10DataReaderD0Ev
00490200 t __ZNSt8_Rb_treeIiSt4pairIKiPvESt10_Select1stIS3_ESt4lessIiESaIS3_EE8_M_eraseEPSt13_Rb_tree_nodeIS3_E.isra.0
004903c0 t __ZNSt8_Rb_treeIPvSt4pairIKS0_iESt10_Select1stIS3_ESt4lessIS0_ESaIS3_EE8_M_eraseEPSt13_Rb_tree_nodeIS3_E.isra.0
00490580 T __ZN8DataSyncD1Ev
00490580 T __ZN8DataSyncD2Ev
00490600 T __ZN8DataSyncD0Ev
00490620 T __ZN10DataReaderC1Ev
00490620 T __ZN10DataReaderC2Ev
00490650 T __ZN10DataReader8OpenFileERKNSt7__cxx1112basic_stringIcSt11char_traitsIcESaIcEEE
00490680 T __ZN10DataReader10OpenMemoryEPKvmb
004906e0 T __ZN10DataReader5CloseEv
00490710 T __ZN10DataReader9ReadBytesEPvm
004907a0 T __ZN10DataReader6RewindEm
004907c0 T __ZN10DataReader9ReadShortEv
004907f0 T __ZN10DataReader8ReadLongEv
00490820 T __ZN10DataReader8ReadByteEv
00490850 T __ZN10DataReader8ReadBoolEv
00490880 T __ZN10DataReader9ReadFloatEv
004908b0 T __ZN10DataReader10ReadDoubleEv
004908e0 T __ZN10DataReader10ReadStringERNSt7__cxx1112basic_stringIcSt11char_traitsIcESaIcEEE
00490940 T __ZN8DataSync17ResetPointerTableEv
00490c30 T __ZN8DataSyncC1ER10DataReader
00490c30 T __ZN8DataSyncC2ER10DataReader
00490cc0 T __ZN8DataSyncC1ER10DataWriter
00490cc0 T __ZN8DataSyncC2ER10DataWriter
00490d50 T __ZN8DataSync5ResetEv
00490d70 T __ZN10DataWriterC1Ev
00490d70 T __ZN10DataWriterC2Ev
00490da0 T __ZN10DataWriter8OpenFileERKNSt7__cxx1112basic_stringIcSt11char_traitsIcESaIcEEE
00490dd0 T __ZN10DataWriter5CloseEv
00490e00 T __ZN10DataWriter14EnsureCapacityEm
00490e70 T __ZN10DataWriter10OpenMemoryEm
00490ed0 T __ZN10DataWriter10WriteBytesEPKvm
00490fa0 T __ZN8DataSync9SyncBytesEPvm
00490fc0 T __ZN8DataSync9SyncSByteERc
00491030 T __ZN8DataSync8SyncBoolERb
004910a0 T __ZN8DataSync9SyncFloatERf
00491110 T __ZN8DataSync10SyncDoubleERd
00491180 T __ZN8DataSync8SyncByteERh
004911f0 T __ZN8DataSync10SyncSShortERs
00491260 T __ZN8DataSync9SyncShortERt
004912d0 T __ZN8DataSync9SyncSLongERl
00491340 T __ZN8DataSync8SyncLongERm
004913b0 T __ZN8DataSync8SyncLongERc
00491420 T __ZN8DataSync9SyncSLongERc
00491490 T __ZN8DataSync9SyncShortERc
00491500 T __ZN8DataSync10SyncSShortERc
00491570 T __ZN8DataSync8SyncByteERc
004915e0 T __ZN8DataSync8SyncLongERs
00491650 T __ZN8DataSync8SyncLongERl
004916c0 T __ZN8DataSync8SyncLongERh
00491730 T __ZN8DataSync8SyncLongERt
004917a0 T __ZN8DataSync8SyncLongERi
00491810 T __ZN8DataSync9SyncSLongERs
00491880 T __ZN8DataSync9SyncSLongERh
004918f0 T __ZN8DataSync9SyncSLongERt
00491960 T __ZN8DataSync9SyncSLongERm
004919d0 T __ZN8DataSync9SyncSLongERi
00491a40 T __ZN8DataSync9SyncShortERs
00491ab0 T __ZN8DataSync9SyncShortERl
00491b20 T __ZN8DataSync9SyncShortERh
00491b90 T __ZN8DataSync9SyncShortERm
00491c00 T __ZN8DataSync9SyncShortERi
00491c70 T __ZN8DataSync10SyncSShortERl
00491ce0 T __ZN8DataSync10SyncSShortERh
00491d50 T __ZN8DataSync10SyncSShortERt
00491dc0 T __ZN8DataSync10SyncSShortERm
00491e30 T __ZN8DataSync10SyncSShortERi
00491ea0 T __ZN8DataSync8SyncByteERs
00491f10 T __ZN8DataSync8SyncByteERl
00491f80 T __ZN8DataSync8SyncByteERt
00491ff0 T __ZN8DataSync8SyncByteERm
00492060 T __ZN8DataSync8SyncByteERi
004920d0 T __ZN8DataSync9SyncSByteERs
00492140 T __ZN8DataSync9SyncSByteERl
004921b0 T __ZN8DataSync9SyncSByteERh
00492220 T __ZN8DataSync9SyncSByteERt
00492290 T __ZN8DataSync9SyncSByteERm
00492300 T __ZN8DataSync9SyncSByteERi
00492370 T __ZN8DataSync10SyncStringERNSt7__cxx1112basic_stringIcSt11char_traitsIcESaIcEEE
00492420 T __ZN10DataWriter9WriteLongEm
00492440 T __ZN10DataWriter10WriteShortEt
00492470 T __ZN10DataWriter9WriteByteEh
004924a0 T __ZN10DataWriter9WriteBoolEb
004924d0 T __ZN10DataWriter10WriteFloatEf
004924f0 T __ZN10DataWriter11WriteDoubleEd
00492520 T __ZN10DataWriter11WriteStringERKNSt7__cxx1112basic_stringIcSt11char_traitsIcESaIcEEE
00492580 t .text
00492580 T __ZN10PopDRMCommC1Ev
00492580 T __ZN10PopDRMCommC2Ev
00492590 T __ZN10PopDRMCommD1Ev
00492590 T __ZN10PopDRMCommD2Ev
004925a0 T __ZN10PopDRMComm5StartEv
004925b0 T __ZN10PopDRMComm13EnableLockingEv
004925c0 T __ZN10PopDRMComm9QueryDataEv
004925d0 T __ZN10PopDRMComm7BuyGameEv
004925e0 T __ZN10PopDRMComm5DoIPCEv
00492600 t .text
00492600 t __ZL9GetPakPtrv
004926c0 t __ZL7p_fopenPKcS0_.constprop.0
00492740 t __ZL7p_fseekP5PFILEli.constprop.0.isra.0
004927a0 t __ZL7p_freadPviiP5PFILE.constprop.0.isra.0
00492810 t __ZL7p_ftellP5PFILE
00492850 t __ZL8p_fcloseP5PFILE.isra.0
004928a0 t __ZNSt7__cxx1112basic_stringIcSt11char_traitsIcESaIcEE12_M_constructIPKcEEvT_S8_St20forward_iterator_tag.isra.0
00492960 T __ZN5MusicC1Ev
00492960 T __ZN5MusicC2Ev
004929e0 T __ZN5Music12TodLoadMusicE9MusicFileRKNSt7__cxx1112basic_stringIcSt11char_traitsIcESaIcEEE
00492f40 T __ZN5Music12StopAllMusicEv
00492fe0 T __ZN5Music18GetBassMusicHandleE9MusicFile
00493030 T __ZN5Music21SetupMusicFileForTuneE9MusicFile9MusicTune
00493180 T __ZN5Music8LoadSongE9MusicFileRKNSt7__cxx1112basic_stringIcSt11char_traitsIcESaIcEEE
00493220 T __ZN5Music9MusicInitEv
00493300 T __ZN5Music20MusicLoadCreditsSongEv
004933d0 T __ZN5Music14PlayFromOffsetE9MusicFileid
00493560 t __ZN5Music9PlayMusicE9MusicTuneii.part.0
00493a80 T __ZN5Music20MusicTitleScreenInitEv
00493b30 T __ZN5Music9PlayMusicE9MusicTuneii
00493b50 T __ZN5Music13GetMusicOrderE9MusicFile
00493b60 T __ZN5Music18MusicResyncChannelE9MusicFileS0_
00493c20 T __ZN5Music11MusicResyncEv
00493c90 T __ZN5Music10StartBurstEv
00493cb0 T __ZN5Music7FadeOutEi
00493cd0 T __ZN5Music16UpdateMusicBurstEv
00494320 T __ZN5Music11MusicUpdateEv
00494410 T __ZN5Music22MakeSureMusicIsPlayingE9MusicTune
00494460 T __ZN5Music14StartGameMusicEv
004946e0 T __ZN5Music14GameMusicPauseEb
00494870 T __ZN5Music18GetNumLoadingTasksEv
00494880 t .text
00494880 t __ZN10PlayerInfo11SyncDetailsER8DataSync.part.0
00494ad0 T __ZN10PlayerInfoC1Ev
00494ad0 T __ZN10PlayerInfoC2Ev
00494c50 T __ZN10PlayerInfo11SyncSummaryER8DataSync
00494c90 T __ZN10PlayerInfo15DeleteUserFilesEv
00494fc0 T __ZN10PlayerInfo5ResetEv
00495130 T __ZN10PlayerInfo11SyncDetailsER8DataSync
00495190 T __ZN10PlayerInfo8AddCoinsEi
004951c0 T __ZN10PlayerInfo20ResetChallengeRecordE8GameMode
004951d0 T __ZN11PottedPlant21InitializePottedPlantE8SeedType
00495280 T __ZN10PlayerInfo11LoadDetailsEv
004957b0 T __ZN10PlayerInfo11SaveDetailsEv
00495c80 t .text
00495c80 T __ZN10PoolEffect20PoolEffectInitializeEv
00495d80 T __ZN10PoolEffect17PoolEffectDisposeEv
00495db0 T __ZN10PoolEffect24BilinearLookupFixedPointEjj
00495e80 T __ZN10PoolEffect17UpdateWaterEffectEPN4Sexy8GraphicsE
00495fb0 T __ZN10PoolEffect14PoolEffectDrawEPN4Sexy8GraphicsEb
00496990 T __ZN10PoolEffect16PoolEffectUpdateEv
004969a0 t .text
004969a0 t __ZNSt8_Rb_treeINSt7__cxx1112basic_stringIcSt11char_traitsIcESaIcEEESt4pairIKS5_10PlayerInfoESt10_Select1stIS9_EN4Sexy16StringLessNoCaseESaIS9_EE8_M_eraseEPSt13_Rb_tree_nodeIS9_E.isra.0
00496a20 T __ZN10ProfileMgr13GetAnyProfileEv
00496a60 T __ZN10ProfileMgr5ClearEv
00496b00 T __ZN10ProfileMgr13DeleteProfileESt17_Rb_tree_iteratorISt4pairIKNSt7__cxx1112basic_stringIcSt11char_traitsIcESaIcEEE10PlayerInfoEE
00496b80 T __ZN10ProfileMgr19DeleteOldestProfileEv
00496be0 T __ZN10ProfileMgr13DeleteProfileERKNSt7__cxx1112basic_stringIcSt11char_traitsIcESaIcEEE
00496c20 T __ZN10ProfileMgr10GetProfileERKNSt7__cxx1112basic_stringIcSt11char_traitsIcESaIcEEE
00496c70 T __ZN10ProfileMgr13RenameProfileERKNSt7__cxx1112basic_stringIcSt11char_traitsIcESaIcEEES7_
00496d80 T __ZN10ProfileMgr10AddProfileERKNSt7__cxx1112basic_stringIcSt11char_traitsIcESaIcEEE
00497220 T __ZN10ProfileMgr9SyncStateER8DataSync
00497700 T __ZN10ProfileMgr4LoadEv
00497960 T __ZN10ProfileMgr4SaveEv
00497ca0 t .text
00497ca0 T __ZN15ReanimatorCache29UpdateReanimationForVariationEP11Reanimation13DrawVariation
00497f50 T __ZN15ReanimatorCache19DrawReanimatorFrameEPN4Sexy8GraphicsEff15ReanimationTypePKc13DrawVariation
004980c0 T __ZN15ReanimatorCache20MakeBlankMemoryImageEii
00498150 T __ZN15ReanimatorCache17GetPlantImageSizeE8SeedTypeRiS1_S1_S1_
004981d0 T __ZN15ReanimatorCache25ReanimatorCacheInitializeEv
00498260 T __ZN15ReanimatorCache22ReanimatorCacheDisposeEv
00498340 T __ZN15ReanimatorCache20MakeCachedMowerFrameE13LawnMowerType
004985b0 T __ZN15ReanimatorCache15DrawCachedMowerEPN4Sexy8GraphicsEff13LawnMowerType
00498630 T __ZN15ReanimatorCache20MakeCachedPlantFrameE8SeedType13DrawVariation
00498ab0 T __ZN15ReanimatorCache15DrawCachedPlantEPN4Sexy8GraphicsEff8SeedType13DrawVariation
00498d40 T __ZN15ReanimatorCache21MakeCachedZombieFrameE10ZombieType
004990f0 T __ZN15ReanimatorCache16DrawCachedZombieEPN4Sexy8GraphicsEff10ZombieType
00499180 t .text
00499180 T __ZN15SaveGameContext9SyncBytesEPvi
00499260 T __ZN15SaveGameContext7SyncIntERi
004992c0 T __ZN15SaveGameContext18SyncReanimationDefERP20ReanimatorDefinition
004993a0 T __ZN15SaveGameContext15SyncParticleDefERP21TodParticleDefinition
00499460 T __ZN15SaveGameContext12SyncTrailDefERP15TrailDefinition
004994f0 T __ZN15SaveGameContext9SyncImageERPN4Sexy5ImageE
00499580 T __Z14SyncDataIDListP7TodListIjER15SaveGameContextP12TodAllocator
004996e0 T __Z19SyncParticleEmitterP17TodParticleSystemP18TodParticleEmitterR15SaveGameContext
004997e0 T __Z18SyncParticleSystemP5BoardP17TodParticleSystemR15SaveGameContext
00499880 T __Z15SyncReanimationP5BoardP11ReanimationR15SaveGameContext
00499960 T __Z9SyncTrailP5BoardP5TrailR15SaveGameContext
00499a20 T __Z9SyncBoardR15SaveGameContextP5Board
0049a0e0 T __Z17FixBoardAfterLoadP5Board
0049a310 T __Z12LawnLoadGameP5BoardRKNSt7__cxx1112basic_stringIcSt11char_traitsIcESaIcEEE
0049a3f0 T __Z12LawnSaveGameP5BoardRKNSt7__cxx1112basic_stringIcSt11char_traitsIcESaIcEEE
0049a480 t .text
0049a480 t __ZNSt7__cxx1112basic_stringIcSt11char_traitsIcESaIcEE12_M_constructIPKcEEvT_S8_St20forward_iterator_tag.isra.0
0049a540 T __ZN11TypingCheck10AddKeyCodeEN4Sexy7KeyCodeE
0049a570 T __ZN11TypingCheck7AddCharEc
0049a620 T __ZN11TypingCheck9SetPhraseERKNSt7__cxx1112basic_stringIcSt11char_traitsIcESaIcEEE
0049a660 T __ZN11TypingCheckC1ERKNSt7__cxx1112basic_stringIcSt11char_traitsIcESaIcEEE
0049a660 T __ZN11TypingCheckC2ERKNSt7__cxx1112basic_stringIcSt11char_traitsIcESaIcEEE
0049a6d0 T __ZN11TypingCheck5CheckEv
0049a730 T __ZN11TypingCheck5CheckEN4Sexy7KeyCodeE
0049a8c0 t .text
0049a8c0 T __ZN10LawnDialog14SetButtonDelayEi
0049a920 T __ZN10LawnDialog11ButtonPressEi
0049a940 T __ZN10LawnDialog15CheckboxCheckedEib
0049a970 T __ZN17ReanimationWidget4DrawEPN4Sexy8GraphicsE
0049a990 T __ZN17ReanimationWidget6UpdateEv
0049a9d0 T __ZN14GameOverDialog9MouseDragEii
0049aa30 T __ZN14GameOverDialog13ButtonDepressEi
0049ab30 T __ZThn128_N14GameOverDialog13ButtonDepressEi
0049ab40 T __ZN10LawnDialog4DrawEPN4Sexy8GraphicsE
0049b0c0 T __ZThn128_N10LawnDialog11ButtonPressEi
0049b0e0 T __ZN17ReanimationWidgetD1Ev
0049b0e0 T __ZN17ReanimationWidgetD2Ev
0049b160 T __ZN17ReanimationWidgetD0Ev
0049b1e0 T __ZN10LawnDialogD1Ev
0049b1e0 T __ZN10LawnDialogD2Ev
0049b2c0 T __ZN10LawnDialogD0Ev
0049b2e0 T __ZN14GameOverDialogD1Ev
0049b2e0 T __ZN14GameOverDialogD2Ev
0049b310 T __ZN14GameOverDialogD0Ev
0049b360 T __ZN10LawnDialog7GetLeftEv
0049b370 T __ZN10LawnDialog8GetWidthEv
0049b390 T __ZN10LawnDialog6GetTopEv
0049b3a0 T __ZN17ReanimationWidgetC1Ev
0049b3a0 T __ZN17ReanimationWidgetC2Ev
0049b3f0 T __ZN17ReanimationWidget7DisposeEv
0049b450 T __ZN17ReanimationWidget14AddReanimationEff15ReanimationType
0049b530 T __ZN10LawnDialog8CalcSizeEii
0049b780 T __ZN10LawnDialogC1EP7LawnAppibRKNSt7__cxx1112basic_stringIcSt11char_traitsIcESaIcEEES9_S9_i
0049b780 T __ZN10LawnDialogC2EP7LawnAppibRKNSt7__cxx1112basic_stringIcSt11char_traitsIcESaIcEEES9_S9_i
0049bda0 T __ZN14GameOverDialogC1ERKNSt7__cxx1112basic_stringIcSt11char_traitsIcESaIcEEEb
0049bda0 T __ZN14GameOverDialogC2ERKNSt7__cxx1112basic_stringIcSt11char_traitsIcESaIcEEEb
0049c140 T __ZN10LawnDialog14AddedToManagerEPN4Sexy13WidgetManagerE
0049c1b0 T __ZN14GameOverDialog14AddedToManagerEPN4Sexy13WidgetManagerE
0049c1f0 T __ZN10LawnDialog18RemovedFromManagerEPN4Sexy13WidgetManagerE
0049c2b0 T __ZN14GameOverDialog18RemovedFromManagerEPN4Sexy13WidgetManagerE
0049c2f0 T __ZN10LawnDialog6UpdateEv
0049c350 T __ZN10LawnDialog13ButtonDepressEi
0049c370 T __ZN10LawnDialog7KeyDownEN4Sexy7KeyCodeE
0049c430 T __ZThn128_N10LawnDialog13ButtonDepressEi
0049c450 T __ZN10LawnDialog6ResizeEiiii
0049c6d0 t .text
0049c6d0 T __ZN13AlmanacDialog21ClearPlantsAndZombiesEv
0049c7a0 T __ZN13AlmanacDialogD1Ev
0049c7a0 T __ZN13AlmanacDialogD2Ev
0049c870 T __ZN13AlmanacDialogD0Ev
0049c890 T __ZN13AlmanacDialog10SetupPlantEv
0049c980 T __ZN13AlmanacDialog11SetupZombieEv
0049ca10 T __ZN13AlmanacDialog7SetPageE11AlmanacPage
0049cbb0 T __ZN13AlmanacDialog7MouseUpEiii
0049cc60 T __ZN13AlmanacDialogC1EP7LawnApp
0049cc60 T __ZN13AlmanacDialogC2EP7LawnApp
0049d360 T __ZN13AlmanacDialog9ShowPlantE8SeedType
0049d380 T __ZN13AlmanacDialog10ShowZombieE10ZombieType
0049d3a0 T __ZN13AlmanacDialog13GetZombieTypeEi
0049d3b0 T __ZN13AlmanacDialog15GetSeedPositionE8SeedTypeRiS1_
0049d410 T __ZN13AlmanacDialog11SeedHitTestEii
0049d4f0 T __ZN13AlmanacDialog19ZombieHasSilhouetteE10ZombieType
0049d560 T __ZN13AlmanacDialog13ZombieIsShownE10ZombieType
0049d630 T __ZN13AlmanacDialog20ZombieHasDescriptionE10ZombieType
0049d6d0 T __ZN13AlmanacDialog17GetZombiePositionE10ZombieTypeRiS1_
0049d730 T __ZN13AlmanacDialog13ZombieHitTestEii
0049d830 T __ZN13AlmanacDialog6UpdateEv
0049d980 T __ZN13AlmanacDialog9MouseDownEiii
0049dac0 T __Z20AlmanacInitForPlayerv
0049dae0 T __Z27AlmanacPlayerDefeatedZombie10ZombieType
0049daf0 T __ZN13AlmanacDialog18RemovedFromManagerEPN4Sexy13WidgetManagerE
0049db20 T __ZN13AlmanacDialog9DrawIndexEPN4Sexy8GraphicsE
0049dcf0 T __ZN13AlmanacDialog10DrawPlantsEPN4Sexy8GraphicsE
0049e8c0 T __ZN13AlmanacDialog11DrawZombiesEPN4Sexy8GraphicsE
0049f6b0 T __ZN13AlmanacDialog4DrawEPN4Sexy8GraphicsE
0049f810 t .text
0049f810 T __ZN11AwardScreenD1Ev
0049f810 T __ZN11AwardScreenD2Ev
0049f880 T __ZN11AwardScreenD0Ev
0049f8a0 t __ZN11AwardScreen18StartButtonPressedEv.part.0
0049fb50 T __ZN11AwardScreen9MouseDownEiii
0049fbc0 T __ZN11AwardScreen7KeyCharEc
0049fc20 T __ZN11AwardScreen7MouseUpEiii
0049fcb0 T __ZN11AwardScreen11IsPaperNoteEv
0049fd10 T __ZN11AwardScreenC1EP7LawnApp9AwardType
0049fd10 T __ZN11AwardScreenC2EP7LawnApp9AwardType
004a1220 T __ZN11AwardScreen10DrawBottomEPN4Sexy8GraphicsERKNSt7__cxx1112basic_stringIcSt11char_traitsIcESaIcEEESA_SA_
004a1360 T __ZN11AwardScreen13DrawAwardSeedEPN4Sexy8GraphicsE
004a1690 T __ZN11AwardScreen4DrawEPN4Sexy8GraphicsE
004a2c40 T __ZN11AwardScreen18StartButtonPressedEv
004a2c80 T __ZN11AwardScreen6UpdateEv
004a2d20 t .text
004a2d20 T __ZN15ChallengeScreen11ButtonPressEi
004a2d40 T __ZN15ChallengeScreen14AddedToManagerEPN4Sexy13WidgetManagerE
004a2dc0 T __ZN15ChallengeScreen18RemovedFromManagerEPN4Sexy13WidgetManagerE
004a2e40 t __ZNSt7__cxx1112basic_stringIcSt11char_traitsIcESaIcEE12_M_constructIPKcEEvT_S8_St20forward_iterator_tag.isra.0
004a2f00 T __ZThn128_N15ChallengeScreen11ButtonPressEi
004a2f20 T __ZN15ChallengeScreenD1Ev
004a2f20 T __ZN15ChallengeScreenD2Ev
004a3000 T __ZN15ChallengeScreenD0Ev
004a3020 T __Z22GetChallengeDefinitioni
004a3030 T __ZN15ChallengeScreen18IsScaryPotterLevelE8GameMode
004a3040 T __ZN15ChallengeScreen14IsIZombieLevelE8GameMode
004a3050 T __ZN15ChallengeScreen18MoreTrophiesNeededEi
004a3410 T __ZN15ChallengeScreen15ShowPageButtonsEv
004a3440 T __ZN15ChallengeScreen13UpdateButtonsEv
004a3540 T __ZN15ChallengeScreen13ButtonDepressEi
004a35f0 T __ZThn128_N15ChallengeScreen13ButtonDepressEi
004a36a0 T __ZN15ChallengeScreen21AccomplishmentsNeededEi
004a3730 T __ZN15ChallengeScreen23SetUnlockChallengeIndexE13ChallengePageb
004a3800 T __ZN15ChallengeScreenC1EP7LawnApp13ChallengePage
004a3800 T __ZN15ChallengeScreenC2EP7LawnApp13ChallengePage
004a4160 T __ZN15ChallengeScreen10DrawButtonEPN4Sexy8GraphicsEi
004a4cf0 T __ZN15ChallengeScreen4DrawEPN4Sexy8GraphicsE
004a4f50 T __ZN15ChallengeScreen13UpdateToolTipEv
004a52d0 T __ZN15ChallengeScreen6UpdateEv
004a5400 t .text
004a5400 T __ZN11CheatDialog14EditWidgetTextEiRKNSt7__cxx1112basic_stringIcSt11char_traitsIcESaIcEEE
004a5430 T __ZN11CheatDialog9AllowCharEic
004a5470 T __ZN11CheatDialogD1Ev
004a5470 T __ZN11CheatDialogD2Ev
004a54b0 T __ZThn344_N11CheatDialog14EditWidgetTextEiRKNSt7__cxx1112basic_stringIcSt11char_traitsIcESaIcEEE
004a54e0 T __ZN11CheatDialogD0Ev
004a5530 T __ZThn344_N11CheatDialog9AllowCharEic
004a5570 T __ZN11CheatDialogC1EP7LawnApp
004a5570 T __ZN11CheatDialogC2EP7LawnApp
004a5bf0 T __ZN11CheatDialog10ApplyCheatEv
004a5f80 T __ZN11CheatDialog18GetPreferredHeightEi
004a5f90 T __ZN11CheatDialog6ResizeEiiii
004a6010 T __ZN11CheatDialog14AddedToManagerEPN4Sexy13WidgetManagerE
004a6060 T __ZN11CheatDialog18RemovedFromManagerEPN4Sexy13WidgetManagerE
004a6090 T __ZN11CheatDialog4DrawEPN4Sexy8GraphicsE
004a60d0 t .text
004a60d0 T __ZN14ContinueDialogD1Ev
004a60d0 T __ZN14ContinueDialogD2Ev
004a6110 T __ZN14ContinueDialogD0Ev
004a6130 T __ZN14ContinueDialogC1EP7LawnApp
004a6130 T __ZN14ContinueDialogC2EP7LawnApp
004a6440 T __ZN14ContinueDialog20RestartLoopingSoundsEv
004a64d0 T __ZN14ContinueDialog13ButtonDepressEi
004a6a80 T __ZThn128_N14ContinueDialog13ButtonDepressEi
004a6a90 T __ZN14ContinueDialog18GetPreferredHeightEi
004a6ab0 T __ZN14ContinueDialog6ResizeEiiii
004a6b70 T __ZN14ContinueDialog14AddedToManagerEPN4Sexy13WidgetManagerE
004a6bb0 T __ZN14ContinueDialog18RemovedFromManagerEPN4Sexy13WidgetManagerE
004a6c00 t .text
004a6c00 T __ZN12CreditScreen7MouseUpEiii
004a6c10 T __ZN12CreditScreenD1Ev
004a6c10 T __ZN12CreditScreenD2Ev
004a6c80 T __ZN12CreditScreenD0Ev
004a6ca0 T __ZN12CreditScreen14AddedToManagerEPN4Sexy13WidgetManagerE
004a6d00 T __ZN12CreditScreen18RemovedFromManagerEPN4Sexy13WidgetManagerE
004a6d60 t __ZN12CreditScreen11DrawOverlayEPN4Sexy8GraphicsE.part.0
004a6e10 T __ZN12CreditScreen11DrawOverlayEPN4Sexy8GraphicsE
004a6e30 T __ZN12CreditScreen13ButtonDepressEi
004a6ea0 t __Z9DrawDiscoPN4Sexy8GraphicsEfff.part.0
004a71d0 T __ZN12CreditScreen11ButtonPressEi
004a7220 T __ZN14CreditsOverlay4DrawEPN4Sexy8GraphicsE
004a7260 t __ZN12CreditScreen14TurnOffTonguesEP11Reanimationi.part.0
004a7310 T __ZThn128_N12CreditScreen13ButtonDepressEi
004a7370 T __ZThn128_N12CreditScreen11ButtonPressEi
004a73c0 t __ZN12CreditScreen12PauseCreditsEv.part.0
004a7540 T __ZN12CreditScreen7KeyDownEN4Sexy7KeyCodeE
004a7580 T __ZN14CreditsOverlayC1EP12CreditScreen
004a7580 T __ZN14CreditsOverlayC2EP12CreditScreen
004a75b0 T __ZN12CreditScreenC1EP7LawnApp
004a75b0 T __ZN12CreditScreenC2EP7LawnApp
004a7a70 T __ZN12CreditScreen14PreLoadCreditsEv
004a83f0 T __ZN12CreditScreen9GetTimingEPP13CreditsTimingS2_Pf
004a8550 T __ZN12CreditScreen10PlayReanimEi
004a87b0 T __Z9DrawDiscoPN4Sexy8GraphicsEfff
004a8810 T __ZN12CreditScreen13DrawFogEffectEPN4Sexy8GraphicsEf
004a8b60 T __ZN12CreditScreen16DrawFinalCreditsEPN4Sexy8GraphicsE
004a9070 T __Z19DrawReanimToPreloadPN4Sexy8GraphicsE15ReanimationType
004a90e0 T __ZN12CreditScreen13FindSubReanimEP11Reanimation15ReanimationType
004a9150 T __ZN12CreditScreen11UpdateBlinkEv
004a9260 T __ZN12CreditScreen11UpdateMovieEv
004aa4d0 T __ZN12CreditScreen14TurnOffTonguesEP11Reanimationi
004aa4f0 T __ZN29TodsHackyUnprotectedPerfTimer12SetStartTimeEi
004aa560 T __ZN12CreditScreen11JumpToFrameE12CreditsPhasef
004aaab0 T __ZN12CreditScreen7KeyCharEc
004aacc0 T __ZN12CreditScreen6UpdateEv
004aaf50 T __ZN12CreditScreen12PauseCreditsEv
004aaf70 T __ZN12CreditScreen4DrawEPN4Sexy8GraphicsE
004ac160 t .text
004ac160 T __ZN13NewLawnButtonD1Ev
004ac160 T __ZN13NewLawnButtonD2Ev
004ac170 T __ZN13NewLawnButtonD0Ev
004ac1a0 T __ZN13NewLawnButton14IsPointVisibleEii
004ac210 T __ZN13NewLawnButton4DrawEPN4Sexy8GraphicsE
004ac7c0 T __Z15DrawStoneButtonPN4Sexy8GraphicsEiiiibbRKNSt7__cxx1112basic_stringIcSt11char_traitsIcESaIcEEE
004ac970 T __ZN15LawnStoneButton4DrawEPN4Sexy8GraphicsE
004ac9f0 T __ZN10GameButtonC1Ei
004ac9f0 T __ZN10GameButtonC2Ei
004acce0 T __ZN10GameButtonD1Ev
004acce0 T __ZN10GameButtonD2Ev
004acd20 T __ZN10GameButton15HaveButtonImageEPN4Sexy5ImageERNS0_5TRectIiEE
004acd40 T __ZN10GameButton15DrawButtonImageEPN4Sexy8GraphicsEPNS0_5ImageERNS0_5TRectIiEEii
004acdc0 T __ZN10GameButton11SetDisabledEb
004acdd0 T __ZN10GameButton7SetFontEPN4Sexy4FontE
004ace00 T __ZN10GameButton12IsButtonDownEv
004ace30 T __ZN10GameButton4DrawEPN4Sexy8GraphicsE
004ad770 T __ZN10GameButton6ResizeEiiii
004ad790 T __ZN10GameButton11IsMouseOverEv
004ad7b0 T __ZN10GameButton6UpdateEv
004ad920 T __ZN10GameButton8SetLabelERKNSt7__cxx1112basic_stringIcSt11char_traitsIcESaIcEEE
004ada30 T __ZN13NewLawnButton8SetLabelERKNSt7__cxx1112basic_stringIcSt11char_traitsIcESaIcEEE
004adb40 T __ZN15LawnStoneButton8SetLabelERKNSt7__cxx1112basic_stringIcSt11char_traitsIcESaIcEEE
004adc50 T __Z10MakeButtoniPN4Sexy14ButtonListenerERKNSt7__cxx1112basic_stringIcSt11char_traitsIcESaIcEEE
004addb0 T __ZN13NewLawnButtonC1EPN4Sexy5ImageEiPNS0_14ButtonListenerE
004addb0 T __ZN13NewLawnButtonC2EPN4Sexy5ImageEiPNS0_14ButtonListenerE
004ade60 T __Z13MakeNewButtoniPN4Sexy14ButtonListenerERKNSt7__cxx1112basic_stringIcSt11char_traitsIcESaIcEEEPNS_4FontEPNS_5ImageESD_SD_
004ae0f0 t .text
004ae0f0 T __ZN12GameSelector21OrderInManagerChangedEv
004ae220 T __ZN12GameSelector14AddedToManagerEPN4Sexy13WidgetManagerE
004ae320 T __ZN12GameSelector18RemovedFromManagerEPN4Sexy13WidgetManagerE
004ae420 T __ZN12GameSelector9MouseDownEiii
004ae4e0 T __ZN12GameSelector7KeyDownEN4Sexy7KeyCodeE
004ae7b0 T __ZN12GameSelector16ButtonMouseEnterEi
004ae800 T __ZN12GameSelector11ButtonPressEii
004ae860 T __ZThn128_N12GameSelector16ButtonMouseEnterEi
004ae8c0 T __ZThn128_N12GameSelector11ButtonPressEii
004ae920 T __ZN12GameSelectorD1Ev
004ae920 T __ZN12GameSelectorD2Ev
004aea70 T __ZN12GameSelectorD0Ev
004aea90 T __ZN12GameSelector11DrawOverlayEPN4Sexy8GraphicsE
004af130 T __ZN19GameSelectorOverlay4DrawEPN4Sexy8GraphicsE
004af160 T __ZN12GameSelector4DrawEPN4Sexy8GraphicsE
004af7a0 T __ZN19GameSelectorOverlayC1EP12GameSelector
004af7a0 T __ZN19GameSelectorOverlayC2EP12GameSelector
004af7d0 T __ZN12GameSelector11SyncButtonsEv
004afca0 T __ZN12GameSelector16AddTrophySparkleEv
004afcf0 T __ZN12GameSelector11SyncProfileEb
004affc0 T __ZN12GameSelectorC1EP7LawnApp
004affc0 T __ZN12GameSelectorC2EP7LawnApp
004b0dc0 T __ZN12GameSelector7KeyCharEc
004b0fc0 T __ZN12GameSelector13UpdateTooltipEv
004b11b0 T __ZN12GameSelector11TrackButtonEPN4Sexy12DialogButtonEPKcff
004b1250 T __ZN12GameSelector16ClickedAdventureEv
004b1540 T __ZN12GameSelector13ButtonDepressEi
004b1880 T __ZThn128_N12GameSelector13ButtonDepressEi
004b1890 T __ZN12GameSelector34ShouldDoZenTuturialBeforeAdventureEv
004b18e0 T __ZN12GameSelector18AddPreviewProfilesEv
004b1dd0 T __ZN12GameSelector6UpdateEv
004b27c0 t .text
004b27c0 T __ZN14ImitaterDialogD1Ev
004b27c0 T __ZN14ImitaterDialogD2Ev
004b2850 T __ZN14ImitaterDialogD0Ev
004b2900 T __ZN14ImitaterDialogC1Ev
004b2900 T __ZN14ImitaterDialogC2Ev
004b2b10 T __ZN14ImitaterDialog11SeedHitTestEii
004b2bb0 T __ZN14ImitaterDialog12UpdateCursorEv
004b2c40 T __ZN14ImitaterDialog15GetSeedPositionEiRiS0_
004b2c90 T __ZN14ImitaterDialog11ShowToolTipEv
004b30f0 T __ZN14ImitaterDialog13RemoveToolTipEv
004b3110 T __ZN14ImitaterDialog6UpdateEv
004b3130 T __ZN14ImitaterDialog4DrawEPN4Sexy8GraphicsE
004b3270 T __ZN14ImitaterDialog9MouseDownEiii
004b3360 t .text
004b3360 T __ZN16NewOptionsDialog18GetPreferredHeightEi
004b3370 T __ZN16NewOptionsDialog11ButtonPressEi
004b3390 T __ZN16NewOptionsDialogD1Ev
004b3390 T __ZN16NewOptionsDialogD2Ev
004b3440 T __ZN16NewOptionsDialogD0Ev
004b3460 T __ZN16NewOptionsDialog9SliderValEid
004b3520 T __ZThn316_N16NewOptionsDialog9SliderValEid
004b3530 T __ZThn128_N16NewOptionsDialog11ButtonPressEi
004b3550 T __ZN16NewOptionsDialog4DrawEPN4Sexy8GraphicsE
004b3800 T __ZN16NewOptionsDialog15CheckboxCheckedEib
004b3d00 T __ZThn320_N16NewOptionsDialog15CheckboxCheckedEib
004b3d10 T __ZN16NewOptionsDialogC1EP7LawnAppb
004b3d10 T __ZN16NewOptionsDialogC2EP7LawnAppb
004b44e0 T __ZN16NewOptionsDialog14AddedToManagerEPN4Sexy13WidgetManagerE
004b45a0 T __ZN16NewOptionsDialog18RemovedFromManagerEPN4Sexy13WidgetManagerE
004b4660 T __ZN16NewOptionsDialog6ResizeEiiii
004b4890 T __ZN16NewOptionsDialog7KeyDownEN4Sexy7KeyCodeE
004b4910 T __ZN16NewOptionsDialog13ButtonDepressEi
004b5010 T __ZThn128_N16NewOptionsDialog13ButtonDepressEi
004b5020 t .text
004b5020 T __ZN13NewUserDialog14EditWidgetTextEiRKNSt7__cxx1112basic_stringIcSt11char_traitsIcESaIcEEE
004b5050 T __ZN13NewUserDialogD1Ev
004b5050 T __ZN13NewUserDialogD2Ev
004b5090 T __ZN13NewUserDialog9AllowCharEic
004b50c0 t __ZNSt7__cxx1112basic_stringIcSt11char_traitsIcESaIcEE12_M_constructIPKcEEvT_S8_St20forward_iterator_tag.isra.0
004b5180 T __ZThn344_N13NewUserDialog9AllowCharEic
004b51b0 T __ZThn344_N13NewUserDialog14EditWidgetTextEiRKNSt7__cxx1112basic_stringIcSt11char_traitsIcESaIcEEE
004b51e0 T __ZN13NewUserDialogD0Ev
004b5230 T __ZN13NewUserDialogC1EP7LawnAppb
004b5230 T __ZN13NewUserDialogC2EP7LawnAppb
004b5400 T __ZN13NewUserDialog7GetNameB5cxx11Ev
004b54f0 T __ZN13NewUserDialog7SetNameERKNSt7__cxx1112basic_stringIcSt11char_traitsIcESaIcEEE
004b5540 T __ZN13NewUserDialog14AddedToManagerEPN4Sexy13WidgetManagerE
004b5590 T __ZN13NewUserDialog18RemovedFromManagerEPN4Sexy13WidgetManagerE
004b55c0 T __ZN13NewUserDialog18GetPreferredHeightEi
004b55e0 T __ZN13NewUserDialog6ResizeEiiii
004b5660 T __ZN13NewUserDialog4DrawEPN4Sexy8GraphicsE
004b56c0 t .text
004b56c0 T __ZN17SeedChooserScreen7KeyDownEN4Sexy7KeyCodeE
004b56d0 T __ZN17SeedChooserScreen10MouseWheelEi
004b5700 t __ZNSt7__cxx1112basic_stringIcSt11char_traitsIcESaIcEEC2EPKcRKS3_.isra.0
004b57c0 T __ZN17SeedChooserScreenD1Ev
004b57c0 T __ZN17SeedChooserScreenD2Ev
004b5910 T __ZN17SeedChooserScreenD0Ev
004b5930 T __ZN17SeedChooserScreen4DrawEPN4Sexy8GraphicsE
004b5e40 T __ZN17SeedChooserScreen41PickFromWeightedArrayUsingSpecialRandSeedEP16TodWeightedArrayiRN4Sexy6MTRandE
004b5eb0 T __ZN17SeedChooserScreen18CrazyDavePickSeedsEv
004b5f40 T __ZN17SeedChooserScreen8Has7RowsEv
004b5fb0 T __ZN17SeedChooserScreen24GetSeedPositionInChooserEiRiS0_
004b6020 T __ZN17SeedChooserScreen21GetSeedPositionInBankEiRiS0_
004b6080 T __ZN17SeedChooserScreen24SeedNotRecommendedToPickE8SeedType
004b60b0 T __ZN17SeedChooserScreen20SeedNotAllowedToPickE8SeedType
004b6100 T __ZN17SeedChooserScreen25SeedNotAllowedDuringTrialE8SeedType
004b6130 T __ZN17SeedChooserScreen14UpdateViewLawnEv
004b6440 T __ZN17SeedChooserScreen14LandFlyingSeedER10ChosenSeed
004b64d0 T __ZN17SeedChooserScreen26DisplayRepickWarningDialogEPKc
004b6520 T __ZN17SeedChooserScreen16FlyersAreCommingEv
004b6580 T __ZN17SeedChooserScreen29FlyProtectionCurrentlyPlantedEv
004b65d0 T __ZN17SeedChooserScreen16CheckSeedUpgradeE8SeedTypeS0_
004b65f0 T __ZN17SeedChooserScreen11SeedHitTestEii
004b6730 T __ZN17SeedChooserScreen12UpdateCursorEv
004b68b0 T __ZN17SeedChooserScreen14FindSeedInBankEi
004b6930 T __ZN17SeedChooserScreen17EnableStartButtonEb
004b69e0 T __ZN17SeedChooserScreenC1Ev
004b69e0 T __ZN17SeedChooserScreenC2Ev
004b71d0 T __ZN17SeedChooserScreen17ClickedSeedInBankER10ChosenSeed
004b73f0 T __ZN17SeedChooserScreen20ClickedSeedInChooserER10ChosenSeed
004b75a0 T __ZN17SeedChooserScreen11ShowToolTipEv
004b7b70 T __ZN17SeedChooserScreen13RemoveToolTipEv
004b7b90 T __ZN17SeedChooserScreen14CancelLawnViewEv
004b7bc0 T __ZN17SeedChooserScreen20UpdateImitaterButtonEv
004b7bd0 T __ZN17SeedChooserScreen15PickedPlantTypeE8SeedType
004b7be0 T __ZN17SeedChooserScreen16CloseSeedChooserEv
004b7d20 T __ZN17SeedChooserScreen15PickRandomSeedsEv
004b7e50 T __ZN17SeedChooserScreen7KeyCharEc
004b7ee0 T __ZN17SeedChooserScreen13OnStartButtonEv
004b8010 T __ZN17SeedChooserScreen13ButtonDepressEi
004b82a0 T __ZN17SeedChooserScreen7MouseUpEiii
004b8400 T __ZN17SeedChooserScreen19UpdateAfterPurchaseEv
004b84d0 T __ZN17SeedChooserScreen6UpdateEv
004b86a0 T __ZN17SeedChooserScreen9MouseDownEiii
004b8bc0 t .text
004b8bc0 T __ZN11StoreScreen14AddedToManagerEPN4Sexy13WidgetManagerE
004b8c30 T __ZN11StoreScreen18RemovedFromManagerEPN4Sexy13WidgetManagerE
004b8cb0 T __ZN11StoreScreen11ButtonPressEi
004b8ce0 T __ZN11StoreScreen11DrawOverlayEPN4Sexy8GraphicsE
004b8d50 T __ZN18StoreScreenOverlay4DrawEPN4Sexy8GraphicsE
004b8d80 T __ZThn128_N11StoreScreen11ButtonPressEi
004b8db0 T __ZN11StoreScreenD1Ev
004b8db0 T __ZN11StoreScreenD2Ev
004b8fd0 T __ZN11StoreScreenD0Ev
004b8ff0 T __ZN18StoreScreenOverlayC1EP11StoreScreen
004b8ff0 T __ZN18StoreScreenOverlayC2EP11StoreScreen
004b9020 T __ZN11StoreScreenC1EP7LawnApp
004b9020 T __ZN11StoreScreenC2EP7LawnApp
004b9880 T __ZN11StoreScreen16GetStoreItemTypeEi
004b98f0 T __ZN11StoreScreen17IsFullVersionOnlyE9StoreItem
004b9940 T __ZN11StoreScreen13IsPottedPlantE9StoreItem
004b9950 T __ZN11StoreScreen12IsComingSoonE9StoreItem
004b9a40 T __ZN11StoreScreen13IsItemSoldOutE9StoreItem
004b9b30 T __ZN11StoreScreen17IsItemUnavailableE9StoreItem
004b9c60 t __ZN11StoreScreen11UpdateMouseEv.part.0.constprop.0
004ba070 T __ZN11StoreScreen16GetStorePositionEiRiS0_
004ba0c0 T __ZN11StoreScreen12DrawItemIconEPN4Sexy8GraphicsEi9StoreItemb
004ba800 T __ZN11StoreScreen13SetBubbleTextEiib
004ba840 T __ZN11StoreScreen11UpdateMouseEv
004ba880 T __ZN11StoreScreen12StorePreloadEv
004ba950 T __ZN11StoreScreen22CanInteractWithButtonsEv
004ba990 T __ZN11StoreScreen11IsPageShownE10StorePages
004baa10 T __ZN11StoreScreen11GetItemCostE9StoreItem
004bab50 T __ZN11StoreScreen8DrawItemEPN4Sexy8GraphicsEi9StoreItem
004baf30 T __ZN11StoreScreen13CanAffordItemE9StoreItem
004baf60 T __ZN11StoreScreen12PurchaseItemE9StoreItem
004bbb60 T __ZN11StoreScreen13EnableButtonsEb
004bbc20 T __ZN11StoreScreen13ButtonDepressEi
004bbd50 T __ZThn128_N11StoreScreen13ButtonDepressEi
004bbd60 T __ZN11StoreScreen6UpdateEv
004bc2a0 t __ZN11StoreScreen22AdvanceCrazyDaveDialogEv.part.0
004bc510 T __ZN11StoreScreen22AdvanceCrazyDaveDialogEv
004bc530 T __ZN11StoreScreen7KeyCharEc
004bc570 T __ZN11StoreScreen9MouseDownEiii
004bc890 T __ZN11StoreScreen13SetupForIntroEi
004bc9f0 T __ZN11StoreScreen4DrawEPN4Sexy8GraphicsE
004bd000 t .text
004bd000 T __ZN11TitleScreen11ButtonPressEi
004bd020 T __ZN11TitleScreen7KeyDownEN4Sexy7KeyCodeE
004bd090 T __ZN11TitleScreenD1Ev
004bd090 T __ZN11TitleScreenD2Ev
004bd0c0 T __ZN11TitleScreen6ResizeEiiii
004bd0d0 T __ZN11TitleScreen14AddedToManagerEPN4Sexy13WidgetManagerE
004bd100 T __ZN11TitleScreen18RemovedFromManagerEPN4Sexy13WidgetManagerE
004bd130 T __ZN11TitleScreen9MouseDownEiii
004bd180 T __ZN11TitleScreen13ButtonDepressEi
004bd1d0 T __ZThn128_N11TitleScreen11ButtonPressEi
004bd1f0 T __ZThn128_N11TitleScreen13ButtonDepressEi
004bd240 T __ZN11TitleScreenD0Ev
004bd290 T __ZN11TitleScreenC1EP7LawnApp
004bd290 T __ZN11TitleScreenC2EP7LawnApp
004bd4c0 T __ZN11TitleScreen13DrawToPreloadEPN4Sexy8GraphicsE
004bd4f0 T __ZN11TitleScreen4DrawEPN4Sexy8GraphicsE
004bdca0 T __ZN11TitleScreen6UpdateEv
004be920 t .text
004be920 T __ZN10UserDialog14EditWidgetTextEiRKNSt7__cxx1112basic_stringIcSt11char_traitsIcESaIcEEE
004be950 T __ZN10UserDialog9AllowCharEic
004be970 T __ZN10UserDialogD1Ev
004be970 T __ZN10UserDialogD2Ev
004be9e0 T __ZN10UserDialogD0Ev
004bea00 T __ZN10UserDialog11ListClickedEiii
004bea70 T __ZThn348_N10UserDialog9AllowCharEic
004bea90 T __ZThn348_N10UserDialog14EditWidgetTextEiRKNSt7__cxx1112basic_stringIcSt11char_traitsIcESaIcEEE
004beac0 T __ZThn344_N10UserDialog11ListClickedEiii
004beb20 T __ZN10UserDialogC1EP7LawnApp
004beb20 T __ZN10UserDialogC2EP7LawnApp
004bef70 T __ZN10UserDialog10GetSelNameB5cxx11Ev
004befe0 T __ZN10UserDialog16FinishDeleteUserEv
004bf110 T __ZN10UserDialog16FinishRenameUserERKNSt7__cxx1112basic_stringIcSt11char_traitsIcESaIcEEE
004bf160 T __ZN10UserDialog6ResizeEiiii
004bf270 T __ZN10UserDialog18GetPreferredHeightEi
004bf290 T __ZN10UserDialog14AddedToManagerEPN4Sexy13WidgetManagerE
004bf2f0 T __ZN10UserDialog18RemovedFromManagerEPN4Sexy13WidgetManagerE
004bf350 T __ZN10UserDialog4DrawEPN4Sexy8GraphicsE
004bf360 T __ZN10UserDialog13ButtonDepressEi
004bf3f0 T __ZThn128_N10UserDialog13ButtonDepressEi
004bf400 t .text
004bf400 T __ZN4Sexy13BASS_INSTANCED1Ev
004bf400 T __ZN4Sexy13BASS_INSTANCED2Ev
004bf430 T __ZN4Sexy13BASS_INSTANCED0Ev
004bf470 t __ZL17CheckBassFunctionjPKc.part.0
004bf4c0 t __ZN4Sexy13BASS_INSTANCEC2EPKc.part.0
004bfc90 T __ZN4Sexy13BASS_INSTANCEC1EPKc
004bfc90 T __ZN4Sexy13BASS_INSTANCEC2EPKc
004bfcf0 T __ZN4Sexy13BASS_INSTANCE20BASS_MusicSetAmplifyEmm
004bfd20 T __ZN4Sexy13BASS_INSTANCE14BASS_MusicPlayEm
004bfd40 T __ZN4Sexy13BASS_INSTANCE16BASS_MusicPlayExEmmii
004bfda0 T __ZN4Sexy13BASS_INSTANCE18BASS_ChannelResumeEm
004bfdc0 T __ZN4Sexy13BASS_INSTANCE15BASS_StreamPlayEmim
004bfe00 T __ZN4Sexy11LoadBassDLLEv
004bfed0 T __ZN4Sexy11FreeBassDLLEv
004bff80 t .text
004bff80 T __ZN4Sexy18BassMusicInterface9SetVolumeEd
004c0030 t __ZL9GetPakPtrv
004c00f0 T __ZN4Sexy18BassMusicInterface12StopAllMusicEv
004c0140 T __ZN4Sexy18BassMusicInterface13PauseAllMusicEv
004c01c0 T __ZN4Sexy18BassMusicInterface10FadeOutAllEbd
004c0200 T __ZN4Sexy18BassMusicInterface6UpdateEv
004c0360 T __ZN4Sexy18BassMusicInterface14ResumeAllMusicEv
004c03e0 t __ZL7p_fseekP5PFILEli.constprop.0.isra.0
004c0440 T __ZN4Sexy18BassMusicInterface6FadeInEiidb
004c0650 T __ZN4Sexy18BassMusicInterface9LoadMusicEiRKNSt7__cxx1112basic_stringIcSt11char_traitsIcESaIcEEE
004c0c90 t __ZNSt8_Rb_treeIiSt4pairIKiN4Sexy13BassMusicInfoEESt10_Select1stIS4_ESt4lessIiESaIS4_EE8_M_eraseEPSt13_Rb_tree_nodeIS4_E.isra.0
004c0e50 T __ZN4Sexy18BassMusicInterfaceD1Ev
004c0e50 T __ZN4Sexy18BassMusicInterfaceD2Ev
004c0eb0 T __ZN4Sexy18BassMusicInterfaceD0Ev
004c0ed0 T __ZN4Sexy18BassMusicInterface14UnloadAllMusicEv
004c0fa0 T __ZN4Sexy18BassMusicInterface11ResumeMusicEi
004c1020 T __ZN4Sexy18BassMusicInterface7FadeOutEibd
004c10b0 T __ZN4Sexy18BassMusicInterface10PauseMusicEi
004c1140 T __ZN4Sexy18BassMusicInterface15SetMusicAmplifyEid
004c1210 T __ZN4Sexy18BassMusicInterface9StopMusicEi
004c12a0 T __ZN4Sexy18BassMusicInterface9IsPlayingEi
004c1350 T __ZN4Sexy18BassMusicInterface13SetSongVolumeEid
004c1440 T __ZN4Sexy18BassMusicInterface16SetSongMaxVolumeEid
004c1520 T __ZN4Sexy18BassMusicInterface11UnloadMusicEi
004c1600 T __ZN4Sexy18BassMusicInterface9PlayMusicEiib
004c17d0 T __ZN4Sexy13BassMusicInfoC1Ev
004c17d0 T __ZN4Sexy13BassMusicInfoC2Ev
004c1810 T __ZN4Sexy18BassMusicInterfaceC1EP6HWND__
004c1810 T __ZN4Sexy18BassMusicInterfaceC2EP6HWND__
004c1a80 T __ZN4Sexy18BassMusicInterface13GetMusicOrderEi
004c1b00 t .text
004c1b00 t __ZL11GetUTF8CharPPKciPw
004c1c60 T __ZN4Sexy6BufferD0Ev
004c1ca0 T __ZN4Sexy6BufferD1Ev
004c1ca0 T __ZN4Sexy6BufferD2Ev
004c1cd0 T __ZN4Sexy6BufferC1Ev
004c1cd0 T __ZN4Sexy6BufferC2Ev
004c1d10 T __ZNK4Sexy6Buffer11ToWebStringB5cxx11Ev
004c1f00 T __ZNK4Sexy6Buffer16UTF8ToWideStringB5cxx11Ev
004c2020 T __ZNK4Sexy6Buffer9SeekFrontEv
004c2030 T __ZN4Sexy6Buffer5ClearEv
004c2060 T __ZN4Sexy6Buffer15GetBitsRequiredEib
004c20b0 T __ZN4Sexy6Buffer7SetDataERKSt6vectorIhSaIhEE
004c2220 T __ZN4Sexy6Buffer7SetDataEPhi
004c23b0 T __ZNK4Sexy6Buffer8ReadByteEv
004c2430 T __ZNK4Sexy6Buffer11ReadNumBitsEib
004c2510 T __ZNK4Sexy6Buffer11ReadBooleanEv
004c2590 T __ZNK4Sexy6Buffer9ReadShortEv
004c26b0 T __ZNK4Sexy6Buffer8ReadLongEv
004c26f0 T __ZNK4Sexy6Buffer10ReadStringB5cxx11Ev
004c2870 T __ZNK4Sexy6Buffer14ReadUTF8StringB5cxx11Ev
004c29c0 T __ZNK4Sexy6Buffer8ReadLineB5cxx11Ev
004c2af0 T __ZNK4Sexy6Buffer9ReadBytesEPhi
004c2bc0 T __ZNK4Sexy6Buffer10GetDataPtrEv
004c2bd0 T __ZNK4Sexy6Buffer10GetDataLenEv
004c2be0 T __ZNK4Sexy6Buffer14GetDataLenBitsEv
004c2bf0 T __ZNK4Sexy6Buffer8GetCRC32Em
004c2c80 T __ZNK4Sexy6Buffer5AtEndEv
004c2c90 T __ZNK4Sexy6Buffer7PastEndEv
004c2ca0 T __ZNK4Sexy6Buffer10ReadBufferEPSt6vectorIhSaIhEE
004c2dc0 T __ZN4Sexy6Buffer12WriteNumBitsEii
004c2e80 T __ZN4Sexy6Buffer13FromWebStringERKNSt7__cxx1112basic_stringIcSt11char_traitsIcESaIcEEE
004c2fd0 T __ZN4Sexy6Buffer9WriteByteEh
004c3060 T __ZN4Sexy6Buffer12WriteBooleanEb
004c3070 T __ZN4Sexy6Buffer10WriteShortEs
004c30a0 T __ZN4Sexy6Buffer9WriteLongEl
004c3100 T __ZN4Sexy6Buffer11WriteBufferERKSt6vectorIhSaIhEE
004c3160 T __ZN4Sexy6Buffer10WriteBytesEPKhi
004c31a0 T __ZN4Sexy6Buffer9WriteLineERKNSt7__cxx1112basic_stringIcSt11char_traitsIcESaIcEEE
004c3280 T __ZN4Sexy6Buffer11WriteStringERKNSt7__cxx1112basic_stringIcSt11char_traitsIcESaIcEEE
004c32e0 T __ZN4Sexy6Buffer15WriteUTF8StringERKNSt7__cxx1112basic_stringIwSt11char_traitsIwESaIwEEE
004c3400 t .text
004c3400 T __ZN4Sexy12ButtonWidget7SetFontEPNS_4FontE
004c3430 T __ZN4Sexy12ButtonWidget12IsButtonDownEv
004c3450 T __ZN4Sexy12ButtonWidget15DrawButtonImageEPNS_8GraphicsEPNS_5ImageERKNS_5TRectIiEEii
004c34c0 T __ZN4Sexy12ButtonWidgetD1Ev
004c34c0 T __ZN4Sexy12ButtonWidgetD2Ev
004c3510 T __ZN4Sexy12ButtonWidgetD0Ev
004c3530 T __ZN4Sexy12ButtonWidget4DrawEPNS_8GraphicsE
004c4270 T __ZN4Sexy12ButtonWidgetC1EiPNS_14ButtonListenerE
004c4270 T __ZN4Sexy12ButtonWidgetC2EiPNS_14ButtonListenerE
004c4410 T __ZN4Sexy12ButtonWidget15HaveButtonImageEPNS_5ImageERKNS_5TRectIiEE
004c4430 T __ZN4Sexy12ButtonWidget11SetDisabledEb
004c4470 T __ZN4Sexy12ButtonWidget10MouseEnterEv
004c4520 T __ZN4Sexy12ButtonWidget10MouseLeaveEv
004c4600 T __ZN4Sexy12ButtonWidget9MouseMoveEii
004c4670 T __ZN4Sexy12ButtonWidget9MouseDownEiiii
004c4710 T __ZN4Sexy12ButtonWidget7MouseUpEiiii
004c4780 T __ZN4Sexy12ButtonWidget6UpdateEv
004c4880 t .text
004c4880 T __ZN4Sexy8Checkbox9IsCheckedEv
004c4890 T __ZN4Sexy8Checkbox10SetCheckedEbb
004c48f0 T __ZN4Sexy8CheckboxC1EPNS_5ImageES2_iPNS_16CheckboxListenerE
004c48f0 T __ZN4Sexy8CheckboxC2EPNS_5ImageES2_iPNS_16CheckboxListenerE
004c4a10 T __ZN4Sexy8Checkbox4DrawEPNS_8GraphicsE
004c4c20 T __ZN4Sexy8Checkbox9MouseDownEiiii
004c4cb0 t .text
004c4cb0 T __ZN4Sexy5ColorC1Ev
004c4cb0 T __ZN4Sexy5ColorC2Ev
004c4cd0 T __ZN4Sexy5ColorC1Ei
004c4cd0 T __ZN4Sexy5ColorC2Ei
004c4d00 T __ZN4Sexy5ColorC1Eii
004c4d00 T __ZN4Sexy5ColorC2Eii
004c4d30 T __ZN4Sexy5ColorC1Eiii
004c4d30 T __ZN4Sexy5ColorC2Eiii
004c4d50 T __ZN4Sexy5ColorC1Eiiii
004c4d50 T __ZN4Sexy5ColorC2Eiiii
004c4d70 T __ZN4Sexy5ColorC1ERKNS_8SexyRGBAE
004c4d70 T __ZN4Sexy5ColorC2ERKNS_8SexyRGBAE
004c4da0 T __ZN4Sexy5ColorC1EPKh
004c4da0 T __ZN4Sexy5ColorC2EPKh
004c4dd0 T __ZN4Sexy5ColorC1EPKi
004c4dd0 T __ZN4Sexy5ColorC2EPKi
004c4df0 T __ZNK4Sexy5Color6GetRedEv
004c4e00 T __ZNK4Sexy5Color8GetGreenEv
004c4e10 T __ZNK4Sexy5Color7GetBlueEv
004c4e20 T __ZNK4Sexy5Color8GetAlphaEv
004c4e30 T __ZN4Sexy5ColorixEi
004c4e80 T __ZNK4Sexy5ColorixEi
004c4ed0 T __ZNK4Sexy5Color5ToIntEv
004c4ef0 T __ZNK4Sexy5Color6ToRGBAEv
004c4f20 T __ZN4SexyeqERKNS_5ColorES2_
004c4f60 T __ZN4SexyneERKNS_5ColorES2_
004c4fc0 t .text
004c4fc0 t __ZNSt7__cxx1112basic_stringIcSt11char_traitsIcESaIcEE12_M_constructIPKcEEvT_S8_St20forward_iterator_tag.isra.0
004c5080 t __ZNSt7__cxx1112basic_stringIwSt11char_traitsIwESaIwEE12_M_constructIPKwEEvT_S8_St20forward_iterator_tag.isra.0
004c5140 t ___tcf_ZN4Sexy14gAppDataFolderB5cxx11E
004c5180 T __ZN4Sexy4RandEv
004c5190 T __ZN4Sexy4RandEi
004c51b0 T __ZN4Sexy4RandEf
004c51d0 T __ZN4Sexy5SRandEm
004c51f0 T __ZN4Sexy14CheckFor98MillEv
004c5280 T __ZN4Sexy13CheckForVistaEv
004c5310 T __ZN4Sexy16GetAppDataFolderB5cxx11Ev
004c53c0 T __ZN4Sexy9URLEncodeERKNSt7__cxx1112basic_stringIcSt11char_traitsIcESaIcEEE
004c5540 T __ZN4Sexy13StringToUpperERKNSt7__cxx1112basic_stringIcSt11char_traitsIcESaIcEEE
004c5620 T __ZN4Sexy13StringToUpperERKNSt7__cxx1112basic_stringIwSt11char_traitsIwESaIwEEE
004c5700 T __ZN4Sexy13StringToLowerERKNSt7__cxx1112basic_stringIcSt11char_traitsIcESaIcEEE
004c57e0 T __ZN4Sexy13StringToLowerERKNSt7__cxx1112basic_stringIwSt11char_traitsIwESaIwEEE
004c58c0 T __ZN4Sexy15StringToWStringERKNSt7__cxx1112basic_stringIcSt11char_traitsIcESaIcEEE
004c59a0 T __ZN4Sexy15WStringToStringERKNSt7__cxx1112basic_stringIwSt11char_traitsIwESaIwEEE
004c5c40 T __ZN4Sexy18StringToSexyStringERKNSt7__cxx1112basic_stringIcSt11char_traitsIcESaIcEEE
004c5cf0 T __ZN4Sexy19WStringToSexyStringERKNSt7__cxx1112basic_stringIwSt11char_traitsIwESaIwEEE
004c5d10 T __ZN4Sexy18SexyStringToStringERKNSt7__cxx1112basic_stringIcSt11char_traitsIcESaIcEEE
004c5dc0 T __ZN4Sexy19SexyStringToWStringERKNSt7__cxx1112basic_stringIcSt11char_traitsIcESaIcEEE
004c5ea0 T __ZN4Sexy4TrimERKNSt7__cxx1112basic_stringIcSt11char_traitsIcESaIcEEE
004c5f60 T __ZN4Sexy4TrimERKNSt7__cxx1112basic_stringIwSt11char_traitsIwESaIwEEE
004c6020 T __ZN4Sexy11StringToIntENSt7__cxx1112basic_stringIcSt11char_traitsIcESaIcEEEPi
004c6150 T __ZN4Sexy11StringToIntENSt7__cxx1112basic_stringIwSt11char_traitsIwESaIwEEEPi
004c6290 T __ZN4Sexy14StringToDoubleENSt7__cxx1112basic_stringIcSt11char_traitsIcESaIcEEEPd
004c6410 T __ZN4Sexy14StringToDoubleENSt7__cxx1112basic_stringIwSt11char_traitsIwESaIwEEEPd
004c6540 T __ZN4Sexy13CommaSeperateB5cxx11Ei
004c6a60 T __ZN4Sexy9GetCurDirB5cxx11Ev
004c6b20 T __ZN4Sexy14AllowAllAccessERKNSt7__cxx1112basic_stringIcSt11char_traitsIcESaIcEEE
004c6da0 T __ZN4Sexy10FileExistsERKNSt7__cxx1112basic_stringIcSt11char_traitsIcESaIcEEE
004c6df0 T __ZN4Sexy10GetFileDirERKNSt7__cxx1112basic_stringIcSt11char_traitsIcESaIcEEEb
004c6ea0 T __ZN4Sexy11GetFileDateERKNSt7__cxx1112basic_stringIcSt11char_traitsIcESaIcEEE
004c6f40 T __ZN4Sexy7vformatB5cxx11EPKcPc
004c7270 T __ZN4Sexy9StrFormatB5cxx11EPKcz
004c72a0 T __ZN4Sexy7vformatB5cxx11EPKwPc
004c7490 T __ZN4Sexy9StrFormatB5cxx11EPKwz
004c74c0 T __ZN4Sexy15XMLDecodeStringERKNSt7__cxx1112basic_stringIcSt11char_traitsIcESaIcEEE
004c7710 T __ZN4Sexy15XMLDecodeStringERKNSt7__cxx1112basic_stringIwSt11char_traitsIwESaIwEEE
004c7b20 T __ZN4Sexy15XMLEncodeStringERKNSt7__cxx1112basic_stringIcSt11char_traitsIcESaIcEEE
004c7dc0 T __ZN4Sexy15XMLEncodeStringERKNSt7__cxx1112basic_stringIwSt11char_traitsIwESaIwEEE
004c80a0 T __ZN4Sexy13StrFindNoCaseEPKcS1_
004c8170 T __ZN4Sexy15StrPrefixNoCaseEPKcS1_i
004c81f0 T __ZN4Sexy5UpperERKNSt7__cxx1112basic_stringIcSt11char_traitsIcESaIcEEE
004c8250 T __ZN4Sexy5LowerERKNSt7__cxx1112basic_stringIcSt11char_traitsIcESaIcEEE
004c82b0 T __ZN4Sexy5MkDirERKNSt7__cxx1112basic_stringIcSt11char_traitsIcESaIcEEE
004c83a0 T __ZN4Sexy11GetFileNameERKNSt7__cxx1112basic_stringIcSt11char_traitsIcESaIcEEEb
004c84d0 T __ZN4Sexy19RemoveTrailingSlashERKNSt7__cxx1112basic_stringIcSt11char_traitsIcESaIcEEE
004c8550 T __ZN4Sexy16SetAppDataFolderERKNSt7__cxx1112basic_stringIcSt11char_traitsIcESaIcEEE
004c8640 T __ZN4Sexy16AddTrailingSlashERKNSt7__cxx1112basic_stringIcSt11char_traitsIcESaIcEEEb
004c8740 T __ZN4Sexy11GetPathFromERKNSt7__cxx1112basic_stringIcSt11char_traitsIcESaIcEEES7_
004c9300 T __ZN4Sexy11GetFullPathERKNSt7__cxx1112basic_stringIcSt11char_traitsIcESaIcEEE
004c9360 T __ZN4Sexy7DeltreeERKNSt7__cxx1112basic_stringIcSt11char_traitsIcESaIcEEE
004c97e0 T __ZN4Sexy8EvaluateERKNSt7__cxx1112basic_stringIcSt11char_traitsIcESaIcEEERKSt3mapIS5_S5_St4lessIS5_ESaISt4pairIS6_S5_EEE
004c9a90 T __ZN4Sexy5UpperERKNSt7__cxx1112basic_stringIwSt11char_traitsIwESaIwEEE
004c9af0 T __ZN4Sexy5LowerERKNSt7__cxx1112basic_stringIwSt11char_traitsIwESaIwEEE
004c9b80 t .text
004c9b80 T __ZN4Sexy8CritSectC1Ev
004c9b80 T __ZN4Sexy8CritSectC2Ev
004c9ba0 T __ZN4Sexy8CritSectD1Ev
004c9ba0 T __ZN4Sexy8CritSectD2Ev
004c9bc0 t .text
004c9bc0 T __ZN4Sexy12CursorWidget4DrawEPNS_8GraphicsE
004c9c00 T __ZN4Sexy12CursorWidgetC1Ev
004c9c00 T __ZN4Sexy12CursorWidgetC2Ev
004c9c30 T __ZN4Sexy12CursorWidget8SetImageEPNS_5ImageE
004c9c70 T __ZN4Sexy12CursorWidget10GetHotspotEv
004c9ce0 t .text
004c9ce0 t __ZL19GetD3D8AdapterInfo2R5_GUIDRNSt7__cxx1112basic_stringIcSt11char_traitsIcESaIcEEES7_
004c9e20 T __ZN4Sexy18GetD3D8AdapterInfoER5_GUIDRNSt7__cxx1112basic_stringIcSt11char_traitsIcESaIcEEES8_
004c9ec0 t .text
004c9ec0 t __ZL19EnumZBufferCallbackP14_DDPIXELFORMATPv@8
004c9f20 t __ZL24GetBestTextureDimensionsRiS_bbm.part.0
004ca100 t ___tcf_ZN4Sexy12D3DInterface12mErrorStringB5cxx11E
004ca140 t __ZNSt8_Rb_treeIPN4Sexy11MemoryImageES2_St9_IdentityIS2_ESt4lessIS2_ESaIS2_EE8_M_eraseEPSt13_Rb_tree_nodeIS2_E.isra.0
004ca300 t __ZN12PointClipperISt13greater_equalIfEE9ClipPointEifRK12_D3DTLVERTEXS5_R10VertexList.isra.0
004cac90 t __ZN12PointClipperISt13greater_equalIfEE10ClipPointsEifR10VertexListS4_.isra.0
004cad20 t __ZN12PointClipperISt4lessIfEE9ClipPointEifRK12_D3DTLVERTEXS5_R10VertexList.isra.0
004cb680 t __ZN12PointClipperISt4lessIfEE10ClipPointsEifR10VertexListS4_.isra.0
004cb710 T __ZN4Sexy12D3DInterface12CheckDXErrorElPKc
004cb8d0 t __ZL15SetLinearFilterP16IDirect3DDevice7b.part.0
004cb9a0 T __ZN4Sexy12D3DInterfaceC1Ev
004cb9a0 T __ZN4Sexy12D3DInterfaceC2Ev
004cba50 T __ZN4Sexy12D3DInterface17MakeDDPixelFormatENS_11PixelFormatEP14_DDPIXELFORMAT
004cbb80 T __ZN4Sexy12D3DInterface16GetDDPixelFormatEP14_DDPIXELFORMAT
004cbc60 T __ZN4Sexy12D3DInterface20PixelFormatsCallbackEP14_DDPIXELFORMATPv@8
004cbc80 T __ZN4Sexy12D3DInterface14UpdateViewportEv
004cbd40 T __ZN4Sexy12D3DInterface7InitD3DEv
004cbfa0 T __ZN4Sexy12D3DInterface19InitFromDDInterfaceEPNS_11DDInterfaceE
004cc040 T __ZN4Sexy12D3DInterface7PreDrawEv
004cc2e0 T __ZN4Sexy11TextureDataC1Ev
004cc2e0 T __ZN4Sexy11TextureDataC2Ev
004cc350 T __ZN4Sexy11TextureData15ReleaseTexturesEv
004cc3d0 T __ZN4Sexy11TextureDataD1Ev
004cc3d0 T __ZN4Sexy11TextureDataD2Ev
004cc400 T __ZN4Sexy11TextureData10GetTextureEiiRiS1_RfS2_S2_S2_
004cc4b0 T __ZN4Sexy11TextureData11GetTextureFEffRfS1_S1_S1_S1_S1_
004cc590 T __ZN4Sexy11TextureData3BltEP16IDirect3DDevice7ffRKNS_5TRectIiEERKNS_5ColorE
004cc840 t __ZL15DrawPolyClippedP16IDirect3DDevice7PKN4Sexy5TRectIiEERK10VertexList
004cca50 T __ZN4Sexy11TextureData14BltTransformedEP16IDirect3DDevice7RKNS_11SexyMatrix3ERKNS_5TRectIiEERKNS_5ColorEPS8_ffb
004cd170 T __ZN4Sexy11TextureData12BltTrianglesEP16IDirect3DDevice7PA3_KNS_9TriVertexEimff
004cdb30 T __ZN4Sexy12D3DInterface11RecoverBitsEPNS_11MemoryImageE
004ce070 T __ZN4Sexy12D3DInterface13PushTransformERKNS_11SexyMatrix3Eb
004ce160 T __ZN4Sexy12D3DInterface12PopTransformEv
004ce1a0 T __ZN4Sexy12D3DInterface17RemoveMemoryImageEPNS_11MemoryImageE
004ce390 T __ZN4Sexy12D3DInterface7CleanupEv
004ce4e0 T __ZN4Sexy12D3DInterfaceD1Ev
004ce4e0 T __ZN4Sexy12D3DInterfaceD2Ev
004ce550 T __ZN4Sexy12D3DInterfaceD0Ev
004ce5d0 T __ZN4Sexy12D3DInterface13SetupDrawModeEiRKNS_5ColorEPNS_5ImageE
004ce640 t __ZN4Sexy12D3DInterface14BltTransformedEPNS_5ImageEPKNS_5TRectIiEERKNS_5ColorEiRS5_RKNS_11SexyMatrix3Ebffb.part.0
004ce8f0 T __ZN4Sexy12D3DInterface8DrawLineEddddRKNS_5ColorEi
004ceb00 T __ZN4Sexy12D3DInterface8FillRectERKNS_5TRectIiEERKNS_5ColorEi
004ced20 T __ZN4Sexy12D3DInterface12DrawTriangleERKNS_9TriVertexES3_S3_RKNS_5ColorEi
004cee80 T __ZN4Sexy12D3DInterface8FillPolyEPKNS_6TPointIiEEiPKNS_5TRectIiEERKNS_5ColorEiii
004cf200 T __ZN4Sexy12D3DInterface5FlushEv
004cf250 T __ZN4Sexy11TextureData23CreateTextureDimensionsEPNS_11MemoryImageE
004cf5a0 T __ZN4Sexy11TextureData14CreateTexturesEPNS_11MemoryImageEP16IDirect3DDevice7P12IDirectDraw7
004d02c0 T __ZN4Sexy11TextureData19CheckCreateTexturesEPNS_11MemoryImageEP16IDirect3DDevice7P12IDirectDraw7
004d0310 T __ZN4Sexy12D3DInterface18CreateImageTextureEPNS_11MemoryImageE
004d0450 T __ZN4Sexy12D3DInterface13SetCurTextureEPNS_11MemoryImageE
004d04d0 T __ZN4Sexy12D3DInterface14BltTransformedEPNS_5ImageEPKNS_5TRectIiEERKNS_5ColorEiRS5_RKNS_11SexyMatrix3Ebffb
004d05a0 T __ZN4Sexy12D3DInterface16DrawTrianglesTexEPA3_KNS_9TriVertexEiRKNS_5ColorEiPNS_5ImageEffb
004d0680 T __ZN4Sexy12D3DInterface15DrawTriangleTexERKNS_9TriVertexES3_S3_RKNS_5ColorEiPNS_5ImageEb
004d0770 T __ZN4Sexy12D3DInterface21DrawTrianglesTexStripEPKNS_9TriVertexEiRKNS_5ColorEiPNS_5ImageEffb
004d0920 T __ZN4Sexy12D3DInterface8BltClipFEPNS_5ImageEffRKNS_5TRectIiEEPS5_RKNS_5ColorEi
004d09e0 T __ZN4Sexy12D3DInterface9BltMirrorEPNS_5ImageEffRKNS_5TRectIiEERKNS_5ColorEib
004d0b00 T __ZN4Sexy12D3DInterface10BltRotatedEPNS_5ImageEffPKNS_5TRectIiEERKNS_5ColorEidffRS5_
004d0c20 T __ZN4Sexy12D3DInterface10StretchBltEPNS_5ImageERKNS_5TRectIiEES6_PS5_RKNS_5ColorEibb
004d0d90 T __ZN4Sexy12D3DInterface3BltEPNS_5ImageEffRKNS_5TRectIiEERKNS_5ColorEib
004d0f40 t .text
004d0f40 T __ZN4Sexy9D3DTester20PixelFormatsCallbackEP14_DDPIXELFORMATPv@8
004d0f60 t __ZNSt7__cxx1112basic_stringIcSt11char_traitsIcESaIcEE6assignEPKc.isra.0
004d0fa0 t __ZNSt7__cxx1112basic_stringIcSt11char_traitsIcESaIcEEC2EPKcRKS3_.isra.0
004d1060 T __ZN4Sexy12D3DTestImageD1Ev
004d1060 T __ZN4Sexy12D3DTestImageD2Ev
004d1090 T __ZN4Sexy12D3DTestImageD0Ev
004d10c0 T __ZN4Sexy12D3DTestImageC1Ev
004d10c0 T __ZN4Sexy12D3DTestImageC2Ev
004d10e0 T __ZN4Sexy12D3DTestImageC1Eii
004d10e0 T __ZN4Sexy12D3DTestImageC2Eii
004d1150 T __ZN4Sexy12D3DTestImage6CreateEii
004d11c0 T __ZN4Sexy12D3DTestImage9FreeImageEv
004d1200 T __ZN4Sexy12D3DTestImageaSERKS0_
004d1250 T __ZNK4Sexy12D3DTestImage12CompareEqualERKS0_
004d12b0 T __ZN4Sexy12D3DTestImage8FillRectEiiiim
004d1330 T __ZN4Sexy12D3DTestImage17MakeVerticalBandsEv
004d13a0 T __ZN4Sexy12D3DTestImage13ColorDistanceEmm
004d13e0 T __ZNK4Sexy12D3DTestImage14IsUniformColorEmRiii
004d14f0 T __ZN4Sexy12D3DTestImage17CheckUniformBandsEiiii
004d15d0 T __ZN4Sexy9D3DTesterC1Ev
004d15d0 T __ZN4Sexy9D3DTesterC2Ev
004d16c0 T __ZN4Sexy9D3DTester13CheckRegistryEv
004d1940 T __ZN4Sexy9D3DTester15WriteToRegistryEv
004d1ac0 T __ZN4Sexy9D3DTester12FileContainsEP6_iobufPKc
004d1cf0 T __ZN4Sexy9D3DTester15IsSupportedCardEPKc
004d1e00 T __ZN4Sexy9D3DTester7CleanupEv
004d1ec0 T __ZN4Sexy9D3DTesterD1Ev
004d1ec0 T __ZN4Sexy9D3DTesterD2Ev
004d1f60 T __ZN4Sexy9D3DTesterD0Ev
004d2010 T __ZN4Sexy9D3DTester4FailERKNSt7__cxx1112basic_stringIcSt11char_traitsIcESaIcEEE
004d2030 T __ZN4Sexy9D3DTester4WarnERKNSt7__cxx1112basic_stringIcSt11char_traitsIcESaIcEEE
004d2060 T __ZN4Sexy9D3DTester12CheckDXErrorElPKc
004d2120 T __ZN4Sexy12D3DTestImage17CopyToTexture8888EP19IDirectDrawSurface7iiii
004d22a0 T __ZN4Sexy12D3DTestImage17CopyToTexture4444EP19IDirectDrawSurface7iiii
004d2480 T __ZN4Sexy12D3DTestImage17DrawPieceToDeviceEP16IDirect3DDevice7P19IDirectDrawSurface7ffiiiim
004d26a0 T __ZN4Sexy12D3DTestImage12DrawToDeviceEP16IDirect3DDevice7P19IDirectDrawSurface7iim
004d2770 T __ZN4Sexy9D3DTester4InitEP6HWND__P12IDirectDraw7
004d3c30 T __ZN4Sexy9D3DTester22CopyPrimaryToTestImageEv
004d42d0 T __ZN4Sexy9D3DTester14TestAlphaBlendEv
004d4790 T __ZN4Sexy9D3DTester17TestAdditiveBlendEv
004d4c60 T __ZN4Sexy9D3DTester17TestAlphaAddBlendEv
004d50e0 T __ZN4Sexy9D3DTester17TestAlphaModulateEv
004d55f0 T __ZN4Sexy9D3DTester15TestClipProblemEv
004d58b0 T __ZN4Sexy9D3DTester6DoTestEv
004d5900 T __ZN4Sexy9D3DTester23SetVidMemoryConstraintsEmm
004d5920 T __ZN4Sexy9D3DTester7TestD3DEP6HWND__P12IDirectDraw7
004d5a40 t .text
004d5a40 T __ZN4Sexy7DDImage13UnlockSurfaceEv
004d5a90 T __ZN4Sexy7DDImage18AdditiveDrawLineAAEddddRKNS_5ColorE
004d5aa0 T __ZN4Sexy7DDImageD1Ev
004d5aa0 T __ZN4Sexy7DDImageD2Ev
004d5ae0 T __ZN4Sexy7DDImage10SetSurfaceEP18IDirectDrawSurface
004d5b50 T __ZN4Sexy7DDImage10PolyFill3DEPKNS_6TPointIiEEiPKNS_5TRectIiEERKNS_5ColorEiiib
004d5bd0 T __ZN4Sexy7DDImage17AdditiveBltMirrorEPNS_5ImageEiiRKNS_5TRectIiEERKNS_5ColorE
004d72f0 T __ZN4Sexy7DDImage4BltFEPNS_5ImageEffRKNS_5TRectIiEES6_RKNS_5ColorEi
004d74c0 t __ZN4Sexy7DDImage11AdditiveBltEPNS_5ImageEiiRKNS_5TRectIiEERKNS_5ColorE.part.0.constprop.0
004d8be0 T __ZN4Sexy7DDImage11AdditiveBltEPNS_5ImageEiiRKNS_5TRectIiEERKNS_5ColorE
004d8c30 T __ZN4Sexy7DDImageD0Ev
004d8c80 T __ZN4Sexy7DDImageC1EPNS_11DDInterfaceE
004d8c80 T __ZN4Sexy7DDImageC2EPNS_11DDInterfaceE
004d8ce0 T __ZN4Sexy7DDImageC1Ev
004d8ce0 T __ZN4Sexy7DDImageC2Ev
004d8d40 T __ZN4Sexy7DDImage4InitEv
004d8d80 T __ZN4Sexy7DDImage7Check3DEPNS_5ImageE
004d8de0 T __ZN4Sexy7DDImage7Check3DEPS0_
004d8e00 T __ZN4Sexy7DDImage15DeleteDDSurfaceEv
004d8e60 T __ZN4Sexy7DDImage14SetVideoMemoryEb
004d8e90 T __ZN4Sexy7DDImage23DeleteAllNonSurfaceDataEv
004d8f20 T __ZN4Sexy7DDImage16DeleteNativeDataEv
004d8f50 T __ZN4Sexy7DDImage18DeleteExtraBuffersEv
004d8f80 T __ZN4Sexy7DDImage10CommitBitsEv
004d8fa0 T __ZN4Sexy7DDImage17GenerateDDSurfaceEv
004d9dd0 T __ZN4Sexy7DDImage20RehupFirstPixelTransEv
004d9ed0 T __ZN4Sexy7DDImage10GetSurfaceEv
004d9f00 T __ZN4Sexy7DDImage11LockSurfaceEv
004d9ff0 T __ZN4Sexy7DDImage16NormalDrawLineAAEddddRKNS_5ColorE
004dc130 T __ZN4Sexy7DDImage14NormalFillRectERKNS_5TRectIiEERKNS_5ColorE
004dc600 T __ZN4Sexy7DDImage16AdditiveFillRectERKNS_5TRectIiEERKNS_5ColorE
004dca10 T __ZN4Sexy7DDImage8FillRectERKNS_5TRectIiEERKNS_5ColorEi
004dcb70 T __ZN4Sexy7DDImage9NormalBltEPNS_5ImageEiiRKNS_5TRectIiEERKNS_5ColorE
004e1650 T __ZN4Sexy7DDImage9BltMatrixEPNS_5ImageEffRKNS_11SexyMatrix3ERKNS_5TRectIiEERKNS_5ColorEiS9_b
004e1830 T __ZN4Sexy7DDImage15BltTrianglesTexEPNS_5ImageEPA3_KNS_9TriVertexEiRKNS_5TRectIiEERKNS_5ColorEiffb
004e1a00 T __ZN4Sexy7DDImage14NormalDrawLineEddddRKNS_5ColorE
004e3170 T __ZN4Sexy7DDImage16AdditiveDrawLineEddddRKNS_5ColorE
004e4160 T __ZN4Sexy7DDImage15NormalBltMirrorEPNS_5ImageEiiRKNS_5TRectIiEERKNS_5ColorE
004e79c0 T __ZN4Sexy7DDImage9BltMirrorEPNS_5ImageEiiRKNS_5TRectIiEERKNS_5ColorEi
004e7b70 T __ZN4Sexy7DDImage6ReInitEv
004e7ba0 T __ZN4Sexy7DDImage9PurgeBitsEv
004e7ca0 T __ZN4Sexy7DDImage16StretchBltMirrorEPNS_5ImageERKNS_5TRectIiEES6_S6_RKNS_5ColorEib
004ea3d0 T __ZN4Sexy7DDImage10DrawLineAAEddddRKNS_5ColorEi
004ea710 T __ZN4Sexy7DDImage8DrawLineEddddRKNS_5ColorEi
004eaa60 T __ZN4Sexy7DDImage11BitsChangedEv
004eaa90 T __ZN4Sexy7DDImage6CreateEii
004eab00 T __ZN4Sexy7DDImage7GetBitsEv
004eae20 T __ZN4Sexy7DDImage3BltEPNS_5ImageEiiRKNS_5TRectIiEERKNS_5ColorEi
004eb240 T __ZN4Sexy7DDImage10BltRotatedEPNS_5ImageEffRKNS_5TRectIiEES6_RKNS_5ColorEidff
004f3860 T __ZN4Sexy7DDImage10StretchBltEPNS_5ImageERKNS_5TRectIiEES6_S6_RKNS_5ColorEib
004f6900 T __ZN4Sexy7DDImage9PalletizeEv
004f6930 T __ZN4Sexy7DDImage25FillScanLinesWithCoverageEPNS_4SpanEiRKNS_5ColorEiPKhiiii
004f6fc0 t .text
004f6fc0 t __ZN4Sexy11DDInterface12ClearSurfaceEP18IDirectDrawSurface.part.0
004f7080 t __ZNSt8_Rb_treeIPN4Sexy7DDImageES2_St9_IdentityIS2_ESt4lessIS2_ESaIS2_EE8_M_eraseEPSt13_Rb_tree_nodeIS2_E.isra.0
004f7240 T __ZN4Sexy11DDInterfaceC1EPNS_11SexyAppBaseE
004f7240 T __ZN4Sexy11DDInterfaceC2EPNS_11SexyAppBaseE
004f7480 T __ZN4Sexy11DDInterface14ResultToStringB5cxx11Ei
004f7740 T __ZN4Sexy11DDInterface10GotDXErrorElPKc
004f78d0 T __ZN4Sexy11DDInterface14GetScreenImageEv
004f78e0 T __ZN4Sexy11DDInterface13CreateSurfaceEP15_DDSURFACEDESC2PP18IDirectDrawSurfacePv
004f7b00 T __ZN4Sexy11DDInterface12ClearSurfaceEP18IDirectDrawSurface
004f7b20 T __ZN4Sexy11DDInterface8Do3DTestEP6HWND__
004f7c20 T __ZN4Sexy11DDInterface10RemapMouseERiS1_
004f7c70 T __ZN4Sexy11DDInterface11GetColorRefEm
004f7d70 T __ZN4Sexy11DDInterface10AddDDImageEPNS_7DDImageE
004f7e90 T __ZN4Sexy11DDInterface13RemoveDDImageEPNS_7DDImageE
004f7f50 T __ZN4Sexy11DDInterface12Remove3DDataEPNS_11MemoryImageE
004f7f60 T __ZN4Sexy11DDInterface7CleanupEv
004f80d0 T __ZN4Sexy11DDInterfaceD1Ev
004f80d0 T __ZN4Sexy11DDInterfaceD2Ev
004f81a0 T __ZN4Sexy11DDInterfaceD0Ev
004f81c0 T __ZN4Sexy11DDInterface10CopyBitmapEP18IDirectDrawSurfaceP9HBITMAP__iiii
004f83f0 T __ZN4Sexy11DDInterface24RestoreOldCursorAreaFromEP18IDirectDrawSurfaceb
004f85a0 T __ZN4Sexy11DDInterface14SetCursorImageEPNS_5ImageE
004f85f0 T __ZN4Sexy11DDInterface12DrawCursorToEP18IDirectDrawSurfaceb
004f8b90 T __ZN4Sexy11DDInterface6RedrawEPNS_5TRectIiEE
004f9340 T __ZN4Sexy11DDInterface12MoveCursorToEP18IDirectDrawSurfacebii
004f9c40 T __ZN4Sexy11DDInterface12SetCursorPosEii
004f9d00 T __ZN4Sexy11DDInterface16SetVideoOnlyDrawEb
004f9e70 T __ZN4Sexy11DDInterface4InitEP6HWND__b
004fb0c0 t .text
004fb0c0 T __ZN4Sexy14DSoundInstanceD1Ev
004fb0c0 T __ZN4Sexy14DSoundInstanceD2Ev
004fb0f0 T __ZN4Sexy14DSoundInstance4StopEv
004fb140 T __ZN4Sexy14DSoundInstance4PlayEbb
004fb1f0 T __ZN4Sexy14DSoundInstance7ReleaseEv
004fb220 T __ZN4Sexy14DSoundInstance9IsPlayingEv
004fb270 T __ZN4Sexy14DSoundInstance9GetVolumeEv
004fb280 T __ZN4Sexy14DSoundInstance11AdjustPitchEd
004fb330 T __ZN4Sexy14DSoundInstanceD0Ev
004fb370 T __ZN4Sexy14DSoundInstance6SetPanEi
004fb3a0 T __ZN4Sexy14DSoundInstance10SetBasePanEi
004fb3d0 T __ZN4Sexy14DSoundInstance10IsReleasedEv
004fb4a0 T __ZN4Sexy14DSoundInstance9SetVolumeEd
004fb500 T __ZN4Sexy14DSoundInstance13SetBaseVolumeEd
004fb560 T __ZN4Sexy14DSoundInstance11RehupVolumeEv
004fb5b0 T __ZN4Sexy14DSoundInstanceC1EPNS_13DSoundManagerEP18IDirectSoundBuffer
004fb5b0 T __ZN4Sexy14DSoundInstanceC2EPNS_13DSoundManagerEP18IDirectSoundBuffer
004fb7a0 T __ZN4Sexy14DSoundInstance8RehupPanEv
004fb800 t .text
004fb800 T __ZN4Sexy13DSoundManager11InitializedEv
004fb810 T __ZN4Sexy13DSoundManager14GetFreeSoundIdEv
004fb840 T __ZN4Sexy13DSoundManager12GetNumSoundsEv
004fb860 T __ZN4Sexy13DSoundManager13SetBaseVolumeEjd
004fb890 T __ZN4Sexy13DSoundManager10SetBasePanEji
004fb8c0 T __ZN4Sexy13DSoundManager13ReleaseSoundsEv
004fb900 T __ZN4Sexy13DSoundManager15ReleaseChannelsEv
004fb940 T __ZN4Sexy13DSoundManager13StopAllSoundsEv
004fb980 T __ZN4Sexy13DSoundManager5FlushEv
004fb990 T __ZN4Sexy13DSoundManager20SetCooperativeWindowEP6HWND__b
004fb9d0 T __ZN4Sexy13DSoundManager9SetVolumeEd
004fba10 t __ZL9GetPakPtrv
004fbad0 T __ZN4Sexy13DSoundManager15GetMasterVolumeEv
004fbc30 T __ZN4Sexy13DSoundManager15SetMasterVolumeEd
004fbdb0 t __ZL8p_fcloseP5PFILE
004fbe10 T __ZN4Sexy13DSoundManager9LoadSoundERKNSt7__cxx1112basic_stringIcSt11char_traitsIcESaIcEEE
004fbec0 t __ZL7p_fopenPKcS0_.constprop.0
004fbf40 t __ZL7p_fseekP5PFILEli
004fbfa0 t __ZL14p_fseek64_wrapP5PFILExi
004fbfc0 t __ZL7p_freadPviiP5PFILE
004fc030 t __ZL7p_ftellP5PFILE
004fc070 T __ZN4Sexy13DSoundManager12ReleaseSoundEj
004fc0e0 T __ZN4Sexy13DSoundManagerD1Ev
004fc0e0 T __ZN4Sexy13DSoundManagerD2Ev
004fc1e0 T __ZN4Sexy13DSoundManagerD0Ev
004fc200 T __ZN4Sexy13DSoundManagerC1EP6HWND__b
004fc200 T __ZN4Sexy13DSoundManagerC2EP6HWND__b
004fc4c0 T __ZN4Sexy13DSoundManager10VolumeToDBEd
004fc520 T __ZN4Sexy13DSoundManager13LoadFModSoundEjRKNSt7__cxx1112basic_stringIcSt11char_traitsIcESaIcEEE
004fc820 T __Z11ov_pak_openP5PFILEP14OggVorbis_FilePcl
004fc870 T __ZN4Sexy13DSoundManager12LoadOGGSoundEjRKNSt7__cxx1112basic_stringIcSt11char_traitsIcESaIcEEE
004fcb20 T __ZN4Sexy13DSoundManager11LoadAUSoundEjRKNSt7__cxx1112basic_stringIcSt11char_traitsIcESaIcEEE
004fcfe0 T __ZN4Sexy13DSoundManager14GetTheFileTimeERKNSt7__cxx1112basic_stringIcSt11char_traitsIcESaIcEEEP9_FILETIME
004fd080 T __ZN4Sexy13DSoundManager12LoadWAVSoundEjRKNSt7__cxx1112basic_stringIcSt11char_traitsIcESaIcEEE
004fd800 T __ZN4Sexy13DSoundManager8WriteWAVEjRKNSt7__cxx1112basic_stringIcSt11char_traitsIcESaIcEEES8_
004fdd80 T __ZN4Sexy13DSoundManager9LoadSoundEjRKNSt7__cxx1112basic_stringIcSt11char_traitsIcESaIcEEE
004fea00 T __ZN4Sexy13DSoundManager19ReleaseFreeChannelsEv
004fea50 T __ZN4Sexy13DSoundManager15FindFreeChannelEv
004feaf0 T __ZN4Sexy13DSoundManager16GetSoundInstanceEj
004fec00 t .text
004fec00 t __ZNSt8_Rb_treeIPvSt4pairIKS0_15SEXY_ALLOC_INFOESt10_Select1stIS4_ESt4lessIS0_ESaIS4_EE24_M_get_insert_unique_posERS2_.isra.0
004feca0 t __ZNSt8_Rb_treeIPvSt4pairIKS0_15SEXY_ALLOC_INFOESt10_Select1stIS4_ESt4lessIS0_ESaIS4_EE8_M_eraseEPSt13_Rb_tree_nodeIS4_E.isra.0
004fee60 T __Z9SexyTracePKc
004fef40 T __Z12SexyTraceFmtPKcz
004ff060 T __Z15SexyMemAddTrackPviPKci
004ff270 T __Z18SexyMemRemoveTrackPv
004ff330 T __Z15SexyDumpUnfreedv
004ff530 t ___tcf_ZL13gSexyAllocMap
004ff590 T __Z11OutputDebugPKcz
004ff600 t .text
004ff600 T __ZN4Sexy10DescParser5ErrorERKNSt7__cxx1112basic_stringIcSt11char_traitsIcESaIcEEE
004ff620 t __ZL9GetPakPtrv
004ff6e0 t __ZNSt8_Rb_treeINSt7__cxx1112basic_stringIcSt11char_traitsIcESaIcEEESt4pairIKS5_PN4Sexy11DataElementEESt10_Select1stISB_ESt4lessIS5_ESaISB_EE4findERS7_.isra.0
004ff7a0 T __ZN4Sexy10DescParser11DereferenceERKNSt7__cxx1112basic_stringIcSt11char_traitsIcESaIcEEE
004ff810 t __ZNSt8_Rb_treeINSt7__cxx1112basic_stringIcSt11char_traitsIcESaIcEEESt4pairIKS5_PN4Sexy11DataElementEESt10_Select1stISB_ESt4lessIS5_ESaISB_EE8_M_eraseEPSt13_Rb_tree_nodeISB_E.isra.0
004ffae0 T __ZN4Sexy10DescParserC1Ev
004ffae0 T __ZN4Sexy10DescParserC2Ev
004ffb30 T __ZN4Sexy10DescParserD1Ev
004ffb30 T __ZN4Sexy10DescParserD2Ev
004ffbd0 T __ZN4Sexy10DescParserD0Ev
004ffc80 T __ZN4Sexy10DescParser11IsImmediateERKNSt7__cxx1112basic_stringIcSt11char_traitsIcESaIcEEE
004ffcc0 T __ZN4Sexy10DescParser7UnquoteERKNSt7__cxx1112basic_stringIcSt11char_traitsIcESaIcEEE
004ffe70 T __ZN4Sexy10DescParser12DataToStringEPNS_11DataElementEPNSt7__cxx1112basic_stringIcSt11char_traitsIcESaIcEEE
00500030 T __ZN4Sexy10DescParser9DataToIntEPNS_11DataElementEPi
005000f0 T __ZN4Sexy10DescParser19DataElementToStringB5cxx11EPNS_11DataElementE
00500240 T __ZN4Sexy10DescParser9GetValuesEPNS_15ListDataElementES2_
00500810 T __ZN4Sexy10DescParser10DataToListEPNS_11DataElementEPNS_15ListDataElementE
00500890 T __ZN4Sexy10DescParser11ParseToListERKNSt7__cxx1112basic_stringIcSt11char_traitsIcESaIcEEEPNS_15ListDataElementEbPi
00500ef0 T __ZN4Sexy10DescParser18DataToStringVectorEPNS_11DataElementEPSt6vectorINSt7__cxx1112basic_stringIcSt11char_traitsIcESaIcEEESaIS9_EE
00501300 T __ZN4Sexy10DescParser15DataToIntVectorEPNS_11DataElementEPSt6vectorIiSaIiEE
00501520 T __ZN4Sexy10DescParser18DataToDoubleVectorEPNS_11DataElementEPSt6vectorIdSaIdEE
00501740 T __ZN4Sexy10DescParser19ParseDescriptorLineERKNSt7__cxx1112basic_stringIcSt11char_traitsIcESaIcEEE
00501850 T __ZN4Sexy10DescParser14LoadDescriptorERKNSt7__cxx1112basic_stringIcSt11char_traitsIcESaIcEEE
00501de0 t .text
00501de0 T __ZN4Sexy6Dialog13SetButtonFontEPNS_4FontE
00501e30 T __ZN4Sexy6Dialog13SetHeaderFontEPNS_4FontE
00501e60 T __ZN4Sexy6Dialog12SetLinesFontEPNS_4FontE
00501e90 T __ZN4Sexy6Dialog7IsModalEv
00501ea0 T __ZN4Sexy6Dialog13WaitForResultEb
00501f10 T __ZN4Sexy6Dialog14ButtonDownTickEi
00501f20 T __ZN4Sexy6Dialog8SetColorEiRKNS_5ColorE
00501ff0 T __ZN4Sexy6Dialog14AddedToManagerEPNS_13WidgetManagerE
00502050 T __ZN4Sexy6Dialog18RemovedFromManagerEPNS_13WidgetManagerE
005020b0 T __ZN4Sexy6Dialog21OrderInManagerChangedEv
00502100 T __ZN4Sexy6Dialog6ResizeEiiii
00502260 T __ZN4Sexy6Dialog9MouseDragEii
005023f0 T __ZN4Sexy6Dialog13ButtonDepressEi
00502430 T __ZN4Sexy6Dialog11ButtonPressEi
00502470 T __ZThn128_N4Sexy6Dialog14ButtonDownTickEi
00502480 T __ZThn128_N4Sexy6Dialog11ButtonPressEi
005024c0 T __ZThn128_N4Sexy6Dialog13ButtonDepressEi
00502500 t ___tcf_ZN4Sexy20DIALOG_CANCEL_STRINGB5cxx11E
00502540 t ___tcf_ZN4Sexy16DIALOG_OK_STRINGB5cxx11E
00502580 t ___tcf_ZN4Sexy16DIALOG_NO_STRINGB5cxx11E
005025c0 t ___tcf_ZN4Sexy17DIALOG_YES_STRINGB5cxx11E
00502600 T __ZN4Sexy6DialogD1Ev
00502600 T __ZN4Sexy6DialogD2Ev
005026d0 T __ZN4Sexy6DialogD0Ev
005026f0 T __ZN4Sexy6DialogC1EPNS_5ImageES2_ibRKNSt7__cxx1112basic_stringIcSt11char_traitsIcESaIcEEESA_SA_i
005026f0 T __ZN4Sexy6DialogC2EPNS_5ImageES2_ibRKNSt7__cxx1112basic_stringIcSt11char_traitsIcESaIcEEESA_SA_i
00502b30 T __ZN4Sexy6Dialog11EnsureFontsEv
00502d30 T __ZN4Sexy6Dialog4DrawEPNS_8GraphicsE
005030f0 T __ZN4Sexy6Dialog18GetPreferredHeightEi
005032a0 T __ZN4Sexy6Dialog9MouseDownEiiii
00503320 T __ZN4Sexy6Dialog7MouseUpEiiii
00503390 T __ZN4Sexy6Dialog6UpdateEv
005033a0 t .text
005033a0 T __ZN4Sexy12DialogButtonC1EPNS_5ImageEiPNS_14ButtonListenerE
005033a0 T __ZN4Sexy12DialogButtonC2EPNS_5ImageEiPNS_14ButtonListenerE
00503420 T __ZN4Sexy12DialogButton4DrawEPNS_8GraphicsE
005039a0 t .text
005039a0 t __ZNSt7__cxx1112basic_stringIcSt11char_traitsIcESaIcEEC2EPKcRKS3_.isra.0
00503a60 T __ZN4Sexy21GetDirectXErrorStringB5cxx11El
00506140 t .text
00506140 T __ZN4Sexy10EditWidget10WantsFocusEv
00506150 T __ZN4Sexy10EditWidget12IsPartOfWordEc
00506190 t __ZNSt7__cxx1112basic_stringIcSt11char_traitsIcESaIcEE12_M_constructIPKcEEvT_S8_St20forward_iterator_tag.isra.0
00506250 T __ZN4Sexy10EditWidgetC1EiPNS_12EditListenerE
00506250 T __ZN4Sexy10EditWidgetC2EiPNS_12EditListenerE
005063a0 T __ZN4Sexy10EditWidget20ClearWidthCheckFontsEv
00506420 T __ZN4Sexy10EditWidgetD1Ev
00506420 T __ZN4Sexy10EditWidgetD2Ev
005064f0 T __ZN4Sexy10EditWidgetD0Ev
00506510 T __ZN4Sexy10EditWidget17AddWidthCheckFontEPNS_4FontEi
00506570 T __ZN4Sexy10EditWidget7SetFontEPNS_4FontES2_
005065d0 T __ZN4Sexy10EditWidget16GetDisplayStringB5cxx11Ev
00506720 T __ZN4Sexy10EditWidget10HiliteWordEv
00506860 T __ZN4Sexy10EditWidget4DrawEPNS_8GraphicsE
00506df0 T __ZN4Sexy10EditWidget9GetCharAtEii
00506f50 T __ZN4Sexy10EditWidget14UpdateCaretPosEv
00506ff0 T __ZN4Sexy10EditWidget16EnforceMaxPixelsEv
005072d0 T __ZN4Sexy10EditWidget7KeyDownENS_7KeyCodeE
00507350 T __ZN4Sexy10EditWidget7KeyCharEc
00507390 T __ZN4Sexy10EditWidget10MouseEnterEv
005073c0 T __ZN4Sexy10EditWidget10MouseLeaveEv
005073f0 T __ZN4Sexy10EditWidget9MarkDirtyEv
00507410 T __ZN4Sexy10EditWidget9LostFocusEv
005074a0 T __ZN4Sexy10EditWidget11FocusCursorEb
005076f0 T __ZN4Sexy10EditWidget6ResizeEiiii
00507760 T __ZN4Sexy10EditWidget7SetTextERKNSt7__cxx1112basic_stringIcSt11char_traitsIcESaIcEEEb
00507830 T __ZN4Sexy10EditWidget8GotFocusEv
00507900 T __ZN4Sexy10EditWidget9MouseDragEii
00507a00 T __ZN4Sexy10EditWidget7MouseUpEiiii
00507b00 T __ZN4Sexy10EditWidget9MouseDownEiiii
00507c20 T __ZN4Sexy10EditWidget6UpdateEv
00507cc0 T __ZN4Sexy10EditWidget10ProcessKeyENS_7KeyCodeEc
0050ad50 t .text
0050ad50 T __ZN4Sexy13FMOD_INSTANCED1Ev
0050ad50 T __ZN4Sexy13FMOD_INSTANCED2Ev
0050ad80 T __ZN4Sexy13FMOD_INSTANCED0Ev
0050adc0 t __ZL17CheckFModFunctionjPKc.part.0
0050ae10 t __ZN4Sexy13FMOD_INSTANCEC2EPKc.part.0
0050b2e0 T __ZN4Sexy13FMOD_INSTANCEC1EPKc
0050b2e0 T __ZN4Sexy13FMOD_INSTANCEC2EPKc
0050b340 T __ZN4Sexy11LoadFModDLLEv
0050b410 T __ZN4Sexy11FreeFModDLLEv
0050b4c0 t .text
0050b4c0 T __ZN4Sexy18FModMusicInterface10FadeOutAllEbd
0050b4f0 T __ZN4Sexy18FModMusicInterface12StopAllMusicEv
0050b560 T __ZN4Sexy18FModMusicInterface9SetVolumeEd
0050b620 T __ZN4Sexy18FModMusicInterface6UpdateEv
0050b7a0 T __ZN4Sexy18FModMusicInterface6FadeInEiidb
0050b970 t __ZNSt8_Rb_treeIiSt4pairIKiN4Sexy13FModMusicInfoEESt10_Select1stIS4_ESt4lessIiESaIS4_EE16_M_insert_uniqueIS4_EES0_ISt17_Rb_tree_iteratorIS4_EbEOT_.isra.0
0050bac0 T __ZN4Sexy18FModMusicInterface9LoadMusicEiRKNSt7__cxx1112basic_stringIcSt11char_traitsIcESaIcEEE
0050bb50 t __ZNSt8_Rb_treeIiSt4pairIKiN4Sexy13FModMusicInfoEESt10_Select1stIS4_ESt4lessIiESaIS4_EE8_M_eraseEPSt13_Rb_tree_nodeIS4_E.isra.0
0050bd10 T __ZN4Sexy18FModMusicInterfaceD1Ev
0050bd10 T __ZN4Sexy18FModMusicInterfaceD2Ev
0050bd60 T __ZN4Sexy18FModMusicInterfaceD0Ev
0050bdc0 T __ZN4Sexy18FModMusicInterface7FadeOutEibd
0050be40 T __ZN4Sexy18FModMusicInterface9IsPlayingEi
0050bec0 T __ZN4Sexy18FModMusicInterface10PauseMusicEi
0050bf60 T __ZN4Sexy18FModMusicInterface11ResumeMusicEi
0050c000 T __ZN4Sexy18FModMusicInterface9StopMusicEi
0050c080 T __ZN4Sexy18FModMusicInterface13SetSongVolumeEid
0050c170 T __ZN4Sexy18FModMusicInterface9PlayMusicEiib
0050c2f0 T __ZN4Sexy13FModMusicInfoC1Ev
0050c2f0 T __ZN4Sexy13FModMusicInfoC2Ev
0050c330 T __ZN4Sexy18FModMusicInterfaceC1EP6HWND__
0050c330 T __ZN4Sexy18FModMusicInterfaceC2EP6HWND__
0050c390 T __ZN4Sexy18FModMusicInterface14LoadFMODSampleERKNSt7__cxx1112basic_stringIcSt11char_traitsIcESaIcEEE
0050cdf0 T __ZN4Sexy18FModMusicInterface10LoadSampleEiRKNSt7__cxx1112basic_stringIcSt11char_traitsIcESaIcEEEb
0050cf40 T __ZN4Sexy18FModMusicInterface10LoadSampleEiRKNSt7__cxx1112basic_stringIcSt11char_traitsIcESaIcEEES8_b
0050d4c0 t .text
0050d4c0 T __ZN4Sexy17FModSoundInstanceD1Ev
0050d4c0 T __ZN4Sexy17FModSoundInstanceD2Ev
0050d4d0 T __ZN4Sexy17FModSoundInstance4StopEv
0050d4d0 T __ZN4Sexy17FModSoundInstance7ReleaseEv
0050d4e0 T __ZN4Sexy17FModSoundInstance11AdjustPitchEd
0050d4e0 T __ZN4Sexy17FModSoundInstance13SetBaseVolumeEd
0050d4e0 T __ZN4Sexy17FModSoundInstance9SetVolumeEd
0050d4f0 T __ZN4Sexy17FModSoundInstance10SetBasePanEi
0050d4f0 T __ZN4Sexy17FModSoundInstance6SetPanEi
0050d500 T __ZN4Sexy17FModSoundInstance9GetVolumeEv
0050d510 T __ZN4Sexy17FModSoundInstance4PlayEbb
0050d550 T __ZN4Sexy17FModSoundInstance9IsPlayingEv
0050d560 T __ZN4Sexy17FModSoundInstance10IsReleasedEv
0050d570 T __ZN4Sexy17FModSoundInstanceD0Ev
0050d590 T __ZN4Sexy17FModSoundInstanceC1Ev
0050d590 T __ZN4Sexy17FModSoundInstanceC2Ev
0050d5b0 t .text
0050d5b0 T __ZN4Sexy16FModSoundManager11InitializedEv
0050d5c0 T __ZN4Sexy16FModSoundManager9LoadSoundERKNSt7__cxx1112basic_stringIcSt11char_traitsIcESaIcEEE
0050d610 T __ZN4Sexy16FModSoundManager15SetMasterVolumeEd
0050d610 T __ZN4Sexy16FModSoundManager9SetVolumeEd
0050d620 T __ZN4Sexy16FModSoundManager13ReleaseSoundsEv
0050d620 T __ZN4Sexy16FModSoundManager15ReleaseChannelsEv
0050d620 T __ZN4Sexy16FModSoundManager5FlushEv
0050d630 T __ZN4Sexy16FModSoundManager15GetMasterVolumeEv
0050d640 T __ZN4Sexy16FModSoundManager20SetCooperativeWindowEP6HWND__b
0050d650 T __ZN4Sexy16FModSoundManager16GetSoundInstanceEj
0050d690 T __ZN4Sexy16FModSoundManager9LoadSoundEjRKNSt7__cxx1112basic_stringIcSt11char_traitsIcESaIcEEE
0050da50 T __ZN4Sexy16FModSoundManagerC1EP6HWND__
0050da50 T __ZN4Sexy16FModSoundManagerC2EP6HWND__
0050dad0 T __ZN4Sexy16FModSoundManagerD1Ev
0050dad0 T __ZN4Sexy16FModSoundManagerD2Ev
0050db20 T __ZN4Sexy16FModSoundManagerD0Ev
0050db80 t .text
0050db80 t .text
0050db80 T __ZN4Sexy4Font9GetAscentEv
0050db90 T __ZN4Sexy4Font16GetAscentPaddingEv
0050dba0 T __ZN4Sexy4Font10GetDescentEv
0050dbb0 T __ZN4Sexy4Font9GetHeightEv
0050dbc0 T __ZN4Sexy4Font20GetLineSpacingOffsetEv
0050dbd0 T __ZN4Sexy4Font14GetLineSpacingEv
0050dbe0 T __ZN4Sexy4Font11StringWidthERKNSt7__cxx1112basic_stringIcSt11char_traitsIcESaIcEEE
0050dbf0 T __ZN4Sexy4Font13CharWidthKernEcc
0050dc10 T __ZN4Sexy4Font10DrawStringEPNS_8GraphicsEiiRKNSt7__cxx1112basic_stringIcSt11char_traitsIcESaIcEEERKNS_5ColorERKNS_5TRectIiEE
0050dc20 T __ZN4Sexy4Font9CharWidthEc
0050dca0 T __ZN4Sexy4FontC1Ev
0050dca0 T __ZN4Sexy4FontC2Ev
0050dcd0 T __ZN4Sexy4FontC1ERKS0_
0050dcd0 T __ZN4Sexy4FontC2ERKS0_
0050dd00 T __ZN4Sexy4FontD1Ev
0050dd00 T __ZN4Sexy4FontD2Ev
0050dd10 T __ZN4Sexy4FontD0Ev
0050dd40 t .text
0050dd40 T __ZN4Sexy8Graphics12PFCompareIndEPKvS2_
0050dd70 T __ZN4Sexy8Graphics15PFCompareActiveEPKvS2_
0050dd90 T __ZN4Sexy8GraphicsD1Ev
0050dd90 T __ZN4Sexy8GraphicsD2Ev
0050ddc0 T __ZN4Sexy8GraphicsD0Ev
0050de10 t __ZN4Sexy8Graphics8FillRectEiiii.part.0
0050def0 t __ZN4Sexy8Graphics8DrawRectEiiii.part.0
0050e0d0 T __ZN4Sexy13GraphicsState13CopyStateFromEPKS0_
0050e150 T __ZN4Sexy8GraphicsC1ERKS0_
0050e150 T __ZN4Sexy8GraphicsC2ERKS0_
0050e210 T __ZN4Sexy8Graphics9PushStateEv
0050e2f0 T __ZN4Sexy8Graphics8PopStateEv
0050e3b0 T __ZN4Sexy8Graphics6CreateEv
0050e490 T __ZN4Sexy8Graphics7GetFontEv
0050e4a0 T __ZN4Sexy8Graphics7SetFontEPNS_4FontE
0050e4b0 T __ZN4Sexy8Graphics8SetColorERKNS_5ColorE
0050e4d0 T __ZN4Sexy8Graphics8GetColorEv
0050e4e0 T __ZN4Sexy8Graphics11SetDrawModeEi
0050e4f0 T __ZN4Sexy8Graphics11GetDrawModeEv
0050e500 T __ZN4Sexy8Graphics17SetColorizeImagesEb
0050e510 T __ZN4Sexy8Graphics17GetColorizeImagesEv
0050e520 T __ZN4Sexy8Graphics14SetFastStretchEb
0050e530 T __ZN4Sexy8Graphics14GetFastStretchEv
0050e540 T __ZN4Sexy8Graphics14SetLinearBlendEb
0050e550 T __ZN4Sexy8Graphics14GetLinearBlendEv
0050e560 T __ZN4Sexy8Graphics9ClearRectEiiii
0050e630 T __ZN4Sexy8Graphics9ClearRectERKNS_5TRectIiEE
0050e660 T __ZN4Sexy8Graphics8FillRectEiiii
0050e690 T __ZN4Sexy8Graphics8FillRectERKNS_5TRectIiEE
0050e6d0 T __ZN4Sexy8Graphics8DrawRectEiiii
0050e700 T __ZN4Sexy8Graphics8DrawRectERKNS_5TRectIiEE
0050e740 T __ZN4Sexy8Graphics8PFDeleteEi
0050e7b0 T __ZN4Sexy8Graphics8PFInsertEii
0050e870 T __ZN4Sexy8Graphics8PolyFillEPKNS_6TPointIiEEib
0050ee10 T __ZN4Sexy8Graphics10PolyFillAAEPKNS_6TPointIiEEib
0050f910 T __ZN4Sexy8Graphics18DrawLineClipHelperEPdS1_S1_S1_
0050fad0 T __ZN4Sexy8Graphics8DrawLineEiiii
0050fb70 T __ZN4Sexy8Graphics10DrawLineAAEiiii
0050fc10 T __ZN4Sexy8Graphics10DrawStringERKNSt7__cxx1112basic_stringIcSt11char_traitsIcESaIcEEEii
0050fc70 T __ZN4Sexy8Graphics9DrawImageEPNS_5ImageEiiRKNS_5TRectIiEE
0050ff10 T __ZN4Sexy8Graphics9DrawImageEPNS_5ImageEii
005100d0 T __ZN4Sexy8Graphics15DrawImageMirrorEPNS_5ImageEiiRKNS_5TRectIiEEb
005102b0 T __ZN4Sexy8Graphics15DrawImageMirrorEPNS_5ImageEiib
00510310 T __ZN4Sexy8Graphics9DrawImageEPNS_5ImageEiiii
005103e0 T __ZN4Sexy8Graphics9DrawImageEPNS_5ImageERKNS_5TRectIiEES6_
00510490 T __ZN4Sexy8Graphics15DrawImageMirrorEPNS_5ImageERKNS_5TRectIiEES6_b
00510570 T __ZN4Sexy8Graphics10DrawImageFEPNS_5ImageEff
00510600 T __ZN4Sexy8Graphics10DrawImageFEPNS_5ImageEffRKNS_5TRectIiEE
00510670 T __ZN4Sexy8Graphics17DrawImageRotatedFEPNS_5ImageEffdffPKNS_5TRectIiEE
00510790 T __ZN4Sexy8Graphics16DrawImageRotatedEPNS_5ImageEiidPKNS_5TRectIiEE
00510890 T __ZN4Sexy8Graphics17DrawImageRotatedFEPNS_5ImageEffdPKNS_5TRectIiEE
00510970 T __ZN4Sexy8Graphics16DrawImageRotatedEPNS_5ImageEiidiiPKNS_5TRectIiEE
005109a0 T __ZN4Sexy8Graphics15DrawImageMatrixEPNS_5ImageERKNS_11SexyMatrix3Eff
00510a40 T __ZN4Sexy8Graphics15DrawImageMatrixEPNS_5ImageERKNS_11SexyMatrix3ERKNS_5TRectIiEEff
00510ac0 T __ZN4Sexy8Graphics24DrawImageTransformHelperEPNS_5ImageERKNS_9TransformERKNS_5TRectIiEEffb
00510e90 T __ZN4Sexy8Graphics18DrawImageTransformEPNS_5ImageERKNS_9TransformEff
00510ef0 T __ZN4Sexy8Graphics19DrawImageTransformFEPNS_5ImageERKNS_9TransformEff
00510f50 T __ZN4Sexy8Graphics18DrawImageTransformEPNS_5ImageERKNS_9TransformERKNS_5TRectIiEEff
00510f90 T __ZN4Sexy8Graphics19DrawImageTransformFEPNS_5ImageERKNS_9TransformERKNS_5TRectIiEEff
00510fd0 T __ZN4Sexy8Graphics15DrawTriangleTexEPNS_5ImageERKNS_9TriVertexES5_S5_
005110c0 T __ZN4Sexy8Graphics16DrawTrianglesTexEPNS_5ImageEPA3_KNS_9TriVertexEi
00511130 T __ZN4Sexy8Graphics13ClearClipRectEv
00511170 T __ZN4Sexy8Graphics11SetClipRectEiiii
00511220 T __ZN4Sexy8Graphics11SetClipRectERKNS_5TRectIiEE
00511250 T __ZN4Sexy8Graphics8ClipRectEiiii
005112f0 T __ZN4Sexy8Graphics8ClipRectERKNS_5TRectIiEE
00511320 T __ZN4Sexy8Graphics9TranslateEii
00511340 T __ZN4Sexy8Graphics10TranslateFEff
00511360 T __ZN4Sexy8Graphics8SetScaleEffff
00511390 T __ZN4Sexy8Graphics11StringWidthERKNSt7__cxx1112basic_stringIcSt11char_traitsIcESaIcEEE
005113a0 T __ZN4Sexy8Graphics12DrawImageCelEPNS_5ImageEiii
00511430 T __ZN4Sexy8Graphics12DrawImageCelEPNS_5ImageERKNS_5TRectIiEEi
005114b0 T __ZN4Sexy8Graphics12DrawImageCelEPNS_5ImageEiiii
00511550 T __ZN4Sexy8Graphics13DrawImageAnimEPNS_5ImageEiii
005115a0 T __ZN4Sexy8Graphics12DrawImageCelEPNS_5ImageERKNS_5TRectIiEEii
00511630 T __ZN4Sexy8Graphics11WriteStringERKNSt7__cxx1112basic_stringIcSt11char_traitsIcESaIcEEEiiiibiii
00511af0 T __ZN4Sexy8Graphics16WriteWordWrappedERKNS_5TRectIiEERKNSt7__cxx1112basic_stringIcSt11char_traitsIcESaIcEEEiiPiiSD_
00511ff0 T __ZN4Sexy8Graphics15DrawStringColorERKNSt7__cxx1112basic_stringIcSt11char_traitsIcESaIcEEEiii
00512050 T __ZN4Sexy8Graphics21DrawStringWordWrappedERKNSt7__cxx1112basic_stringIcSt11char_traitsIcESaIcEEEiiiiiPi
005120e0 T __ZN4Sexy8GraphicsC1EPNS_5ImageE
005120e0 T __ZN4Sexy8GraphicsC2EPNS_5ImageE
005121c0 T __ZN4Sexy8Graphics12DrawImageBoxERKNS_5TRectIiEES4_PNS_5ImageE
00512b30 T __ZN4Sexy8Graphics12DrawImageBoxERKNS_5TRectIiEEPNS_5ImageE
00512b80 T __ZN4Sexy8Graphics20GetWordWrappedHeightEiRKNSt7__cxx1112basic_stringIcSt11char_traitsIcESaIcEEEiPi
00512ce0 t ___tcf_ZN4Sexy13GraphicsState12mStaticImageE
00512d00 t .text
00512d00 t __ZNSt7__cxx1112basic_stringIcSt11char_traitsIcESaIcEE12_M_constructIPKcEEvT_S8_St20forward_iterator_tag.isra.0
00512dc0 T __ZN4Sexy12HTTPTransferD1Ev
00512dc0 T __ZN4Sexy12HTTPTransferD2Ev
00512f10 T __ZN4Sexy12HTTPTransferD0Ev
00512f30 T __ZN4Sexy12HTTPTransferC1Ev
00512f30 T __ZN4Sexy12HTTPTransferC2Ev
00513020 T __ZN4Sexy12HTTPTransfer9GetAbsURLERKNSt7__cxx1112basic_stringIcSt11char_traitsIcESaIcEEES8_
00513740 T __ZN4Sexy12HTTPTransfer4FailEi
00513760 T __ZN4Sexy12HTTPTransfer10SocketWaitEbb
005138e0 T __ZN4Sexy12HTTPTransfer13GetThreadProcEv
005148b0 T __ZN4Sexy12HTTPTransfer17GetThreadProcStubEPv
005148c0 T __ZN4Sexy12HTTPTransfer13StartTransferEv
00514910 T __ZN4Sexy12HTTPTransfer5AbortEv
00514920 T __ZN4Sexy12HTTPTransfer12UpdateStatusEv
00514bf0 T __ZN4Sexy12HTTPTransfer5ResetEv
00514cd0 T __ZN4Sexy12HTTPTransfer15PrepareTransferERKNSt7__cxx1112basic_stringIcSt11char_traitsIcESaIcEEE
00515450 T __ZN4Sexy12HTTPTransfer17SendRequestStringERKNSt7__cxx1112basic_stringIcSt11char_traitsIcESaIcEEES8_
005154e0 T __ZN4Sexy12HTTPTransfer9GetHelperERKNSt7__cxx1112basic_stringIcSt11char_traitsIcESaIcEEE
00515ae0 T __ZN4Sexy12HTTPTransfer3GetERKNSt7__cxx1112basic_stringIcSt11char_traitsIcESaIcEEE
00515b40 T __ZN4Sexy12HTTPTransfer3GetERKNSt7__cxx1112basic_stringIcSt11char_traitsIcESaIcEEES8_
00515bc0 T __ZN4Sexy12HTTPTransfer10PostHelperERKNSt7__cxx1112basic_stringIcSt11char_traitsIcESaIcEEES8_
005168b0 T __ZN4Sexy12HTTPTransfer4PostERKNSt7__cxx1112basic_stringIcSt11char_traitsIcESaIcEEES8_
00516910 T __ZN4Sexy12HTTPTransfer4PostERKNSt7__cxx1112basic_stringIcSt11char_traitsIcESaIcEEES8_S8_
005169a0 T __ZN4Sexy12HTTPTransfer7WaitForEv
005169e0 T __ZN4Sexy12HTTPTransfer13GetResultCodeEv
00516a00 T __ZN4Sexy12HTTPTransfer10GetContentB5cxx11Ev
00516ae0 t .text
00516ae0 T __ZN4Sexy15HyperlinkWidget4DrawEPNS_8GraphicsE
00516d00 T __ZN4Sexy15HyperlinkWidgetC1EiPNS_14ButtonListenerE
00516d00 T __ZN4Sexy15HyperlinkWidgetC2EiPNS_14ButtonListenerE
00516da0 T __ZN4Sexy15HyperlinkWidget10MouseEnterEv
00516dc0 T __ZN4Sexy15HyperlinkWidget10MouseLeaveEv
00516e00 t .text
00516e00 T __ZN4Sexy5Image8FillRectERKNS_5TRectIiEERKNS_5ColorEi
00516e10 T __ZN4Sexy5Image9ClearRectERKNS_5TRectIiEE
00516e20 T __ZN4Sexy5Image10DrawLineAAEddddRKNS_5ColorEi
00516e20 T __ZN4Sexy5Image8DrawLineEddddRKNS_5ColorEi
00516e30 T __ZN4Sexy5Image25FillScanLinesWithCoverageEPNS_4SpanEiRKNS_5ColorEiPKhiiii
00516e40 T __ZN4Sexy5Image10PolyFill3DEPKNS_6TPointIiEEiPKNS_5TRectIiEERKNS_5ColorEiiib
00516e50 T __ZN4Sexy5Image3BltEPS0_iiRKNS_5TRectIiEERKNS_5ColorEi
00516e50 T __ZN4Sexy5Image9BltMirrorEPS0_iiRKNS_5TRectIiEERKNS_5ColorEi
00516e60 T __ZN4Sexy5Image4BltFEPS0_ffRKNS_5TRectIiEES5_RKNS_5ColorEi
00516e70 T __ZN4Sexy5Image10BltRotatedEPS0_ffRKNS_5TRectIiEES5_RKNS_5ColorEidff
00516e80 T __ZN4Sexy5Image10StretchBltEPS0_RKNS_5TRectIiEES5_S5_RKNS_5ColorEib
00516e80 T __ZN4Sexy5Image16StretchBltMirrorEPS0_RKNS_5TRectIiEES5_S5_RKNS_5ColorEib
00516e90 T __ZN4Sexy5Image9BltMatrixEPS0_ffRKNS_11SexyMatrix3ERKNS_5TRectIiEERKNS_5ColorEiS8_b
00516ea0 T __ZN4Sexy5Image15BltTrianglesTexEPS0_PA3_KNS_9TriVertexEiRKNS_5TRectIiEERKNS_5ColorEiffb
00516eb0 T __ZN4Sexy5Image13FillScanLinesEPNS_4SpanEiRKNS_5ColorEi
00516f70 T __ZN4Sexy5Image8DrawRectERKNS_5TRectIiEERKNS_5ColorEi
005170d0 T __ZN4Sexy5ImageD1Ev
005170d0 T __ZN4Sexy5ImageD2Ev
00517150 T __ZN4Sexy5ImageD0Ev
00517170 T __ZN4Sexy5ImageC1Ev
00517170 T __ZN4Sexy5ImageC2Ev
005171b0 T __ZN4Sexy5ImageC1ERKS0_
005171b0 T __ZN4Sexy5ImageC2ERKS0_
00517340 T __ZN4Sexy5Image8GetWidthEv
00517350 T __ZN4Sexy5Image9GetHeightEv
00517360 T __ZN4Sexy5Image12GetCelHeightEv
00517370 T __ZN4Sexy5Image11GetCelWidthEv
00517380 T __ZN4Sexy5Image10GetCelRectEi
005173c0 T __ZN4Sexy5Image10GetCelRectEii
00517400 T __ZN4Sexy8AnimInfoC1Ev
00517400 T __ZN4Sexy8AnimInfoC2Ev
00517440 T __ZN4Sexy8AnimInfo14GetPerFrameCelEi
00517480 T __ZN4Sexy8AnimInfo6GetCelEi
00517510 T __ZN4Sexy5Image10GetAnimCelEi
00517530 T __ZN4Sexy5Image14GetAnimCelRectEi
005175c0 T __ZN4Sexy5Image14CopyAttributesEPS0_
00517760 T __ZN4Sexy5Image11GetGraphicsEv
005177a0 T __ZN4Sexy8AnimInfo16SetPerFrameDelayEii
00517810 T __ZN4Sexy8AnimInfo7ComputeEiii
00517a40 t .text
00517a40 T __ZN4Sexy9ImageFont12SetPointSizeEi
00517a50 T __ZN4Sexy9ImageFont8SetScaleEd
00517a60 T __ZN4Sexy9ImageFont12GetPointSizeEv
00517a70 T __ZN4Sexy9ImageFont19GetDefaultPointSizeEv
00517a80 t ___tcfgRenderCritSec
00517a90 T __ZN4Sexy9ImageFont7PrepareEv
00517ac0 t __ZNSt12_Vector_baseIiSaIiEED2Ev.isra.0
00517af0 t __ZNSt7__cxx1112basic_stringIcSt11char_traitsIcESaIcEEC2EPKcRKS3_.isra.0
00517bb0 T __ZN4Sexy15ListDataElementD1Ev
00517bb0 T __ZN4Sexy15ListDataElementD2Ev
00517c10 T __ZN4Sexy15ListDataElementD0Ev
00517c30 T __ZN4Sexy9ImageFont6HasTagERKNSt7__cxx1112basic_stringIcSt11char_traitsIcESaIcEEE
00517e20 T __ZN4Sexy9ImageFont13CharWidthKernEcc
00517fe0 T __ZN4Sexy9ImageFont9CharWidthEc
00518020 T __ZN4Sexy9ImageFont11StringWidthERKNSt7__cxx1112basic_stringIcSt11char_traitsIcESaIcEEE
005180a0 T __ZN4Sexy15ActiveFontLayerD1Ev
005180a0 T __ZN4Sexy15ActiveFontLayerD2Ev
005180d0 T __ZN4Sexy15ActiveFontLayerD0Ev
00518110 T __ZN4Sexy9ImageFont12DrawStringExEPNS_8GraphicsEiiRKNSt7__cxx1112basic_stringIcSt11char_traitsIcESaIcEEERKNS_5ColorEPKNS_5TRectIiEEPNS3_4listISF_SaISF_EEEPi
00518750 T __ZN4Sexy9ImageFont10DrawStringEPNS_8GraphicsEiiRKNSt7__cxx1112basic_stringIcSt11char_traitsIcESaIcEEERKNS_5ColorERKNS_5TRectIiEE
005187f0 t __ZNSt8_Rb_treeINSt7__cxx1112basic_stringIcSt11char_traitsIcESaIcEEESt4pairIKS5_PN4Sexy11DataElementEESt10_Select1stISB_ESt4lessIS5_ESaISB_EE4findERS7_.isra.0
005188b0 T __ZN4Sexy17SingleDataElementD1Ev
005188b0 T __ZN4Sexy17SingleDataElementD2Ev
005188e0 T __ZN4Sexy17SingleDataElementD0Ev
00518920 T __ZN4Sexy9ImageFont9GetDefineERKNSt7__cxx1112basic_stringIcSt11char_traitsIcESaIcEEE
00518980 T __ZN4Sexy9ImageFont9RemoveTagERKNSt7__cxx1112basic_stringIcSt11char_traitsIcESaIcEEE
00518b20 t __ZNSt8_Rb_treeINSt7__cxx1112basic_stringIcSt11char_traitsIcESaIcEEESt4pairIKS5_PN4Sexy9FontLayerEESt10_Select1stISB_ESt4lessIS5_ESaISB_EE8_M_eraseEPSt13_Rb_tree_nodeISB_E.isra.0
00518df0 T __ZN4Sexy8FontData5ErrorERKNSt7__cxx1112basic_stringIcSt11char_traitsIcESaIcEEE
00519170 T __ZN4Sexy17SingleDataElement9DuplicateEv
00519230 T __ZN4Sexy11DataElementC1Ev
00519230 T __ZN4Sexy11DataElementC2Ev
00519240 T __ZN4Sexy11DataElementD1Ev
00519240 T __ZN4Sexy11DataElementD2Ev
00519250 T __ZN4Sexy11DataElementD0Ev
00519270 T __ZN4Sexy17SingleDataElementC1Ev
00519270 T __ZN4Sexy17SingleDataElementC2Ev
00519290 T __ZN4Sexy17SingleDataElementC1ENSt7__cxx1112basic_stringIcSt11char_traitsIcESaIcEEE
00519290 T __ZN4Sexy17SingleDataElementC2ENSt7__cxx1112basic_stringIcSt11char_traitsIcESaIcEEE
00519350 T __ZN4Sexy15ListDataElementC1Ev
00519350 T __ZN4Sexy15ListDataElementC2Ev
00519370 T __ZN4Sexy8CharDataC1Ev
00519370 T __ZN4Sexy8CharDataC2Ev
005193e0 T __ZN4Sexy9FontLayer11GetCharDataEc
00519400 T __ZN4Sexy8FontDataC1Ev
00519400 T __ZN4Sexy8FontDataC2Ev
005194e0 T __ZN4Sexy8FontData3RefEv
005194f0 T __ZN4Sexy8FontData11DataToLayerEPNS_11DataElementEPPNS_9FontLayerE
005196c0 T __ZN4Sexy8FontData4LoadEPNS_11SexyAppBaseERKNSt7__cxx1112basic_stringIcSt11char_traitsIcESaIcEEE
005199b0 T __ZN4Sexy15ActiveFontLayerC1Ev
005199b0 T __ZN4Sexy15ActiveFontLayerC2Ev
005199f0 T __ZN4Sexy15ActiveFontLayerC1ERKS0_
005199f0 T __ZN4Sexy15ActiveFontLayerC2ERKS0_
00519ac0 T __ZN4Sexy9ImageFont13GetMappedCharEc
00519ad0 T __ZN4Sexy9FontLayerC1EPNS_8FontDataE
00519ad0 T __ZN4Sexy9FontLayerC2EPNS_8FontDataE
00519cc0 T __ZN4Sexy8FontData23GetColorFromDataElementEPNS_11DataElementERNS_5ColorE
00519e60 T __ZN4Sexy8FontDataD1Ev
00519e60 T __ZN4Sexy8FontDataD2Ev
0051a060 T __ZN4Sexy8FontDataD0Ev
0051a080 T __ZN4Sexy8FontData5DeRefEv
0051a0d0 t __ZNSt8_Rb_treeINSt7__cxx1112basic_stringIcSt11char_traitsIcESaIcEEESt4pairIKS5_PN4Sexy11DataElementEESt10_Select1stISB_ESt4lessIS5_ESaISB_EE16_M_insert_uniqueISB_EES6_ISt17_Rb_tree_iteratorISB_EbEOT_.isra.0
0051a2f0 T __ZN4Sexy9FontLayerC1ERKS0_
0051a2f0 T __ZN4Sexy9FontLayerC2ERKS0_
0051a630 T __ZN4Sexy8FontData10LoadLegacyEPNS_5ImageERKNSt7__cxx1112basic_stringIcSt11char_traitsIcESaIcEEE
0051a9e0 T __ZN4Sexy9ImageFontD1Ev
0051a9e0 T __ZN4Sexy9ImageFontD2Ev
0051aa90 T __ZN4Sexy9ImageFontC1EPNS_5ImageE
0051aa90 T __ZN4Sexy9ImageFontC2EPNS_5ImageE
0051adb0 T __ZN4Sexy9ImageFontC1ERKS0_
0051adb0 T __ZN4Sexy9ImageFontC2ERKS0_
0051b020 T __ZN4Sexy9ImageFont9DuplicateEv
0051b060 T __ZN4Sexy9ImageFontD0Ev
0051b120 T __ZN4Sexy9ImageFont6AddTagERKNSt7__cxx1112basic_stringIcSt11char_traitsIcESaIcEEE
0051b200 T __ZN4Sexy15ListDataElementC1ERKS0_
0051b200 T __ZN4Sexy15ListDataElementC2ERKS0_
0051b2b0 T __ZN4Sexy15ListDataElement9DuplicateEv
0051b2f0 T __ZN4Sexy15ListDataElementaSERKS0_
0051b3b0 T __ZN4Sexy8FontData13HandleCommandERKNS_15ListDataElementE
0051e8e0 T __ZN4Sexy9ImageFont24GenerateActiveFontLayersEv
0051f4e0 T __ZN4Sexy9ImageFontC1EPNS_11SexyAppBaseERKNSt7__cxx1112basic_stringIcSt11char_traitsIcESaIcEEE
0051f4e0 T __ZN4Sexy9ImageFontC2EPNS_11SexyAppBaseERKNSt7__cxx1112basic_stringIcSt11char_traitsIcESaIcEEE
0051f650 T __ZN4Sexy9ImageFontC1EPNS_5ImageERKNSt7__cxx1112basic_stringIcSt11char_traitsIcESaIcEEE
0051f650 T __ZN4Sexy9ImageFontC2EPNS_5ImageERKNSt7__cxx1112basic_stringIcSt11char_traitsIcESaIcEEE
0051f7c0 t .text
0051f7c0 T __ZN4Sexy6InsetsC1Ev
0051f7c0 T __ZN4Sexy6InsetsC2Ev
0051f7e0 T __ZN4Sexy6InsetsC1Eiiii
0051f7e0 T __ZN4Sexy6InsetsC2Eiiii
0051f800 T __ZN4Sexy6InsetsC1ERKS0_
0051f800 T __ZN4Sexy6InsetsC2ERKS0_
0051f840 t .text
0051f840 T __ZN4Sexy18GetKeyCodeFromNameERKNSt7__cxx1112basic_stringIcSt11char_traitsIcESaIcEEE
0051f8e0 T __ZN4Sexy18GetKeyNameFromCodeB5cxx11ERKNS_7KeyCodeE
0051fac0 t .text
0051fac0 T __ZN4Sexy10ListWidget14ScrollPositionEid
0051fb10 T __ZThn128_N4Sexy10ListWidget14ScrollPositionEid
0051fb20 T __ZN4Sexy10ListWidget9SetSelectEi
0051fb60 T __ZN4Sexy10ListWidget10MouseWheelEi
0051fbd0 T __ZN4Sexy10ListWidget12GetLineCountEv
0051fbf0 T __ZN4Sexy10ListWidget16GetOptimalHeightEv
0051fc40 T __ZN4Sexy10ListWidget15GetOptimalWidthEv
0051fcc0 T __ZN4Sexy10ListWidget7SetLineEiRKNSt7__cxx1112basic_stringIcSt11char_traitsIcESaIcEEE
0051fd00 T __ZN4Sexy10ListWidget10GetLineIdxERKNSt7__cxx1112basic_stringIcSt11char_traitsIcESaIcEEE
0051fd70 T __ZN4Sexy10ListWidget12SetLineColorEiRKNS_5ColorE
0051fdf0 T __ZN4Sexy10ListWidget9MouseDownEiiii
0051fe50 t __ZNSt7__cxx1112basic_stringIcSt11char_traitsIcESaIcEE12_M_constructIPKcEEvT_S8_St20forward_iterator_tag.isra.0
0051ff10 T __ZN4Sexy10ListWidget9RemoveAllEv
00520000 T __ZN4Sexy10ListWidget10MouseLeaveEv
005200a0 T __ZN4Sexy10ListWidget8SetColorERKNSt7__cxx1112basic_stringIcSt11char_traitsIcESaIcEEERKNS_5ColorE
00520190 T __ZN4Sexy10ListWidgetD1Ev
00520190 T __ZN4Sexy10ListWidgetD2Ev
00520230 T __ZN4Sexy10ListWidgetD0Ev
005202e0 T __ZN4Sexy10ListWidget9MouseMoveEii
00520440 T __ZN4Sexy10ListWidget10RemoveLineEi
00520640 T __ZN4Sexy10ListWidget11GetStringAtB5cxx11Ei
00520710 T __ZN4Sexy10ListWidget9SetHiliteEib
00520780 T __ZN4Sexy10ListWidgetC1EiPNS_4FontEPNS_12ListListenerE
00520780 T __ZN4Sexy10ListWidgetC2EiPNS_4FontEPNS_12ListListenerE
005208d0 T __ZN4Sexy10ListWidget10GetSortKeyB5cxx11Ei
00520e00 T __ZN4Sexy10ListWidget7AddLineERKNSt7__cxx1112basic_stringIcSt11char_traitsIcESaIcEEEb
005216f0 T __ZN4Sexy10ListWidget4SortEb
00522110 T __ZN4Sexy10ListWidget18RemovedFromManagerEPNS_13WidgetManagerE
00522160 T __ZN4Sexy10ListWidget6ResizeEiiii
00522200 T __ZN4Sexy10ListWidget8SetColorEiRKNS_5ColorE
00522210 T __ZN4Sexy10ListWidget21OrderInManagerChangedEv
00522270 T __ZN4Sexy10ListWidget4DrawEPNS_8GraphicsE
00522780 t .text
00522780 T __ZN4Sexy6MTRandC1ERKNSt7__cxx1112basic_stringIcSt11char_traitsIcESaIcEEE
00522780 T __ZN4Sexy6MTRandC2ERKNSt7__cxx1112basic_stringIcSt11char_traitsIcESaIcEEE
00522830 T __ZN4Sexy6MTRandC1Em
00522830 T __ZN4Sexy6MTRandC2Em
00522890 T __ZN4Sexy6MTRandC1Ev
00522890 T __ZN4Sexy6MTRandC2Ev
005228f0 T __ZN4Sexy6MTRand14SetRandAllowedEb
00522920 T __ZN4Sexy6MTRand5SRandERKNSt7__cxx1112basic_stringIcSt11char_traitsIcESaIcEEE
005229d0 T __ZN4Sexy6MTRand5SRandEm
00522a30 T __ZN4Sexy6MTRand12NextNoAssertEv
00522b70 T __ZN4Sexy6MTRand4NextEv
00522b80 T __ZN4Sexy6MTRand12NextNoAssertEm
00522b90 T __ZN4Sexy6MTRand4NextEm
00522ba0 T __ZN4Sexy6MTRand12NextNoAssertEf
00522bd0 T __ZN4Sexy6MTRand4NextEf
00522c00 T __ZN4Sexy6MTRand9SerializeB5cxx11Ev
00522c80 t .text
00522c80 T __ZN4Sexy11MemoryImage12SetImageModeEbb
00522ca0 T __ZN4Sexy11MemoryImage11SetVolatileEb
00522cb0 T __ZN4Sexy11MemoryImage11BitsChangedEv
00522d10 T __ZN4Sexy11MemoryImage5ClearEv
00522d70 T __ZN4Sexy11MemoryImage9ClearRectERKNS_5TRectIiEE
00522e20 T __ZN4Sexy11MemoryImage15DeleteSWBuffersEv
00522e90 T __ZN4Sexy11MemoryImage16DeleteNativeDataEv
00522ef0 T __ZN4Sexy11MemoryImage6CreateEii
00522f50 T __ZN4Sexy11MemoryImageD1Ev
00522f50 T __ZN4Sexy11MemoryImageD2Ev
00522fd0 T __ZN4Sexy11MemoryImageD0Ev
00522ff0 T __ZN4Sexy11MemoryImage8FillRectERKNS_5TRectIiEERKNS_5ColorEi
005231f0 T __ZN4Sexy11MemoryImage25FillScanLinesWithCoverageEPNS_4SpanEiRKNS_5ColorEiPKhiiii
005233a0 T __ZN4Sexy11MemoryImage15Delete3DBuffersEv
005233c0 T __ZN4Sexy11MemoryImage7GetBitsEv
005235f0 t __ZN4Sexy11MemoryImage10CommitBitsEv.part.0
005236b0 T __ZN4Sexy11MemoryImage10CommitBitsEv
005236d0 T __ZN4Sexy11MemoryImage6ReInitEv
00523720 T __ZN4Sexy11MemoryImage18DeleteExtraBuffersEv
00523760 T __ZN4Sexy11MemoryImage9PalletizeEv
005238a0 t __ZN4Sexy11MemoryImage18GetNativeAlphaDataEPNS_13NativeDisplayE.part.0
00523b10 T __ZN4Sexy11MemoryImage18GetNativeAlphaDataEPNS_13NativeDisplayE
00523b30 T __ZN4Sexy11MemoryImage9PurgeBitsEv
00523c00 T __ZN4Sexy11MemoryImage14GetRLAlphaDataEv
00523f50 T __ZN4Sexy11MemoryImage7SetBitsEPmiib
00524080 T __ZN4Sexy11MemoryImage17GetRLAdditiveDataEPNS_13NativeDisplayE
00524410 T __ZN4Sexy11MemoryImageC1Ev
00524410 T __ZN4Sexy11MemoryImageC2Ev
005244a0 T __ZN4Sexy11MemoryImageC1EPNS_11SexyAppBaseE
005244a0 T __ZN4Sexy11MemoryImageC2EPNS_11SexyAppBaseE
00524530 T __ZN4Sexy11MemoryImageC1ERKS0_
00524530 T __ZN4Sexy11MemoryImageC2ERKS0_
00524840 T __ZN4Sexy11MemoryImage4InitEv
005248b0 T __ZN4Sexy11MemoryImage14NormalDrawLineEddddRKNS_5ColorE
00525440 T __ZN4Sexy11MemoryImage16AdditiveDrawLineEddddRKNS_5ColorE
00525af0 T __ZN4Sexy11MemoryImage8DrawLineEddddRKNS_5ColorEi
00525d30 T __ZN4Sexy11MemoryImage16NormalDrawLineAAEddddRKNS_5ColorE
005269f0 T __ZN4Sexy11MemoryImage10DrawLineAAEddddRKNS_5ColorEi
00526be0 T __ZN4Sexy11MemoryImage18AdditiveDrawLineAAEddddRKNS_5ColorE
00526bf0 T __ZN4Sexy11MemoryImage11AdditiveBltEPNS_5ImageEiiRKNS_5TRectIiEERKNS_5ColorE
00527780 T __ZN4Sexy11MemoryImage9NormalBltEPNS_5ImageEiiRKNS_5TRectIiEERKNS_5ColorE
00528880 T __ZN4Sexy11MemoryImage3BltEPNS_5ImageEiiRKNS_5TRectIiEERKNS_5ColorEi
00528910 T __ZN4Sexy11MemoryImage20BltRotatedClipHelperERfS1_RKNS_5TRectIiEES5_dRNS2_IdEEff
00528af0 T __ZN4Sexy11MemoryImage10BltRotatedEPNS_5ImageEffRKNS_5TRectIiEES6_RKNS_5ColorEidff
0052c190 T __ZN4Sexy11MemoryImage4BltFEPNS_5ImageEffRKNS_5TRectIiEES6_RKNS_5ColorEi
0052c240 T __ZN4Sexy11MemoryImage20StretchBltClipHelperERKNS_5TRectIiEES4_S4_RNS1_IdEERS2_
0052c340 T __ZN4Sexy11MemoryImage26StretchBltMirrorClipHelperERKNS_5TRectIiEES4_S4_RNS1_IdEERS2_
0052c450 T __ZN4Sexy11MemoryImage14SlowStretchBltEPNS_5ImageERKNS_5TRectIiEERKNS3_IdEERKNS_5ColorEi
0052db10 T __ZN4Sexy11MemoryImage14FastStretchBltEPNS_5ImageERKNS_5TRectIiEERKNS3_IdEERKNS_5ColorEi
0052ddb0 T __ZN4Sexy11MemoryImage10StretchBltEPNS_5ImageERKNS_5TRectIiEES6_S6_RKNS_5ColorEib
0052de60 T __ZN4Sexy11MemoryImage15BltMatrixHelperEPNS_5ImageEffRKNS_11SexyMatrix3ERKNS_5TRectIiEERKNS_5ColorEiS9_Pviib
0052e0b0 T __ZN4Sexy11MemoryImage9BltMatrixEPNS_5ImageEffRKNS_11SexyMatrix3ERKNS_5TRectIiEERKNS_5ColorEiS9_b
0052e190 T __ZN4Sexy11MemoryImage21BltTrianglesTexHelperEPNS_5ImageEPA3_KNS_9TriVertexEiRKNS_5TRectIiEERKNS_5ColorEiPviiffb
0052e350 T __ZN4Sexy11MemoryImage15BltTrianglesTexEPNS_5ImageEPA3_KNS_9TriVertexEiRKNS_5TRectIiEERKNS_5ColorEiffb
0052e440 t .text
0052e440 t __ZL17ParseModValStringRNSt7__cxx1112basic_stringIcSt11char_traitsIcESaIcEEEPiS6_
0052e540 t __ZL13GetFileModMapv
0052e5d0 t __ZNSt8_Rb_treeIiSt4pairIKi10ModPointerESt10_Select1stIS3_ESt4lessIiESaIS3_EE24_M_get_insert_unique_posERS1_.isra.0
0052e680 t __ZNSt8_Rb_treeIiSt4pairIKi10ModPointerESt10_Select1stIS3_ESt4lessIiESaIS3_EE8_M_eraseEPSt13_Rb_tree_nodeIS3_E.isra.0
0052e840 t __ZNSt8_Rb_treeINSt7__cxx1112basic_stringIcSt11char_traitsIcESaIcEEESt4pairIKS5_7FileModESt10_Select1stIS9_ESt4lessIS5_ESaIS9_EE8_M_eraseEPSt13_Rb_tree_nodeIS9_E.isra.0
0052e8d0 t ___tcf_ZZL13GetFileModMapvE4aMap
0052e8e0 t __ZNSt8_Rb_treeINSt7__cxx1112basic_stringIcSt11char_traitsIcESaIcEEESt4pairIKS5_iESt10_Select1stIS8_ESt4lessIS5_ESaIS8_EE24_M_get_insert_unique_posERS7_.isra.0
0052e9d0 t __ZNSt8_Rb_treeINSt7__cxx1112basic_stringIcSt11char_traitsIcESaIcEEESt4pairIKS5_7FileModESt10_Select1stIS9_ESt4lessIS5_ESaIS9_EE24_M_get_insert_unique_posERS7_.isra.0
0052eac0 t __ZNSt8_Rb_treeINSt7__cxx1112basic_stringIcSt11char_traitsIcESaIcEEESt4pairIKS5_iESt10_Select1stIS8_ESt4lessIS5_ESaIS8_EE8_M_eraseEPSt13_Rb_tree_nodeIS8_E.isra.0
0052ed90 t ___tcf_ZL15gStringToIntMap
0052edf0 t __ZNSt8_Rb_treeINSt7__cxx1112basic_stringIcSt11char_traitsIcESaIcEEESt4pairIKS5_7FileModESt10_Select1stIS9_ESt4lessIS5_ESaIS9_EE22_M_emplace_hint_uniqueIJRKSt21piecewise_construct_tSt5tupleIJRS7_EESK_IJEEEEESt17_Rb_tree_iteratorIS9_ESt23_Rb_tree_const_iteratorIS9_EDpOT_.isra.0
0052f190 t __ZL14CreateFileModsPKc.isra.0
0052f410 T __ZN4Sexy6ModValEiPKcS1_
0052f440 T __ZN4Sexy6ModValEiPKcf
0052f480 T __ZN4Sexy6ModValEiPKcd
0052f4c0 T __ZN4Sexy6ModValEiPKci
0052f500 t __ZL25FindModValsInMemoryHelperPKcm
0052fad0 T __ZN4Sexy13AddModValEnumERKNSt7__cxx1112basic_stringIcSt11char_traitsIcESaIcEEEi
0052fef0 T __ZN4Sexy16ReparseModValuesEv
00531e60 t .text
00531e60 T __ZN4Sexy14MusicInterfaceD1Ev
00531e60 T __ZN4Sexy14MusicInterfaceD2Ev
00531e70 T __ZN4Sexy14MusicInterface9LoadMusicEiRKNSt7__cxx1112basic_stringIcSt11char_traitsIcESaIcEEE
00531e80 T __ZN4Sexy14MusicInterface9PlayMusicEiib
00531e90 T __ZN4Sexy14MusicInterface10PauseMusicEi
00531e90 T __ZN4Sexy14MusicInterface11ResumeMusicEi
00531e90 T __ZN4Sexy14MusicInterface11UnloadMusicEi
00531e90 T __ZN4Sexy14MusicInterface9StopMusicEi
00531ea0 T __ZN4Sexy14MusicInterface12StopAllMusicEv
00531ea0 T __ZN4Sexy14MusicInterface13PauseAllMusicEv
00531ea0 T __ZN4Sexy14MusicInterface14ResumeAllMusicEv
00531ea0 T __ZN4Sexy14MusicInterface14UnloadAllMusicEv
00531ea0 T __ZN4Sexy14MusicInterface6UpdateEv
00531eb0 T __ZN4Sexy14MusicInterface6FadeInEiidb
00531ec0 T __ZN4Sexy14MusicInterface7FadeOutEibd
00531ed0 T __ZN4Sexy14MusicInterface10FadeOutAllEbd
00531ee0 T __ZN4Sexy14MusicInterface13SetSongVolumeEid
00531ee0 T __ZN4Sexy14MusicInterface15SetMusicAmplifyEid
00531ee0 T __ZN4Sexy14MusicInterface16SetSongMaxVolumeEid
00531ef0 T __ZN4Sexy14MusicInterface9IsPlayingEi
00531f00 T __ZN4Sexy14MusicInterface9SetVolumeEd
00531f10 T __ZN4Sexy14MusicInterfaceD0Ev
00531f30 T __ZN4Sexy14MusicInterfaceC1Ev
00531f30 T __ZN4Sexy14MusicInterfaceC2Ev
00531f40 t .text
00531f40 T __ZN4Sexy13NativeDisplayD1Ev
00531f40 T __ZN4Sexy13NativeDisplayD2Ev
00531f50 T __ZN4Sexy13NativeDisplayD0Ev
00531f70 T __ZN4Sexy13NativeDisplayC1Ev
00531f70 T __ZN4Sexy13NativeDisplayC2Ev
00531fc0 t .text
00531fc0 t __ZL18CollatePerfRecordsv
00532250 t ___tcfgPerfRecordVector
00532280 t __ZNSt8_Rb_treeI8PerfInfoS0_St9_IdentityIS0_ESt4lessIS0_ESaIS0_EE8_M_eraseEPSt13_Rb_tree_nodeIS0_E.isra.0
00532440 t ___tcf_ZL12gPerfInfoSet
00532480 T __ZN4Sexy9PerfTimerC1Ev
00532480 T __ZN4Sexy9PerfTimerC2Ev
005324a0 T __ZN4Sexy9PerfTimer12CalcDurationEv
00532520 T __ZN4Sexy9PerfTimer5StartEv
00532540 T __ZN4Sexy9PerfTimer4StopEv
005325d0 T __ZN4Sexy9PerfTimer11GetDurationEv
00532650 T __ZN4Sexy9PerfTimer11GetCPUSpeedEv
00532850 T __ZN4Sexy9PerfTimer14GetCPUSpeedMHzEv
00532880 T __ZN4Sexy8SexyPerf8IsPerfOnEv
00532890 T __ZN4Sexy8SexyPerf9BeginPerfEb
00532940 T __ZN4Sexy8SexyPerf7EndPerfEv
005329f0 T __ZN4Sexy8SexyPerf10GetResultsB5cxx11Ev
00532b10 T __ZN4Sexy8SexyPerf10StopTimingEPKc
00532c10 T __ZN4Sexy8SexyPerf11StartTimingEPKc
00532d00 t .text
00532d00 T __ZN4Sexy16PropertiesParserD1Ev
00532d00 T __ZN4Sexy16PropertiesParserD2Ev
00532d30 t __ZNSt8_Rb_treeINSt7__cxx1112basic_stringIcSt11char_traitsIcESaIcEEESt4pairIKS5_S5_ESt10_Select1stIS8_ESt4lessIS5_ESaIS8_EE24_M_get_insert_unique_posERS7_.isra.0
00532e20 T __ZN4Sexy16PropertiesParserD0Ev
00532e60 t __ZNSt8_Rb_treeINSt7__cxx1112basic_stringIcSt11char_traitsIcESaIcEEESt4pairIKS5_S5_ESt10_Select1stIS8_ESt4lessIS5_ESaIS8_EE22_M_emplace_hint_uniqueIJRKSt21piecewise_construct_tSt5tupleIJOS5_EESJ_IJEEEEESt17_Rb_tree_iteratorIS8_ESt23_Rb_tree_const_iteratorIS8_EDpOT_.isra.0
005332a0 t __ZNSt8_Rb_treeINSt7__cxx1112basic_stringIcSt11char_traitsIcESaIcEEESt4pairIKS5_S5_ESt10_Select1stIS8_ESt4lessIS5_ESaIS8_EE8_M_eraseEPSt13_Rb_tree_nodeIS8_E.isra.0
00533680 T __ZN4Sexy16PropertiesParserC1EPNS_11SexyAppBaseE
00533680 T __ZN4Sexy16PropertiesParserC2EPNS_11SexyAppBaseE
005336b0 T __ZN4Sexy16PropertiesParser4FailERKNSt7__cxx1112basic_stringIcSt11char_traitsIcESaIcEEE
00533850 T __ZN4Sexy16PropertiesParser18ParseSingleElementEPNSt7__cxx1112basic_stringIcSt11char_traitsIcESaIcEEE
00533d30 T __ZN4Sexy16PropertiesParser12GetErrorTextB5cxx11Ev
00533df0 T __ZN4Sexy16PropertiesParser16ParseStringArrayEPSt6vectorINSt7__cxx1112basic_stringIcSt11char_traitsIcESaIcEEESaIS7_EE
00534630 T __ZN4Sexy16PropertiesParser15ParsePropertiesEv
00536460 T __ZN4Sexy16PropertiesParser17DoParsePropertiesEv
00536c90 T __ZN4Sexy16PropertiesParser21ParsePropertiesBufferERKNS_6BufferE
00536d10 T __ZN4Sexy16PropertiesParser19ParsePropertiesFileERKNSt7__cxx1112basic_stringIcSt11char_traitsIcESaIcEEE
00536d60 t .text
00536d60 T __ZN4Sexy12Quantize8BitEPKmiiPhPm
00536f00 t .text
00536f00 T __ZN4Sexy5RatioC1Ev
00536f00 T __ZN4Sexy5RatioC2Ev
00536f10 T __ZN4Sexy5RatioC1Eii
00536f10 T __ZN4Sexy5RatioC2Eii
00536f80 T __ZN4Sexy5Ratio3SetEii
00536ff0 t .text
00536ff0 T __ZN4Sexy15ResourceManager8SoundRes14DeleteResourceEv
00537020 T __ZN4Sexy15ResourceManager7FontRes14DeleteResourceEv
00537060 T __ZN4Sexy15ResourceManager18ResourceLoadedHookEPNS0_7BaseResE
00537070 T __ZN4Sexy15ResourceManager8ImageRes14DeleteResourceEv
00537080 T __ZN4Sexy15ResourceManager15DeleteResourcesERSt3mapINSt7__cxx1112basic_stringIcSt11char_traitsIcESaIcEEEPNS0_7BaseResESt4lessIS7_ESaISt4pairIKS7_S9_EEERSD_
00537110 T __ZN4Sexy15ResourceManager16LoadNextResourceEv
005371f0 t __ZL13ReadIntVectorRKNSt7__cxx1112basic_stringIcSt11char_traitsIcESaIcEEERSt6vectorIiSaIiEE
00537310 t __ZNSt7__cxx1112basic_stringIcSt11char_traitsIcESaIcEE12_M_constructIPKcEEvT_S8_St20forward_iterator_tag.isra.0
005373d0 t __ZN4Sexy15ResourceManager15GetNumResourcesERKNSt7__cxx1112basic_stringIcSt11char_traitsIcESaIcEEERSt3mapIS6_PNS0_7BaseResESt4lessIS6_ESaISt4pairIS7_SB_EEE.part.0
00537460 t __ZNSt8_Rb_treeINSt7__cxx1112basic_stringIcSt11char_traitsIcESaIcEEESt4pairIKS5_NS0_4listIPN4Sexy15ResourceManager7BaseResESaISC_EEEESt10_Select1stISF_ENS9_16StringLessNoCaseESaISF_EE8_M_eraseEPSt13_Rb_tree_nodeISF_E.isra.0
005374f0 t __ZNSt8_Rb_treeINSt7__cxx1112basic_stringIcSt11char_traitsIcESaIcEEESt4pairIKS5_S5_ESt10_Select1stIS8_ESt4lessIS5_ESaIS8_EE8_M_eraseEPSt13_Rb_tree_nodeIS8_E.isra.0
00537570 t ___tcf_ZZN4Sexy15ResourceManager18GetImageAttributesERKNSt7__cxx1112basic_stringIcSt11char_traitsIcESaIcEEEE7aStrMap
005375e0 t __ZNSt8_Rb_treeINSt7__cxx1112basic_stringIcSt11char_traitsIcESaIcEEESt4pairIKS5_PN4Sexy15ResourceManager7BaseResEESt10_Select1stISC_ESt4lessIS5_ESaISC_EE4findERS7_.isra.0
005376a0 t __ZNSt8_Rb_treeINSt7__cxx1112basic_stringIcSt11char_traitsIcESaIcEEESt4pairIKS5_S5_ESt10_Select1stIS8_ESt4lessIS5_ESaIS8_EE4findERS7_.isra.0
00537760 t __ZNSt8_Rb_treeINSt7__cxx1112basic_stringIcSt11char_traitsIcESaIcEEESt4pairIKS5_S5_ESt10_Select1stIS8_ESt4lessIS5_ESaIS8_EE24_M_get_insert_unique_posERS7_.isra.0
00537850 t __ZNSt8_Rb_treeINSt7__cxx1112basic_stringIcSt11char_traitsIcESaIcEEESt4pairIKS5_PN4Sexy15ResourceManager7BaseResEESt10_Select1stISC_ESt4lessIS5_ESaISC_EE24_M_get_insert_unique_posERS7_.isra.0
00537940 t __ZNSt8_Rb_treeINSt7__cxx1112basic_stringIcSt11char_traitsIcESaIcEEES5_St9_IdentityIS5_EN4Sexy16StringLessNoCaseESaIS5_EE8_M_eraseEPSt13_Rb_tree_nodeIS5_E.isra.0
00537c10 t __ZNSt8_Rb_treeINSt7__cxx1112basic_stringIcSt11char_traitsIcESaIcEEESt4pairIKS5_PN4Sexy15ResourceManager7BaseResEESt10_Select1stISC_ESt4lessIS5_ESaISC_EE8_M_eraseEPSt13_Rb_tree_nodeISC_E.isra.0
00537ee0 T __ZN4Sexy15ResourceManager16ParseSetDefaultsERNS_10XMLElementE
00538260 t __ZNSt8_Rb_treeINSt7__cxx1112basic_stringIcSt11char_traitsIcESaIcEEESt4pairIKS5_S5_ESt10_Select1stIS8_ESt4lessIS5_ESaIS8_EE22_M_emplace_hint_uniqueIJRKSt21piecewise_construct_tSt5tupleIJOS5_EESJ_IJEEEEESt17_Rb_tree_iteratorIS8_ESt23_Rb_tree_const_iteratorIS8_EDpOT_.isra.0
005386a0 T __ZN4Sexy15ResourceManagerC1EPNS_11SexyAppBaseE
005386a0 T __ZN4Sexy15ResourceManagerC2EPNS_11SexyAppBaseE
005387f0 T __ZN4Sexy15ResourceManager13IsGroupLoadedERKNSt7__cxx1112basic_stringIcSt11char_traitsIcESaIcEEE
00538880 T __ZN4Sexy15ResourceManager9DeleteMapERSt3mapINSt7__cxx1112basic_stringIcSt11char_traitsIcESaIcEEEPNS0_7BaseResESt4lessIS7_ESaISt4pairIKS7_S9_EEE
00538930 T __ZN4Sexy15ResourceManagerD1Ev
00538930 T __ZN4Sexy15ResourceManagerD2Ev
00538b20 T __ZN4Sexy15ResourceManagerD0Ev
00538b40 T __ZN4Sexy15ResourceManager23DeleteExtraImageBuffersERKNSt7__cxx1112basic_stringIcSt11char_traitsIcESaIcEEE
00538bd0 T __ZN4Sexy15ResourceManager12GetErrorTextB5cxx11Ev
00538c90 T __ZN4Sexy15ResourceManager8HadErrorEv
00538ca0 T __ZN4Sexy15ResourceManager4FailERKNSt7__cxx1112basic_stringIcSt11char_traitsIcESaIcEEE
00539210 T __ZN4Sexy15ResourceManager11DoLoadSoundEPNS0_8SoundResE
005393f0 T __ZN4Sexy15ResourceManager10DoLoadFontEPNS0_7FontResE
00539a20 T __ZN4Sexy15ResourceManager14ParseResourcesEv
0053a590 T __ZN4Sexy15ResourceManager10LoadImageAERKNSt7__cxx1112basic_stringIcSt11char_traitsIcESaIcEEE
0053a630 T __ZN4Sexy15ResourceManager8LoadFontERKNSt7__cxx1112basic_stringIcSt11char_traitsIcESaIcEEE
0053a6b0 T __ZN4Sexy15ResourceManager10DeleteFontERKNSt7__cxx1112basic_stringIcSt11char_traitsIcESaIcEEE
0053a700 T __ZN4Sexy15ResourceManager15DumpCurResGroupERNSt7__cxx1112basic_stringIcSt11char_traitsIcESaIcEEE
0053ad70 T __ZN4Sexy15ResourceManager15GetNumResourcesERKNSt7__cxx1112basic_stringIcSt11char_traitsIcESaIcEEERSt3mapIS6_PNS0_7BaseResESt4lessIS6_ESaISt4pairIS7_SB_EEE
0053ada0 T __ZN4Sexy15ResourceManager12GetNumImagesERKNSt7__cxx1112basic_stringIcSt11char_traitsIcESaIcEEE
0053add0 T __ZN4Sexy15ResourceManager12GetNumSoundsERKNSt7__cxx1112basic_stringIcSt11char_traitsIcESaIcEEE
0053ae00 T __ZN4Sexy15ResourceManager11GetNumFontsERKNSt7__cxx1112basic_stringIcSt11char_traitsIcESaIcEEE
0053ae30 T __ZN4Sexy15ResourceManager15GetNumResourcesERKNSt7__cxx1112basic_stringIcSt11char_traitsIcESaIcEEE
0053ae90 T __ZN4Sexy15ResourceManager8GetImageERKNSt7__cxx1112basic_stringIcSt11char_traitsIcESaIcEEE
0053af00 T __ZN4Sexy15ResourceManager8GetSoundERKNSt7__cxx1112basic_stringIcSt11char_traitsIcESaIcEEE
0053af40 T __ZN4Sexy15ResourceManager7GetFontERKNSt7__cxx1112basic_stringIcSt11char_traitsIcESaIcEEE
0053af80 T __ZN4Sexy15ResourceManager28SetAllowMissingProgramImagesEb
0053af90 T __ZN4Sexy15ResourceManager12ReplaceImageERKNSt7__cxx1112basic_stringIcSt11char_traitsIcESaIcEEEPNS_5ImageE
0053aff0 T __ZN4Sexy15ResourceManager11DeleteImageERKNSt7__cxx1112basic_stringIcSt11char_traitsIcESaIcEEE
0053b010 T __ZN4Sexy15ResourceManager12ReplaceSoundERKNSt7__cxx1112basic_stringIcSt11char_traitsIcESaIcEEEi
0053b070 T __ZN4Sexy15ResourceManager11ReplaceFontERKNSt7__cxx1112basic_stringIcSt11char_traitsIcESaIcEEEPNS_4FontE
0053b0d0 T __ZN4Sexy15ResourceManager18GetImageAttributesERKNSt7__cxx1112basic_stringIcSt11char_traitsIcESaIcEEE
0053b190 T __ZN4Sexy15ResourceManager18LoadAlphaGridImageEPNS0_8ImageResEPNS_7DDImageE
0053b410 T __ZN4Sexy15ResourceManager14LoadAlphaImageEPNS0_8ImageResEPNS_7DDImageE
0053b580 T __ZN4Sexy15ResourceManager11DoLoadImageEPNS0_8ImageResE
0053b950 T __ZN4Sexy15ResourceManager13GetImageThrowERKNSt7__cxx1112basic_stringIcSt11char_traitsIcESaIcEEE
0053ba90 T __ZN4Sexy15ResourceManager13GetSoundThrowERKNSt7__cxx1112basic_stringIcSt11char_traitsIcESaIcEEE
0053bb80 T __ZN4Sexy15ResourceManager12GetFontThrowERKNSt7__cxx1112basic_stringIcSt11char_traitsIcESaIcEEE
0053bc70 T __ZN4Sexy15ResourceManager13LoadResourcesERKNSt7__cxx1112basic_stringIcSt11char_traitsIcESaIcEEE
0053bd00 T __ZN4Sexy15ResourceManager15DeleteResourcesERKNSt7__cxx1112basic_stringIcSt11char_traitsIcESaIcEEE
0053be60 t __ZNSt8_Rb_treeINSt7__cxx1112basic_stringIcSt11char_traitsIcESaIcEEESt4pairIKS5_NS0_4listIPN4Sexy15ResourceManager7BaseResESaISC_EEEESt10_Select1stISF_ENS9_16StringLessNoCaseESaISF_EE22_M_emplace_hint_uniqueIJRKSt21piecewise_construct_tSt5tupleIJRS7_EESP_IJEEEEESt17_Rb_tree_iteratorISF_ESt23_Rb_tree_const_iteratorISF_EDpOT_.isra.0
0053bfb0 T __ZN4Sexy15ResourceManager16DoParseResourcesEv
0053ca90 T __ZN4Sexy15ResourceManager18ParseResourcesFileERKNSt7__cxx1112basic_stringIcSt11char_traitsIcESaIcEEE
0053cec0 T __ZN4Sexy15ResourceManager20ReparseResourcesFileERKNSt7__cxx1112basic_stringIcSt11char_traitsIcESaIcEEE
0053cf00 T __ZN4Sexy15ResourceManager18StartLoadResourcesERKNSt7__cxx1112basic_stringIcSt11char_traitsIcESaIcEEE
0053d000 t __ZNSt8_Rb_treeINSt7__cxx1112basic_stringIcSt11char_traitsIcESaIcEEESt4pairIKS5_S5_ESt10_Select1stIS8_ESt4lessIS5_ESaIS8_EE7_M_copyILb0ENSE_20_Reuse_or_alloc_nodeEEEPSt18_Rb_tree_node_basePSt13_Rb_tree_nodeIS8_ESI_RT0_.isra.0
0053d0c0 t __ZNSt8_Rb_treeINSt7__cxx1112basic_stringIcSt11char_traitsIcESaIcEEESt4pairIKS5_S5_ESt10_Select1stIS8_ESt4lessIS5_ESaIS8_EEaSERKSE_.isra.0
0053d1c0 T __ZN4Sexy15ResourceManager17ParseFontResourceERNS_10XMLElementE
0053d7c0 T __ZN4Sexy15ResourceManager18ParseImageResourceERNS_10XMLElementE
0053e540 T __ZN4Sexy15ResourceManager18ParseSoundResourceERNS_10XMLElementE
0053e770 T __ZN4Sexy15ResourceManager19ParseCommonResourceERNS_10XMLElementEPNS0_7BaseResERSt3mapINSt7__cxx1112basic_stringIcSt11char_traitsIcESaIcEEES4_St4lessISB_ESaISt4pairIKSB_S4_EEE
0053f140 t ___tcf_ZN4Sexy10SEHCatcher13mCrashMessageB5cxx11E
0053f140 t .text
0053f180 t __ZNSt8_Rb_treeISt4pairImmES0_IKS1_S0_INSt7__cxx1112basic_stringIcSt11char_traitsIcESaIcEEEiEESt10_Select1stISA_ESt4lessIS1_ESaISA_EE24_M_get_insert_unique_posERS2_.isra.0
0053f230 t __ZNSt8_Rb_treeISt4pairImmES0_IKS1_NSt7__cxx1112basic_stringIcSt11char_traitsIcESaIcEEEESt10_Select1stIS9_ESt4lessIS1_ESaIS9_EE24_M_get_insert_unique_posERS2_.isra.0
0053f2e0 T __ZN4Sexy10SEHCatcher20SubmitInfoWindowProcEP6HWND__jjl@16
0053f740 t __ZL12StrToLongHexRKNSt7__cxx1112basic_stringIcSt11char_traitsIcESaIcEEEPm.isra.0
0053f7d0 t __ZNSt7__cxx1112basic_stringIcSt11char_traitsIcESaIcEE12_M_constructIPKcEEvT_S8_St20forward_iterator_tag.isra.0
0053f890 t ___tcf_ZN4Sexy10SEHCatcher19mSubmitErrorMessageB5cxx11E
0053f8d0 t ___tcf_ZN4Sexy10SEHCatcher14mSubmitMessageB5cxx11E
0053f910 t ___tcf_ZN4Sexy10SEHCatcher11mSubmitHostB5cxx11E
0053f950 t ___tcf_ZN4Sexy10SEHCatcher15mUploadFileNameB5cxx11E
0053f990 t ___tcf_ZN4Sexy10SEHCatcher9mUserTextB5cxx11E
0053f9d0 t ___tcf_ZN4Sexy10SEHCatcher10mErrorTextB5cxx11E
0053fa10 t ___tcf_ZN4Sexy10SEHCatcher11mErrorTitleB5cxx11E
0053fa50 t __ZNSt8_Rb_treeINSt7__cxx1112basic_stringIcSt11char_traitsIcESaIcEEESt4pairIKS5_S5_ESt10_Select1stIS8_ESt4lessIS5_ESaIS8_EE8_M_eraseEPSt13_Rb_tree_nodeIS8_E.isra.0
0053fad0 t __ZNSt8_Rb_treeISt4pairImmES0_IKS1_S0_INSt7__cxx1112basic_stringIcSt11char_traitsIcESaIcEEEiEESt10_Select1stISA_ESt4lessIS1_ESaISA_EE8_M_eraseEPSt13_Rb_tree_nodeISA_E.isra.0
0053fda0 t __ZNSt8_Rb_treeISt4pairImmES0_IKS1_NSt7__cxx1112basic_stringIcSt11char_traitsIcESaIcEEEESt10_Select1stIS9_ESt4lessIS1_ESaIS9_EE8_M_eraseEPSt13_Rb_tree_nodeIS9_E.isra.0
00540070 t __ZL21SEHProgressWindowProcP6HWND__jjl@16
005402a0 T __ZN4Sexy10SEHCatcherC1Ev
005402a0 T __ZN4Sexy10SEHCatcherC2Ev
005402c0 T __ZN4Sexy10SEHCatcherD1Ev
005402c0 T __ZN4Sexy10SEHCatcherD2Ev
005402e0 T __ZN4Sexy10SEHCatcher13LoadImageHelpEv
005404c0 T __ZN4Sexy10SEHCatcher15UnloadImageHelpEv
005404f0 T __ZN4Sexy10SEHCatcher17GetLogicalAddressEPvPcmRmS3_
005405d0 T __ZN4Sexy10SEHCatcher20ShowSubmitInfoDialogEv
00540ba0 T __ZN4Sexy10SEHCatcher13SEHWindowProcEP6HWND__jjl@16
00540c50 T __ZN4Sexy10SEHCatcher15ShowErrorDialogERKNSt7__cxx1112basic_stringIcSt11char_traitsIcESaIcEEES8_
00541430 T __ZN4Sexy10SEHCatcher10GetSysInfoB5cxx11Ev
00542070 T __ZN4Sexy10SEHCatcher11WriteToFileERKNSt7__cxx1112basic_stringIcSt11char_traitsIcESaIcEEE
00542380 T __ZN4Sexy10SEHCatcher11GetFilenameERKNSt7__cxx1112basic_stringIcSt11char_traitsIcESaIcEEE
00542420 T __ZN4Sexy10SEHCatcher9IntelWalkB5cxx11EP8_CONTEXTi
00542620 T __ZN4Sexy10SEHCatcher13ImageHelpWalkB5cxx11EP8_CONTEXTi
00542b50 T __ZN4Sexy10SEHCatcher21GetSymbolsFromMapFileERNSt7__cxx1112basic_stringIcSt11char_traitsIcESaIcEEE
00543f90 T __ZN4Sexy10SEHCatcher18DoHandleDebugEventEP19_EXCEPTION_POINTERS
005450d0 T __ZN4Sexy10SEHCatcher24UnhandledExceptionFilterEP19_EXCEPTION_POINTERS@4
00545120 T __ZN4Sexy10SEHCatcher18SubmitReportThreadEPv
00548c30 t ___tcf_ZN4Sexy10SEHCatcher21mSubmitReportTransferE
00548c40 t .text
00548c40 T __ZN4Sexy48DrawTriangle_8888_TEX0_TALPHA0_MOD0_GLOB0_BLEND0EPNS_8SWHelper8SWVertexEPvjPKNS0_13SWTextureInfoERNS0_9SWDiffuseE
00548c50 T __ZN4Sexy48DrawTriangle_8888_TEX0_TALPHA0_MOD1_GLOB0_BLEND0EPNS_8SWHelper8SWVertexEPvjPKNS0_13SWTextureInfoERNS0_9SWDiffuseE
0054a1e0 T __ZN4Sexy48DrawTriangle_8888_TEX0_TALPHA0_MOD1_GLOB0_BLEND1EPNS_8SWHelper8SWVertexEPvjPKNS0_13SWTextureInfoERNS0_9SWDiffuseE
0054a1f0 T __ZN4Sexy48DrawTriangle_8888_TEX0_TALPHA0_MOD1_GLOB1_BLEND0EPNS_8SWHelper8SWVertexEPvjPKNS0_13SWTextureInfoERNS0_9SWDiffuseE
0054b830 T __ZN4Sexy48DrawTriangle_8888_TEX0_TALPHA0_MOD1_GLOB1_BLEND1EPNS_8SWHelper8SWVertexEPvjPKNS0_13SWTextureInfoERNS0_9SWDiffuseE
0054b840 T __ZN4Sexy48DrawTriangle_8888_TEX0_TALPHA1_MOD1_GLOB0_BLEND0EPNS_8SWHelper8SWVertexEPvjPKNS0_13SWTextureInfoERNS0_9SWDiffuseE
0054b850 T __ZN4Sexy48DrawTriangle_8888_TEX0_TALPHA1_MOD1_GLOB0_BLEND1EPNS_8SWHelper8SWVertexEPvjPKNS0_13SWTextureInfoERNS0_9SWDiffuseE
0054b860 T __ZN4Sexy48DrawTriangle_8888_TEX0_TALPHA1_MOD1_GLOB1_BLEND0EPNS_8SWHelper8SWVertexEPvjPKNS0_13SWTextureInfoERNS0_9SWDiffuseE
0054b870 T __ZN4Sexy48DrawTriangle_8888_TEX0_TALPHA1_MOD1_GLOB1_BLEND1EPNS_8SWHelper8SWVertexEPvjPKNS0_13SWTextureInfoERNS0_9SWDiffuseE
0054b880 T __ZN4Sexy48DrawTriangle_8888_TEX1_TALPHA0_MOD0_GLOB0_BLEND0EPNS_8SWHelper8SWVertexEPvjPKNS0_13SWTextureInfoERNS0_9SWDiffuseE
0054c4e0 T __ZN4Sexy48DrawTriangle_8888_TEX1_TALPHA0_MOD0_GLOB0_BLEND1EPNS_8SWHelper8SWVertexEPvjPKNS0_13SWTextureInfoERNS0_9SWDiffuseE
0054d8c0 T __ZN4Sexy48DrawTriangle_8888_TEX1_TALPHA0_MOD0_GLOB1_BLEND0EPNS_8SWHelper8SWVertexEPvjPKNS0_13SWTextureInfoERNS0_9SWDiffuseE
0054eaf0 T __ZN4Sexy48DrawTriangle_8888_TEX1_TALPHA0_MOD0_GLOB1_BLEND1EPNS_8SWHelper8SWVertexEPvjPKNS0_13SWTextureInfoERNS0_9SWDiffuseE
00550510 T __ZN4Sexy48DrawTriangle_8888_TEX1_TALPHA0_MOD1_GLOB0_BLEND0EPNS_8SWHelper8SWVertexEPvjPKNS0_13SWTextureInfoERNS0_9SWDiffuseE
00552110 T __ZN4Sexy48DrawTriangle_8888_TEX1_TALPHA0_MOD1_GLOB0_BLEND1EPNS_8SWHelper8SWVertexEPvjPKNS0_13SWTextureInfoERNS0_9SWDiffuseE
005543e0 T __ZN4Sexy48DrawTriangle_8888_TEX1_TALPHA0_MOD1_GLOB1_BLEND0EPNS_8SWHelper8SWVertexEPvjPKNS0_13SWTextureInfoERNS0_9SWDiffuseE
00556310 T __ZN4Sexy48DrawTriangle_8888_TEX1_TALPHA0_MOD1_GLOB1_BLEND1EPNS_8SWHelper8SWVertexEPvjPKNS0_13SWTextureInfoERNS0_9SWDiffuseE
00558880 T __ZN4Sexy48DrawTriangle_8888_TEX1_TALPHA1_MOD0_GLOB0_BLEND0EPNS_8SWHelper8SWVertexEPvjPKNS0_13SWTextureInfoERNS0_9SWDiffuseE
005599a0 T __ZN4Sexy48DrawTriangle_8888_TEX1_TALPHA1_MOD0_GLOB0_BLEND1EPNS_8SWHelper8SWVertexEPvjPKNS0_13SWTextureInfoERNS0_9SWDiffuseE
0055b160 T __ZN4Sexy48DrawTriangle_8888_TEX1_TALPHA1_MOD0_GLOB1_BLEND0EPNS_8SWHelper8SWVertexEPvjPKNS0_13SWTextureInfoERNS0_9SWDiffuseE
0055c440 T __ZN4Sexy48DrawTriangle_8888_TEX1_TALPHA1_MOD0_GLOB1_BLEND1EPNS_8SWHelper8SWVertexEPvjPKNS0_13SWTextureInfoERNS0_9SWDiffuseE
0055de00 T __ZN4Sexy48DrawTriangle_8888_TEX1_TALPHA1_MOD1_GLOB0_BLEND0EPNS_8SWHelper8SWVertexEPvjPKNS0_13SWTextureInfoERNS0_9SWDiffuseE
0055fbb0 T __ZN4Sexy48DrawTriangle_8888_TEX1_TALPHA1_MOD1_GLOB0_BLEND1EPNS_8SWHelper8SWVertexEPvjPKNS0_13SWTextureInfoERNS0_9SWDiffuseE
00562050 T __ZN4Sexy48DrawTriangle_8888_TEX1_TALPHA1_MOD1_GLOB1_BLEND0EPNS_8SWHelper8SWVertexEPvjPKNS0_13SWTextureInfoERNS0_9SWDiffuseE
00564100 T __ZN4Sexy48DrawTriangle_8888_TEX1_TALPHA1_MOD1_GLOB1_BLEND1EPNS_8SWHelper8SWVertexEPvjPKNS0_13SWTextureInfoERNS0_9SWDiffuseE
00566830 T __ZN4Sexy48DrawTriangle_0888_TEX0_TALPHA0_MOD1_GLOB0_BLEND0EPNS_8SWHelper8SWVertexEPvjPKNS0_13SWTextureInfoERNS0_9SWDiffuseE
00567b30 T __ZN4Sexy48DrawTriangle_0888_TEX0_TALPHA0_MOD1_GLOB0_BLEND1EPNS_8SWHelper8SWVertexEPvjPKNS0_13SWTextureInfoERNS0_9SWDiffuseE
00567b40 T __ZN4Sexy48DrawTriangle_0888_TEX0_TALPHA0_MOD1_GLOB1_BLEND0EPNS_8SWHelper8SWVertexEPvjPKNS0_13SWTextureInfoERNS0_9SWDiffuseE
00568f00 T __ZN4Sexy48DrawTriangle_0888_TEX0_TALPHA0_MOD1_GLOB1_BLEND1EPNS_8SWHelper8SWVertexEPvjPKNS0_13SWTextureInfoERNS0_9SWDiffuseE
00568f10 T __ZN4Sexy48DrawTriangle_0888_TEX0_TALPHA1_MOD1_GLOB0_BLEND0EPNS_8SWHelper8SWVertexEPvjPKNS0_13SWTextureInfoERNS0_9SWDiffuseE
00568f20 T __ZN4Sexy48DrawTriangle_0888_TEX0_TALPHA1_MOD1_GLOB0_BLEND1EPNS_8SWHelper8SWVertexEPvjPKNS0_13SWTextureInfoERNS0_9SWDiffuseE
00568f30 T __ZN4Sexy48DrawTriangle_0888_TEX0_TALPHA1_MOD1_GLOB1_BLEND0EPNS_8SWHelper8SWVertexEPvjPKNS0_13SWTextureInfoERNS0_9SWDiffuseE
00568f40 T __ZN4Sexy48DrawTriangle_0888_TEX0_TALPHA1_MOD1_GLOB1_BLEND1EPNS_8SWHelper8SWVertexEPvjPKNS0_13SWTextureInfoERNS0_9SWDiffuseE
00568f50 T __ZN4Sexy48DrawTriangle_0888_TEX1_TALPHA0_MOD0_GLOB0_BLEND0EPNS_8SWHelper8SWVertexEPvjPKNS0_13SWTextureInfoERNS0_9SWDiffuseE
00568f60 T __ZN4Sexy48DrawTriangle_0888_TEX1_TALPHA0_MOD0_GLOB0_BLEND1EPNS_8SWHelper8SWVertexEPvjPKNS0_13SWTextureInfoERNS0_9SWDiffuseE
00568f70 T __ZN4Sexy48DrawTriangle_0888_TEX1_TALPHA0_MOD0_GLOB1_BLEND0EPNS_8SWHelper8SWVertexEPvjPKNS0_13SWTextureInfoERNS0_9SWDiffuseE
00569f40 T __ZN4Sexy48DrawTriangle_0888_TEX1_TALPHA0_MOD0_GLOB1_BLEND1EPNS_8SWHelper8SWVertexEPvjPKNS0_13SWTextureInfoERNS0_9SWDiffuseE
0056b700 T __ZN4Sexy48DrawTriangle_0888_TEX1_TALPHA0_MOD1_GLOB0_BLEND0EPNS_8SWHelper8SWVertexEPvjPKNS0_13SWTextureInfoERNS0_9SWDiffuseE
0056d080 T __ZN4Sexy48DrawTriangle_0888_TEX1_TALPHA0_MOD1_GLOB0_BLEND1EPNS_8SWHelper8SWVertexEPvjPKNS0_13SWTextureInfoERNS0_9SWDiffuseE
0056f140 T __ZN4Sexy48DrawTriangle_0888_TEX1_TALPHA0_MOD1_GLOB1_BLEND0EPNS_8SWHelper8SWVertexEPvjPKNS0_13SWTextureInfoERNS0_9SWDiffuseE
00570d90 T __ZN4Sexy48DrawTriangle_0888_TEX1_TALPHA0_MOD1_GLOB1_BLEND1EPNS_8SWHelper8SWVertexEPvjPKNS0_13SWTextureInfoERNS0_9SWDiffuseE
005730a0 T __ZN4Sexy48DrawTriangle_0888_TEX1_TALPHA1_MOD0_GLOB0_BLEND0EPNS_8SWHelper8SWVertexEPvjPKNS0_13SWTextureInfoERNS0_9SWDiffuseE
00573f20 T __ZN4Sexy48DrawTriangle_0888_TEX1_TALPHA1_MOD0_GLOB0_BLEND1EPNS_8SWHelper8SWVertexEPvjPKNS0_13SWTextureInfoERNS0_9SWDiffuseE
005754a0 T __ZN4Sexy48DrawTriangle_0888_TEX1_TALPHA1_MOD0_GLOB1_BLEND0EPNS_8SWHelper8SWVertexEPvjPKNS0_13SWTextureInfoERNS0_9SWDiffuseE
005764c0 T __ZN4Sexy48DrawTriangle_0888_TEX1_TALPHA1_MOD0_GLOB1_BLEND1EPNS_8SWHelper8SWVertexEPvjPKNS0_13SWTextureInfoERNS0_9SWDiffuseE
00577c70 T __ZN4Sexy48DrawTriangle_0888_TEX1_TALPHA1_MOD1_GLOB0_BLEND0EPNS_8SWHelper8SWVertexEPvjPKNS0_13SWTextureInfoERNS0_9SWDiffuseE
00579710 T __ZN4Sexy48DrawTriangle_0888_TEX1_TALPHA1_MOD1_GLOB0_BLEND1EPNS_8SWHelper8SWVertexEPvjPKNS0_13SWTextureInfoERNS0_9SWDiffuseE
0057b960 T __ZN4Sexy48DrawTriangle_0888_TEX1_TALPHA1_MOD1_GLOB1_BLEND0EPNS_8SWHelper8SWVertexEPvjPKNS0_13SWTextureInfoERNS0_9SWDiffuseE
0057d6d0 T __ZN4Sexy48DrawTriangle_0888_TEX1_TALPHA1_MOD1_GLOB1_BLEND1EPNS_8SWHelper8SWVertexEPvjPKNS0_13SWTextureInfoERNS0_9SWDiffuseE
0057fb80 T __ZN4Sexy48DrawTriangle_0565_TEX0_TALPHA0_MOD1_GLOB0_BLEND0EPNS_8SWHelper8SWVertexEPvjPKNS0_13SWTextureInfoERNS0_9SWDiffuseE
00580fb0 T __ZN4Sexy48DrawTriangle_0565_TEX0_TALPHA0_MOD1_GLOB0_BLEND1EPNS_8SWHelper8SWVertexEPvjPKNS0_13SWTextureInfoERNS0_9SWDiffuseE
00580fc0 T __ZN4Sexy48DrawTriangle_0565_TEX0_TALPHA0_MOD1_GLOB1_BLEND0EPNS_8SWHelper8SWVertexEPvjPKNS0_13SWTextureInfoERNS0_9SWDiffuseE
00582410 T __ZN4Sexy48DrawTriangle_0565_TEX0_TALPHA0_MOD1_GLOB1_BLEND1EPNS_8SWHelper8SWVertexEPvjPKNS0_13SWTextureInfoERNS0_9SWDiffuseE
00582420 T __ZN4Sexy48DrawTriangle_0565_TEX0_TALPHA1_MOD1_GLOB0_BLEND0EPNS_8SWHelper8SWVertexEPvjPKNS0_13SWTextureInfoERNS0_9SWDiffuseE
00582430 T __ZN4Sexy48DrawTriangle_0565_TEX0_TALPHA1_MOD1_GLOB0_BLEND1EPNS_8SWHelper8SWVertexEPvjPKNS0_13SWTextureInfoERNS0_9SWDiffuseE
00582440 T __ZN4Sexy48DrawTriangle_0565_TEX0_TALPHA1_MOD1_GLOB1_BLEND0EPNS_8SWHelper8SWVertexEPvjPKNS0_13SWTextureInfoERNS0_9SWDiffuseE
00582450 T __ZN4Sexy48DrawTriangle_0565_TEX0_TALPHA1_MOD1_GLOB1_BLEND1EPNS_8SWHelper8SWVertexEPvjPKNS0_13SWTextureInfoERNS0_9SWDiffuseE
00582460 T __ZN4Sexy48DrawTriangle_0565_TEX1_TALPHA0_MOD0_GLOB0_BLEND0EPNS_8SWHelper8SWVertexEPvjPKNS0_13SWTextureInfoERNS0_9SWDiffuseE
005830c0 T __ZN4Sexy48DrawTriangle_0565_TEX1_TALPHA0_MOD0_GLOB0_BLEND1EPNS_8SWHelper8SWVertexEPvjPKNS0_13SWTextureInfoERNS0_9SWDiffuseE
00584510 T __ZN4Sexy48DrawTriangle_0565_TEX1_TALPHA0_MOD0_GLOB1_BLEND0EPNS_8SWHelper8SWVertexEPvjPKNS0_13SWTextureInfoERNS0_9SWDiffuseE
00585640 T __ZN4Sexy48DrawTriangle_0565_TEX1_TALPHA0_MOD0_GLOB1_BLEND1EPNS_8SWHelper8SWVertexEPvjPKNS0_13SWTextureInfoERNS0_9SWDiffuseE
00586f30 T __ZN4Sexy48DrawTriangle_0565_TEX1_TALPHA0_MOD1_GLOB0_BLEND0EPNS_8SWHelper8SWVertexEPvjPKNS0_13SWTextureInfoERNS0_9SWDiffuseE
00588990 T __ZN4Sexy48DrawTriangle_0565_TEX1_TALPHA0_MOD1_GLOB0_BLEND1EPNS_8SWHelper8SWVertexEPvjPKNS0_13SWTextureInfoERNS0_9SWDiffuseE
0058ab60 T __ZN4Sexy48DrawTriangle_0565_TEX1_TALPHA0_MOD1_GLOB1_BLEND0EPNS_8SWHelper8SWVertexEPvjPKNS0_13SWTextureInfoERNS0_9SWDiffuseE
0058c910 T __ZN4Sexy48DrawTriangle_0565_TEX1_TALPHA0_MOD1_GLOB1_BLEND1EPNS_8SWHelper8SWVertexEPvjPKNS0_13SWTextureInfoERNS0_9SWDiffuseE
0058ed40 T __ZN4Sexy48DrawTriangle_0565_TEX1_TALPHA1_MOD0_GLOB0_BLEND0EPNS_8SWHelper8SWVertexEPvjPKNS0_13SWTextureInfoERNS0_9SWDiffuseE
0058fd30 T __ZN4Sexy48DrawTriangle_0565_TEX1_TALPHA1_MOD0_GLOB0_BLEND1EPNS_8SWHelper8SWVertexEPvjPKNS0_13SWTextureInfoERNS0_9SWDiffuseE
00591370 T __ZN4Sexy48DrawTriangle_0565_TEX1_TALPHA1_MOD0_GLOB1_BLEND0EPNS_8SWHelper8SWVertexEPvjPKNS0_13SWTextureInfoERNS0_9SWDiffuseE
00592490 T __ZN4Sexy48DrawTriangle_0565_TEX1_TALPHA1_MOD0_GLOB1_BLEND1EPNS_8SWHelper8SWVertexEPvjPKNS0_13SWTextureInfoERNS0_9SWDiffuseE
00593cf0 T __ZN4Sexy48DrawTriangle_0565_TEX1_TALPHA1_MOD1_GLOB0_BLEND0EPNS_8SWHelper8SWVertexEPvjPKNS0_13SWTextureInfoERNS0_9SWDiffuseE
005958e0 T __ZN4Sexy48DrawTriangle_0565_TEX1_TALPHA1_MOD1_GLOB0_BLEND1EPNS_8SWHelper8SWVertexEPvjPKNS0_13SWTextureInfoERNS0_9SWDiffuseE
00597c20 T __ZN4Sexy48DrawTriangle_0565_TEX1_TALPHA1_MOD1_GLOB1_BLEND0EPNS_8SWHelper8SWVertexEPvjPKNS0_13SWTextureInfoERNS0_9SWDiffuseE
00599b30 T __ZN4Sexy48DrawTriangle_0565_TEX1_TALPHA1_MOD1_GLOB1_BLEND1EPNS_8SWHelper8SWVertexEPvjPKNS0_13SWTextureInfoERNS0_9SWDiffuseE
0059c0b0 T __ZN4Sexy48DrawTriangle_0555_TEX0_TALPHA0_MOD1_GLOB0_BLEND0EPNS_8SWHelper8SWVertexEPvjPKNS0_13SWTextureInfoERNS0_9SWDiffuseE
0059d4e0 T __ZN4Sexy48DrawTriangle_0555_TEX0_TALPHA0_MOD1_GLOB0_BLEND1EPNS_8SWHelper8SWVertexEPvjPKNS0_13SWTextureInfoERNS0_9SWDiffuseE
0059d4f0 T __ZN4Sexy48DrawTriangle_0555_TEX0_TALPHA0_MOD1_GLOB1_BLEND0EPNS_8SWHelper8SWVertexEPvjPKNS0_13SWTextureInfoERNS0_9SWDiffuseE
0059e940 T __ZN4Sexy48DrawTriangle_0555_TEX0_TALPHA0_MOD1_GLOB1_BLEND1EPNS_8SWHelper8SWVertexEPvjPKNS0_13SWTextureInfoERNS0_9SWDiffuseE
0059e950 T __ZN4Sexy48DrawTriangle_0555_TEX0_TALPHA1_MOD1_GLOB0_BLEND0EPNS_8SWHelper8SWVertexEPvjPKNS0_13SWTextureInfoERNS0_9SWDiffuseE
0059e960 T __ZN4Sexy48DrawTriangle_0555_TEX0_TALPHA1_MOD1_GLOB0_BLEND1EPNS_8SWHelper8SWVertexEPvjPKNS0_13SWTextureInfoERNS0_9SWDiffuseE
0059e970 T __ZN4Sexy48DrawTriangle_0555_TEX0_TALPHA1_MOD1_GLOB1_BLEND0EPNS_8SWHelper8SWVertexEPvjPKNS0_13SWTextureInfoERNS0_9SWDiffuseE
0059e980 T __ZN4Sexy48DrawTriangle_0555_TEX0_TALPHA1_MOD1_GLOB1_BLEND1EPNS_8SWHelper8SWVertexEPvjPKNS0_13SWTextureInfoERNS0_9SWDiffuseE
0059e990 T __ZN4Sexy48DrawTriangle_0555_TEX1_TALPHA0_MOD0_GLOB0_BLEND0EPNS_8SWHelper8SWVertexEPvjPKNS0_13SWTextureInfoERNS0_9SWDiffuseE
0059f5f0 T __ZN4Sexy48DrawTriangle_0555_TEX1_TALPHA0_MOD0_GLOB0_BLEND1EPNS_8SWHelper8SWVertexEPvjPKNS0_13SWTextureInfoERNS0_9SWDiffuseE
005a0a40 T __ZN4Sexy48DrawTriangle_0555_TEX1_TALPHA0_MOD0_GLOB1_BLEND0EPNS_8SWHelper8SWVertexEPvjPKNS0_13SWTextureInfoERNS0_9SWDiffuseE
005a1b70 T __ZN4Sexy48DrawTriangle_0555_TEX1_TALPHA0_MOD0_GLOB1_BLEND1EPNS_8SWHelper8SWVertexEPvjPKNS0_13SWTextureInfoERNS0_9SWDiffuseE
005a3460 T __ZN4Sexy48DrawTriangle_0555_TEX1_TALPHA0_MOD1_GLOB0_BLEND0EPNS_8SWHelper8SWVertexEPvjPKNS0_13SWTextureInfoERNS0_9SWDiffuseE
005a4ec0 T __ZN4Sexy48DrawTriangle_0555_TEX1_TALPHA0_MOD1_GLOB0_BLEND1EPNS_8SWHelper8SWVertexEPvjPKNS0_13SWTextureInfoERNS0_9SWDiffuseE
005a7090 T __ZN4Sexy48DrawTriangle_0555_TEX1_TALPHA0_MOD1_GLOB1_BLEND0EPNS_8SWHelper8SWVertexEPvjPKNS0_13SWTextureInfoERNS0_9SWDiffuseE
005a8e40 T __ZN4Sexy48DrawTriangle_0555_TEX1_TALPHA0_MOD1_GLOB1_BLEND1EPNS_8SWHelper8SWVertexEPvjPKNS0_13SWTextureInfoERNS0_9SWDiffuseE
005ab270 T __ZN4Sexy48DrawTriangle_0555_TEX1_TALPHA1_MOD0_GLOB0_BLEND0EPNS_8SWHelper8SWVertexEPvjPKNS0_13SWTextureInfoERNS0_9SWDiffuseE
005ac230 T __ZN4Sexy48DrawTriangle_0555_TEX1_TALPHA1_MOD0_GLOB0_BLEND1EPNS_8SWHelper8SWVertexEPvjPKNS0_13SWTextureInfoERNS0_9SWDiffuseE
005ad870 T __ZN4Sexy48DrawTriangle_0555_TEX1_TALPHA1_MOD0_GLOB1_BLEND0EPNS_8SWHelper8SWVertexEPvjPKNS0_13SWTextureInfoERNS0_9SWDiffuseE
005ae990 T __ZN4Sexy48DrawTriangle_0555_TEX1_TALPHA1_MOD0_GLOB1_BLEND1EPNS_8SWHelper8SWVertexEPvjPKNS0_13SWTextureInfoERNS0_9SWDiffuseE
005b01f0 T __ZN4Sexy48DrawTriangle_0555_TEX1_TALPHA1_MOD1_GLOB0_BLEND0EPNS_8SWHelper8SWVertexEPvjPKNS0_13SWTextureInfoERNS0_9SWDiffuseE
005b1de0 T __ZN4Sexy48DrawTriangle_0555_TEX1_TALPHA1_MOD1_GLOB0_BLEND1EPNS_8SWHelper8SWVertexEPvjPKNS0_13SWTextureInfoERNS0_9SWDiffuseE
005b4120 T __ZN4Sexy48DrawTriangle_0555_TEX1_TALPHA1_MOD1_GLOB1_BLEND0EPNS_8SWHelper8SWVertexEPvjPKNS0_13SWTextureInfoERNS0_9SWDiffuseE
005b6030 T __ZN4Sexy48DrawTriangle_0555_TEX1_TALPHA1_MOD1_GLOB1_BLEND1EPNS_8SWHelper8SWVertexEPvjPKNS0_13SWTextureInfoERNS0_9SWDiffuseE
005b85b0 T __ZN4Sexy48DrawTriangle_0555_TEX0_TALPHA1_MOD0_GLOB1_BLEND1EPNS_8SWHelper8SWVertexEPvjPKNS0_13SWTextureInfoERNS0_9SWDiffuseE
005b85c0 T __ZN4Sexy48DrawTriangle_8888_TEX0_TALPHA0_MOD0_GLOB0_BLEND1EPNS_8SWHelper8SWVertexEPvjPKNS0_13SWTextureInfoERNS0_9SWDiffuseE
005b85d0 T __ZN4Sexy48DrawTriangle_8888_TEX0_TALPHA0_MOD0_GLOB1_BLEND0EPNS_8SWHelper8SWVertexEPvjPKNS0_13SWTextureInfoERNS0_9SWDiffuseE
005b85e0 T __ZN4Sexy48DrawTriangle_8888_TEX0_TALPHA0_MOD0_GLOB1_BLEND1EPNS_8SWHelper8SWVertexEPvjPKNS0_13SWTextureInfoERNS0_9SWDiffuseE
005b85f0 T __ZN4Sexy48DrawTriangle_8888_TEX0_TALPHA1_MOD0_GLOB0_BLEND0EPNS_8SWHelper8SWVertexEPvjPKNS0_13SWTextureInfoERNS0_9SWDiffuseE
005b8600 T __ZN4Sexy48DrawTriangle_8888_TEX0_TALPHA1_MOD0_GLOB0_BLEND1EPNS_8SWHelper8SWVertexEPvjPKNS0_13SWTextureInfoERNS0_9SWDiffuseE
005b8610 T __ZN4Sexy48DrawTriangle_8888_TEX0_TALPHA1_MOD0_GLOB1_BLEND0EPNS_8SWHelper8SWVertexEPvjPKNS0_13SWTextureInfoERNS0_9SWDiffuseE
005b8620 T __ZN4Sexy48DrawTriangle_8888_TEX0_TALPHA1_MOD0_GLOB1_BLEND1EPNS_8SWHelper8SWVertexEPvjPKNS0_13SWTextureInfoERNS0_9SWDiffuseE
005b8630 T __ZN4Sexy48DrawTriangle_0888_TEX0_TALPHA0_MOD0_GLOB0_BLEND0EPNS_8SWHelper8SWVertexEPvjPKNS0_13SWTextureInfoERNS0_9SWDiffuseE
005b8640 T __ZN4Sexy48DrawTriangle_0888_TEX0_TALPHA0_MOD0_GLOB0_BLEND1EPNS_8SWHelper8SWVertexEPvjPKNS0_13SWTextureInfoERNS0_9SWDiffuseE
005b8650 T __ZN4Sexy48DrawTriangle_0888_TEX0_TALPHA0_MOD0_GLOB1_BLEND0EPNS_8SWHelper8SWVertexEPvjPKNS0_13SWTextureInfoERNS0_9SWDiffuseE
005b8660 T __ZN4Sexy48DrawTriangle_0888_TEX0_TALPHA0_MOD0_GLOB1_BLEND1EPNS_8SWHelper8SWVertexEPvjPKNS0_13SWTextureInfoERNS0_9SWDiffuseE
005b8670 T __ZN4Sexy48DrawTriangle_0888_TEX0_TALPHA1_MOD0_GLOB0_BLEND0EPNS_8SWHelper8SWVertexEPvjPKNS0_13SWTextureInfoERNS0_9SWDiffuseE
005b8680 T __ZN4Sexy48DrawTriangle_0888_TEX0_TALPHA1_MOD0_GLOB0_BLEND1EPNS_8SWHelper8SWVertexEPvjPKNS0_13SWTextureInfoERNS0_9SWDiffuseE
005b8690 T __ZN4Sexy48DrawTriangle_0888_TEX0_TALPHA1_MOD0_GLOB1_BLEND0EPNS_8SWHelper8SWVertexEPvjPKNS0_13SWTextureInfoERNS0_9SWDiffuseE
005b86a0 T __ZN4Sexy48DrawTriangle_0888_TEX0_TALPHA1_MOD0_GLOB1_BLEND1EPNS_8SWHelper8SWVertexEPvjPKNS0_13SWTextureInfoERNS0_9SWDiffuseE
005b86b0 T __ZN4Sexy48DrawTriangle_0565_TEX0_TALPHA0_MOD0_GLOB0_BLEND0EPNS_8SWHelper8SWVertexEPvjPKNS0_13SWTextureInfoERNS0_9SWDiffuseE
005b86c0 T __ZN4Sexy48DrawTriangle_0565_TEX0_TALPHA0_MOD0_GLOB0_BLEND1EPNS_8SWHelper8SWVertexEPvjPKNS0_13SWTextureInfoERNS0_9SWDiffuseE
005b86d0 T __ZN4Sexy48DrawTriangle_0565_TEX0_TALPHA0_MOD0_GLOB1_BLEND0EPNS_8SWHelper8SWVertexEPvjPKNS0_13SWTextureInfoERNS0_9SWDiffuseE
005b86e0 T __ZN4Sexy48DrawTriangle_0565_TEX0_TALPHA0_MOD0_GLOB1_BLEND1EPNS_8SWHelper8SWVertexEPvjPKNS0_13SWTextureInfoERNS0_9SWDiffuseE
005b86f0 T __ZN4Sexy48DrawTriangle_0565_TEX0_TALPHA1_MOD0_GLOB0_BLEND0EPNS_8SWHelper8SWVertexEPvjPKNS0_13SWTextureInfoERNS0_9SWDiffuseE
005b8700 T __ZN4Sexy48DrawTriangle_0565_TEX0_TALPHA1_MOD0_GLOB0_BLEND1EPNS_8SWHelper8SWVertexEPvjPKNS0_13SWTextureInfoERNS0_9SWDiffuseE
005b8710 T __ZN4Sexy48DrawTriangle_0565_TEX0_TALPHA1_MOD0_GLOB1_BLEND0EPNS_8SWHelper8SWVertexEPvjPKNS0_13SWTextureInfoERNS0_9SWDiffuseE
005b8720 T __ZN4Sexy48DrawTriangle_0565_TEX0_TALPHA1_MOD0_GLOB1_BLEND1EPNS_8SWHelper8SWVertexEPvjPKNS0_13SWTextureInfoERNS0_9SWDiffuseE
005b8730 T __ZN4Sexy48DrawTriangle_0555_TEX0_TALPHA0_MOD0_GLOB0_BLEND0EPNS_8SWHelper8SWVertexEPvjPKNS0_13SWTextureInfoERNS0_9SWDiffuseE
005b8740 T __ZN4Sexy48DrawTriangle_0555_TEX0_TALPHA0_MOD0_GLOB0_BLEND1EPNS_8SWHelper8SWVertexEPvjPKNS0_13SWTextureInfoERNS0_9SWDiffuseE
005b8750 T __ZN4Sexy48DrawTriangle_0555_TEX0_TALPHA0_MOD0_GLOB1_BLEND0EPNS_8SWHelper8SWVertexEPvjPKNS0_13SWTextureInfoERNS0_9SWDiffuseE
005b8760 T __ZN4Sexy48DrawTriangle_0555_TEX0_TALPHA0_MOD0_GLOB1_BLEND1EPNS_8SWHelper8SWVertexEPvjPKNS0_13SWTextureInfoERNS0_9SWDiffuseE
005b8770 T __ZN4Sexy48DrawTriangle_0555_TEX0_TALPHA1_MOD0_GLOB0_BLEND0EPNS_8SWHelper8SWVertexEPvjPKNS0_13SWTextureInfoERNS0_9SWDiffuseE
005b8780 T __ZN4Sexy48DrawTriangle_0555_TEX0_TALPHA1_MOD0_GLOB0_BLEND1EPNS_8SWHelper8SWVertexEPvjPKNS0_13SWTextureInfoERNS0_9SWDiffuseE
005b8790 T __ZN4Sexy48DrawTriangle_0555_TEX0_TALPHA1_MOD0_GLOB1_BLEND0EPNS_8SWHelper8SWVertexEPvjPKNS0_13SWTextureInfoERNS0_9SWDiffuseE
005b87a0 T __ZN4Sexy20SWTri_AddDrawTriFuncEbbbbibPFvPNS_8SWHelper8SWVertexEPvjPKNS0_13SWTextureInfoERNS0_9SWDiffuseEE
005b8820 T __ZN4Sexy24SWTri_AddAllDrawTriFuncsEv
005b8d30 T __ZN4Sexy8SWHelper14SWDrawTriangleEbbbbPNS0_8SWVertexEPjjPKNS0_13SWTextureInfoERNS0_9SWDiffuseEib
005b8e00 T __ZN4Sexy8SWHelper11SWDrawShapeEPNS0_9XYZStructEiPNS_11MemoryImageERKNS_5ColorEiRKNS_5TRectIiEEPviibb
005ba500 t .text
005ba500 T __ZN4Sexy15ScrollbarWidget13SetHorizontalEb
005ba530 T __ZN4Sexy15ScrollbarWidget15ResizeScrollbarEiiii
005ba610 T __ZN4Sexy15ScrollbarWidget11SetMaxValueEd
005ba640 T __ZN4Sexy15ScrollbarWidget11SetPageSizeEd
005ba670 T __ZN4Sexy15ScrollbarWidget8AtBottomEv
005ba690 T __ZN4Sexy15ScrollbarWidget10GoToBottomEv
005ba6d0 T __ZN4Sexy15ScrollbarWidget13ButtonDepressEi
005ba6e0 T __ZN4Sexy15ScrollbarWidgetD1Ev
005ba6e0 T __ZN4Sexy15ScrollbarWidgetD2Ev
005ba720 T __ZN4Sexy15ScrollbarWidget9DrawThumbEPNS_8GraphicsEiiii
005ba910 T __ZN4Sexy15ScrollbarWidget18SetInvisIfNoScrollEb
005ba980 T __ZN4Sexy15ScrollbarWidget14ButtonDownTickEi
005ba9f0 T __ZThn128_N4Sexy15ScrollbarWidget14ButtonDownTickEi
005baa00 T __ZN4Sexy15ScrollbarWidget11ButtonPressEi
005baa60 T __ZN4Sexy15ScrollbarWidget8SetValueEd
005baad0 T __ZN4Sexy15ScrollbarWidget12GetTrackSizeEv
005bab00 T __ZN4Sexy15ScrollbarWidget10ClampValueEv
005bac50 T __ZThn128_N4Sexy15ScrollbarWidget13ButtonDepressEi
005bac60 T __ZN4Sexy15ScrollbarWidgetD0Ev
005bacb0 t __ZN4Sexy15ScrollbarWidget16GetThumbPositionEv.part.0
005bad60 T __ZN4Sexy15ScrollbarWidget16GetThumbPositionEv
005bad90 T __ZN4Sexy15ScrollbarWidget16SetThumbPositionEi
005bae30 T __ZN4Sexy15ScrollbarWidget12GetThumbSizeEv
005baef0 T __ZThn128_N4Sexy15ScrollbarWidget11ButtonPressEi
005baf40 T __ZN4Sexy15ScrollbarWidget12ThumbCompareEii
005bb010 T __ZN4Sexy15ScrollbarWidget4DrawEPNS_8GraphicsE
005bb360 T __ZN4Sexy15ScrollbarWidget6UpdateEv
005bb480 T __ZN4Sexy15ScrollbarWidget9MouseDownEiiii
005bb5f0 T __ZN4Sexy15ScrollbarWidget7MouseUpEiiii
005bb640 T __ZN4Sexy15ScrollbarWidget9MouseDragEii
005bb6d0 T __ZN4Sexy15ScrollbarWidgetC1EiPNS_14ScrollListenerE
005bb6d0 T __ZN4Sexy15ScrollbarWidgetC2EiPNS_14ScrollListenerE
005bb850 t .text
005bb850 T __ZN4Sexy18ScrollbuttonWidgetD1Ev
005bb850 T __ZN4Sexy18ScrollbuttonWidgetD2Ev
005bb860 T __ZN4Sexy18ScrollbuttonWidgetD0Ev
005bb890 T __ZN4Sexy18ScrollbuttonWidget4DrawEPNS_8GraphicsE
005bbc90 T __ZN4Sexy18ScrollbuttonWidgetC1EiPNS_14ButtonListenerEi
005bbc90 T __ZN4Sexy18ScrollbuttonWidgetC2EiPNS_14ButtonListenerEi
005bbcd0 t .text
005bbcd0 T __ZN4Sexy7SexyApp14CheckSignatureERKNS_6BufferERKNSt7__cxx1112basic_stringIcSt11char_traitsIcESaIcEEE
005bbcd0 T __ZN4Sexy7SexyApp8ValidateERKNSt7__cxx1112basic_stringIcSt11char_traitsIcESaIcEEES8_
005bbce0 T __ZN4Sexy7SexyApp13OpenUpdateURLEv
005bbcf0 T __ZN4Sexy7SexyApp12PreTerminateEv
005bbcf0 T __ZN4Sexy7SexyApp14PreDisplayHookEv
005bbd00 T __ZN4Sexy7SexyApp20ShouldCheckForUpdateEv
005bbd70 T __ZN4Sexy7SexyApp18UpdateCheckQueriedEv
005bbda0 t __ZNSt8_Rb_treeINSt7__cxx1112basic_stringIcSt11char_traitsIcESaIcEEESt4pairIKS5_S5_ESt10_Select1stIS8_ESt4lessIS5_ESaIS8_EE8_M_eraseEPSt13_Rb_tree_nodeIS8_E.isra.0
005bbe20 T __ZN4Sexy7SexyAppD1Ev
005bbe20 T __ZN4Sexy7SexyAppD2Ev
005bbfb0 T __ZN4Sexy7SexyAppD0Ev
005bbfd0 T __ZN4Sexy7SexyApp18InitPropertiesHookEv
005bc570 T __ZN4Sexy7SexyAppC1Ev
005bc570 T __ZN4Sexy7SexyAppC2Ev
005bcb60 T __ZN4Sexy7SexyApp16OpenHTMLTemplateERKNSt7__cxx1112basic_stringIcSt11char_traitsIcESaIcEEERKSt3mapIS6_S6_St4lessIS6_ESaISt4pairIS7_S6_EEE
005bd670 t __ZNSt8_Rb_treeINSt7__cxx1112basic_stringIcSt11char_traitsIcESaIcEEESt4pairIKS5_S5_ESt10_Select1stIS8_ESt4lessIS5_ESaIS8_EE7_M_copyILb0ENSE_11_Alloc_nodeEEEPSt18_Rb_tree_node_basePSt13_Rb_tree_nodeIS8_ESI_RT0_.isra.0
005bd7c0 T __ZN4Sexy7SexyApp15GetSEHWebParamsEPSt3mapINSt7__cxx1112basic_stringIcSt11char_traitsIcESaIcEEES7_St4lessIS7_ESaISt4pairIKS7_S7_EEE
005bdad0 T __ZN4Sexy7SexyApp16OpenRegisterPageESt3mapINSt7__cxx1112basic_stringIcSt11char_traitsIcESaIcEEES7_St4lessIS7_ESaISt4pairIKS7_S7_EEE
005bebd0 T __ZN4Sexy7SexyApp16OpenRegisterPageEv
005bec40 T __ZN4Sexy7SexyApp16ReadFromRegistryEv
005bfc30 T __ZN4Sexy7SexyApp15WriteToRegistryEv
005c01c0 T __ZN4Sexy7SexyApp16URLOpenSucceededERKNSt7__cxx1112basic_stringIcSt11char_traitsIcESaIcEEE
005c01f0 T __ZN4Sexy7SexyApp18HandleCmdLineParamERKNSt7__cxx1112basic_stringIcSt11char_traitsIcESaIcEEES8_
005c0e30 T __ZN4Sexy7SexyApp14GetGameSEHInfoB5cxx11Ev
005c1b10 T __ZN4Sexy7SexyApp4InitEv
005c1cf0 T __ZN4Sexy7SexyApp12UpdateFramesEv
005c1d00 t .text
005c1d00 T __ZN4Sexy11SexyAppBase13AppCanRestoreEv
005c1d10 T __ZN4Sexy11SexyAppBase14GetDialogCountEv
005c1d20 T __ZN4Sexy11SexyAppBase9AddDialogEPNS_6DialogE
005c1d50 T __ZN4Sexy11SexyAppBase13URLOpenFailedERKNSt7__cxx1112basic_stringIcSt11char_traitsIcESaIcEEE
005c1d60 T __ZN4Sexy11SexyAppBase15GetSEHWebParamsEPSt3mapINSt7__cxx1112basic_stringIcSt11char_traitsIcESaIcEEES7_St4lessIS7_ESaISt4pairIKS7_S7_EEE
005c1d70 T __ZN4Sexy11SexyAppBase17DebugKeyDownAsyncEibb
005c1d80 T __ZN4Sexy11SexyAppBase10ModalCloseEv
005c1d80 T __ZN4Sexy11SexyAppBase12PreTerminateEv
005c1d80 T __ZN4Sexy11SexyAppBase12ShutdownHookEv
005c1d80 T __ZN4Sexy11SexyAppBase13Done3dTestingEv
005c1d80 T __ZN4Sexy11SexyAppBase14PreDisplayHookEv
005c1d80 T __ZN4Sexy11SexyAppBase17CloseRequestAsyncEv
005c1d80 T __ZN4Sexy11SexyAppBase17LoadingThreadProcEv
005c1d80 T __ZN4Sexy11SexyAppBase18InitPropertiesHookEv
005c1d80 T __ZN4Sexy11SexyAppBase22LoadingThreadCompletedEv
005c1d80 T __ZN4Sexy11SexyAppBase22PreDDInterfaceInitHookEv
005c1d80 T __ZN4Sexy11SexyAppBase23PostDDInterfaceInitHookEv
005c1d80 T __ZN4Sexy11SexyAppBase8GotFocusEv
005c1d80 T __ZN4Sexy11SexyAppBase8InitHookEv
005c1d80 T __ZN4Sexy11SexyAppBase9LostFocusEv
005c1d80 T __ZN4Sexy11SexyAppBase9ModalOpenEv
005c1d90 T __ZN4Sexy11SexyAppBase10DoMainLoopEv
005c1de0 T __ZN4Sexy11SexyAppBase14CheckSignatureERKNS_6BufferERKNSt7__cxx1112basic_stringIcSt11char_traitsIcESaIcEEE
005c1df0 T __ZN4Sexy11SexyAppBase13ChangeDirHookEPKc
005c1e00 T __ZN4Sexy11SexyAppBase10PlaySampleEi
005c1e50 T __ZN4Sexy11SexyAppBase10PlaySampleEii
005c1ec0 T __ZN4Sexy11SexyAppBase7IsMutedEv
005c1ed0 T __ZN4Sexy11SexyAppBase14GetMusicVolumeEv
005c1ee0 T __ZN4Sexy11SexyAppBase14SetMusicVolumeEd
005c1f20 T __ZN4Sexy11SexyAppBase12GetSfxVolumeEv
005c1f30 T __ZN4Sexy11SexyAppBase12SetSfxVolumeEd
005c1f70 T __ZN4Sexy11SexyAppBase15GetMasterVolumeEv
005c1f80 T __ZN4Sexy11SexyAppBase15SetMasterVolumeEd
005c1fa0 T __ZN4Sexy11SexyAppBase21DeleteNativeImageDataEv
005c1fe0 T __ZN4Sexy11SexyAppBase12ReInitImagesEv
005c2020 T __ZN4Sexy11SexyAppBase9NewDialogEibRKNSt7__cxx1112basic_stringIcSt11char_traitsIcESaIcEEES8_S8_i
005c2090 t __ZL9GetPakPtrv
005c2150 T __ZN4Sexy11SexyAppBase19LogScreenSaverErrorERKNSt7__cxx1112basic_stringIcSt11char_traitsIcESaIcEEE
005c21e0 T __Z15EnumCloseThing2P6HWND__l@8
005c2280 T __ZN4Sexy11SexyAppBase12IsAltKeyUsedEj
005c22b0 T __ZN4Sexy11SexyAppBase20DeleteExtraImageDataEv
005c2310 T __ZN4Sexy11SexyAppBase13EnforceCursorEv
005c25c0 T __ZN4Sexy11SexyAppBase20CreateMusicInterfaceEP6HWND__
005c2670 T __ZN4Sexy11SexyAppBase8GetImageERKNSt7__cxx1112basic_stringIcSt11char_traitsIcESaIcEEEb
005c2760 t ___tcf_ZN4Sexy11gSEHCatcherE
005c2770 T __ZN4Sexy11SexyAppBase10BeginPopupEv
005c27c0 T __ZN4Sexy11SexyAppBase16SetAlphaDisabledEb
005c2820 t __ZL7p_fopenPKcS0_.constprop.0
005c28a0 t __ZL7p_fseekP5PFILEli.constprop.0.isra.0
005c2900 T __ZN4Sexy11SexyAppBase24GetLoadingThreadProgressEv
005c2950 T __ZN4Sexy11SexyAppBase15DoUpdateFramesFEf
005c2980 t __ZNSt8_Rb_treeIN4Sexy11PixelFormatESt4pairIKS1_S2_IiiEESt10_Select1stIS5_ESt4lessIS1_ESaIS5_EE24_M_get_insert_unique_posERS3_.isra.0
005c2a20 T __ZN4Sexy11SexyAppBase16SafeDeleteWidgetEPNS_6WidgetE
005c2a70 t __ZNSt8_Rb_treeIP6HWND__St4pairIKS1_7tagRECTESt10_Select1stIS5_ESt4lessIS1_ESaIS5_EE24_M_get_insert_unique_posERS3_.isra.0
005c2b20 t __ZNSt8_Rb_treeIN4Sexy11PixelFormatESt4pairIKS1_S2_IiiEESt10_Select1stIS5_ESt4lessIS1_ESaIS5_EE29_M_get_insert_hint_unique_posESt23_Rb_tree_const_iteratorIS5_ERS3_.isra.0
005c2c20 t __ZNSt7__cxx1112basic_stringIcSt11char_traitsIcESaIcEEaSEOS4_.isra.0
005c2cf0 t __ZL8p_fcloseP5PFILE.isra.0
005c2d40 t __ZSt4endlIcSt11char_traitsIcEERSt13basic_ostreamIT_T0_ES6_.isra.0
005c2db0 T __ZN4Sexy11SexyAppBase19DialogButtonDepressEii
005c2e10 T __ZN4Sexy11SexyAppBase17DialogButtonPressEii
005c2e70 T __ZN4Sexy11SexyAppBase21LoadingThreadProcStubEPv
005c2ee0 T __ZN4Sexy11SexyAppBase7OpenURLERKNSt7__cxx1112basic_stringIcSt11char_traitsIcESaIcEEEb
005c2fe0 t __ZNSt7__cxx1112basic_stringIcSt11char_traitsIcESaIcEE12_M_constructIPKcEEvT_S8_St20forward_iterator_tag.isra.0
005c30a0 T __ZN4Sexy11SexyAppBase23HandleNotifyGameMessageEii
005c3130 T __ZN4Sexy11SexyAppBase9GetDialogEi
005c31a0 t __ZNSt7__cxx1112basic_stringIcSt11char_traitsIcESaIcEEC2EPKcRKS3_.isra.0
005c3260 T __ZN4Sexy11SexyAppBase8EndPopupEv
005c3300 T __ZThn4_N4Sexy11SexyAppBase17DialogButtonPressEii
005c3380 T __ZThn4_N4Sexy11SexyAppBase19DialogButtonDepressEii
005c3400 T __ZN4Sexy11SexyAppBase10KillDialogEibb
005c3610 T __ZN4Sexy11SexyAppBase10KillDialogEi
005c3660 T __ZN4Sexy11SexyAppBase6MsgBoxERKNSt7__cxx1112basic_stringIcSt11char_traitsIcESaIcEEES8_i
005c3770 t __ZNSt8_Rb_treeIP6HWND__St4pairIKS1_7tagRECTESt10_Select1stIS5_ESt4lessIS1_ESaIS5_EE8_M_eraseEPSt13_Rb_tree_nodeIS5_E.isra.0
005c3930 t ___tcf_ZZL27ChangeDisplayWindowEnumProcP6HWND__lE4aMap
005c3970 t __ZNSt8_Rb_treeIiiSt9_IdentityIiESt4lessIiESaIiEE8_M_eraseEPSt13_Rb_tree_nodeIiE.isra.0
005c3b30 t __ZNSt8_Rb_treeIN4Sexy11PixelFormatESt4pairIKS1_S2_IiiEESt10_Select1stIS5_ESt4lessIS1_ESaIS5_EE8_M_eraseEPSt13_Rb_tree_nodeIS5_E.isra.0
005c3cf0 t __ZNSt8_Rb_treeIiSt4pairIKiPN4Sexy11MemoryImageEESt10_Select1stIS5_ESt7greaterIiESaIS5_EE8_M_eraseEPSt13_Rb_tree_nodeIS5_E.isra.0
005c3eb0 t __ZNSt8_Rb_treeIPvSt4pairIKS0_iESt10_Select1stIS3_ESt4lessIS0_ESaIS3_EE8_M_eraseEPSt13_Rb_tree_nodeIS3_E.isra.0
005c4070 t __ZNSt8_Rb_treeIPN4Sexy11MemoryImageES2_St9_IdentityIS2_ESt4lessIS2_ESaIS2_EE8_M_eraseEPSt13_Rb_tree_nodeIS2_E.isra.0
005c4230 T __ZN4Sexy11SexyAppBase10KillDialogEPNS_6DialogE
005c42a0 t __ZNSt8_Rb_treeIiSt4pairIKiPN4Sexy6DialogEESt10_Select1stIS5_ESt4lessIiESaIS5_EE8_M_eraseEPSt13_Rb_tree_nodeIS5_E.isra.0
005c4460 t __ZNSt8_Rb_treeISt4pairINSt7__cxx1112basic_stringIcSt11char_traitsIcESaIcEEES6_ES0_IKS7_N4Sexy11SharedImageEESt10_Select1stISB_ESt4lessIS7_ESaISB_EE8_M_eraseEPSt13_Rb_tree_nodeISB_E.isra.0
005c44e0 t __ZNSt8_Rb_treeINSt7__cxx1112basic_stringIcSt11char_traitsIcESaIcEEESt4pairIKS5_NS1_IwS2_IwESaIwEEEESt10_Select1stISB_ESt4lessIS5_ESaISB_EE8_M_eraseEPSt13_Rb_tree_nodeISB_E.isra.0
005c4560 T __ZN4Sexy11SexyAppBase8DoDialogEibRKNSt7__cxx1112basic_stringIcSt11char_traitsIcESaIcEEES8_S8_i
005c4690 T __ZN4Sexy11SexyAppBase10SEHOccuredEv
005c4730 t __ZNSt8_Rb_treeINSt7__cxx1112basic_stringIcSt11char_traitsIcESaIcEEESt4pairIKS5_St6vectorIS5_SaIS5_EEESt10_Select1stISB_ESt4lessIS5_ESaISB_EE8_M_eraseEPSt13_Rb_tree_nodeISB_E.isra.0
005c47e0 t __ZNSt8_Rb_treeINSt7__cxx1112basic_stringIcSt11char_traitsIcESaIcEEESt4pairIKS5_NS1_IwS2_IwESaIwEEEESt10_Select1stISB_ESt4lessIS5_ESaISB_EE4findERS7_.isra.0
005c48a0 t __ZNSt8_Rb_treeINSt7__cxx1112basic_stringIcSt11char_traitsIcESaIcEEESt4pairIKS5_dESt10_Select1stIS8_ESt4lessIS5_ESaIS8_EE4findERS7_.isra.0
005c4960 t __ZNSt8_Rb_treeINSt7__cxx1112basic_stringIcSt11char_traitsIcESaIcEEESt4pairIKS5_iESt10_Select1stIS8_ESt4lessIS5_ESaIS8_EE4findERS7_.isra.0
005c4a20 t __ZNSt8_Rb_treeINSt7__cxx1112basic_stringIcSt11char_traitsIcESaIcEEESt4pairIKS5_bESt10_Select1stIS8_ESt4lessIS5_ESaIS8_EE4findERS7_.isra.0
005c4ae0 t __ZNSt8_Rb_treeINSt7__cxx1112basic_stringIcSt11char_traitsIcESaIcEEESt4pairIKS5_dESt10_Select1stIS8_ESt4lessIS5_ESaIS8_EE8_M_eraseEPSt13_Rb_tree_nodeIS8_E.isra.0
005c4db0 t __ZNSt8_Rb_treeINSt7__cxx1112basic_stringIcSt11char_traitsIcESaIcEEESt4pairIKS5_iESt10_Select1stIS8_ESt4lessIS5_ESaIS8_EE8_M_eraseEPSt13_Rb_tree_nodeIS8_E.isra.0
005c5080 t __ZNSt8_Rb_treeINSt7__cxx1112basic_stringIcSt11char_traitsIcESaIcEEESt4pairIKS5_bESt10_Select1stIS8_ESt4lessIS5_ESaIS8_EE8_M_eraseEPSt13_Rb_tree_nodeIS8_E.isra.0
005c5350 T __ZN4Sexy11SexyAppBase4MuteEb
005c5430 T __ZN4Sexy11SexyAppBase6UnmuteEb
005c5530 T __ZN4Sexy11SexyAppBase12ParseCmdLineERKNSt7__cxx1112basic_stringIcSt11char_traitsIcESaIcEEE
005c5820 T __ZN4Sexy11SexyAppBase9AddDialogEiPNS_6DialogE
005c5a40 t __ZL20MarkerListDialogProcP6HWND__jjl@16
005c5e10 T __ZN4Sexy11SexyAppBase15NotifyCrashHookB5cxx11Ev
005c5e30 T __ZN4Sexy11SexyAppBase6MsgBoxERKNSt7__cxx1112basic_stringIwSt11char_traitsIwESaIwEEES8_i
005c5f80 t __ZN4Sexy11SexyAppBase8ShutdownEv.part.0
005c6190 T __ZN4Sexy11SexyAppBase8ShutdownEv
005c6200 T __ZN4Sexy11SexyAppBase16URLOpenSucceededERKNSt7__cxx1112basic_stringIcSt11char_traitsIcESaIcEEE
005c6270 T __ZN4Sexy11SexyAppBase10WindowProcEP6HWND__jjl@16
005c76e0 T __ZN4Sexy11SexyAppBase17GetProductVersionERKNSt7__cxx1112basic_stringIcSt11char_traitsIcESaIcEEE
005c7870 T __ZN4Sexy11SexyAppBase14DoParseCmdLineEv
005c79d0 t __ZL17GetMaxDemoFileNumRKNSt7__cxx1112basic_stringIcSt11char_traitsIcESaIcEEEib
005c7f40 t __ZL20JumpToTimeDialogProcP6HWND__jjl@16
005c8410 T __ZN4Sexy11SexyAppBase14GetGameSEHInfoB5cxx11Ev
005c9230 T __Z18GetSHGetFolderPathPKcPP11HINSTANCE__
005c9290 T __ZN4Sexy11SexyAppBase18ClearUpdateBacklogEb
005c92d0 T __ZN4Sexy11SexyAppBase13IsScreenSaverEv
005c92e0 T __ZN4Sexy11SexyAppBase18DemoRegisterHandleEPv
005c9440 T __ZN4Sexy11SexyAppBase17DemoWaitForHandleEPv
005c94f0 T __ZN4Sexy11SexyAppBase20WaitForLoadingThreadEv
005c9530 T __ZN4Sexy11SexyAppBase14SetCursorImageEiPNS_5ImageE
005c9570 T __ZN4Sexy11SexyAppBase9EraseFileERKNSt7__cxx1112basic_stringIcSt11char_traitsIcESaIcEEE
005c95a0 T __ZN4Sexy11SexyAppBase23RestoreScreenResolutionEv
005c9620 T __ZN4Sexy11SexyAppBase6DoExitEi
005c9690 T __ZN4Sexy11SexyAppBase24HandleGameAlreadyRunningEv
005c96e0 T __Z14EnumCloseThingP6HWND__l@8
005c9770 T __ZN4Sexy11SexyAppBase10RehupFocusEv
005c9890 T __ZN4Sexy11SexyAppBase13ClearKeysDownEv
005c98e0 T __ZN4Sexy11SexyAppBase20WriteDemoTimingBlockEv
005c99a0 T __ZN4Sexy11SexyAppBase14DoUpdateFramesEv
005c9b50 T __ZN4Sexy11SexyAppBase18PrepareDemoCommandEb
005c9c30 T __ZN4Sexy11SexyAppBase14DemoSyncBufferEPNS_6BufferE
005c9d60 T __ZN4Sexy11SexyAppBase18DemoAssertIntEqualEi
005c9e20 T __ZN4Sexy11SexyAppBase18ReadBufferFromFileERKNSt7__cxx1112basic_stringIcSt11char_traitsIcESaIcEEEPNS_6BufferEb
005ca110 T __ZN4Sexy11SexyAppBase10FileExistsERKNSt7__cxx1112basic_stringIcSt11char_traitsIcESaIcEEE
005ca250 t __ZN4Sexy11SexyAppBase11ProcessDemoEv.part.0
005ca710 T __ZN4Sexy11SexyAppBase21DemoAssertStringEqualERKNSt7__cxx1112basic_stringIcSt11char_traitsIcESaIcEEE
005ca800 T __ZN4Sexy11SexyAppBase16WriteBytesToFileERKNSt7__cxx1112basic_stringIcSt11char_traitsIcESaIcEEEPKvm
005caa20 T __ZN4Sexy11SexyAppBase17WriteBufferToFileERKNSt7__cxx1112basic_stringIcSt11char_traitsIcESaIcEEEPKNS_6BufferE
005caa60 T __ZN4Sexy11SexyAppBase13RegistryWriteERKNSt7__cxx1112basic_stringIcSt11char_traitsIcESaIcEEEmPKhm
005cb190 T __ZN4Sexy11SexyAppBase19RegistryWriteStringERKNSt7__cxx1112basic_stringIcSt11char_traitsIcESaIcEEES8_
005cb1d0 T __ZN4Sexy11SexyAppBase20RegistryWriteIntegerERKNSt7__cxx1112basic_stringIcSt11char_traitsIcESaIcEEEi
005cb200 T __ZN4Sexy11SexyAppBase20RegistryWriteBooleanERKNSt7__cxx1112basic_stringIcSt11char_traitsIcESaIcEEEb
005cb240 T __ZN4Sexy11SexyAppBase17RegistryWriteDataERKNSt7__cxx1112basic_stringIcSt11char_traitsIcESaIcEEEPKhm
005cb270 T __ZN4Sexy11SexyAppBase15WriteToRegistryEv
005cb6c0 T __ZN4Sexy11SexyAppBase15RegistryReadKeyERKNSt7__cxx1112basic_stringIcSt11char_traitsIcESaIcEEEPmPhS9_P6HKEY__
005cbe20 T __ZN4Sexy11SexyAppBase12RegistryReadERKNSt7__cxx1112basic_stringIcSt11char_traitsIcESaIcEEEPmPhS9_
005cbe60 T __ZN4Sexy11SexyAppBase18RegistryReadStringERKNSt7__cxx1112basic_stringIcSt11char_traitsIcESaIcEEEPS6_
005cbf20 T __ZN4Sexy11SexyAppBase19RegistryReadIntegerERKNSt7__cxx1112basic_stringIcSt11char_traitsIcESaIcEEEPi
005cbf80 T __ZN4Sexy11SexyAppBase16RegistryReadDataERKNSt7__cxx1112basic_stringIcSt11char_traitsIcESaIcEEEPhPm
005cbfd0 T __ZN4Sexy11SexyAppBase19RegistryReadBooleanERKNSt7__cxx1112basic_stringIcSt11char_traitsIcESaIcEEEPb
005cc040 T __ZN4Sexy11SexyAppBase15DemoCheckHandleEPv
005cc2c0 T __ZN4Sexy11SexyAppBase11ProcessDemoEv
005cc2e0 T __ZN4Sexy11SexyAppBase15ShowMemoryUsageEv
005cd1c0 T __ZN4Sexy11SexyAppBase23ProcessDeferredMessagesEb
005ce440 T __ZN4Sexy11SexyAppBase18StartLoadingThreadEv
005ce4a0 T __ZN4Sexy11SexyAppBase16CursorThreadProcEv
005ce5e0 T __ZN4Sexy11SexyAppBase20CursorThreadProcStubEPv
005ce610 T __ZN4Sexy11SexyAppBase17StartCursorThreadEv
005ce670 T __ZN4Sexy11SexyAppBase21ProcessSafeDeleteListEv
005ce700 T __ZN4Sexy11SexyAppBase5StartEv
005cea80 T __ZN4Sexy11SexyAppBase14UpdateFTimeAccEv
005ceaf0 T __ZN4Sexy11SexyAppBase7ProcessEb
005cf3a0 t __ZN4Sexy11SexyAppBase13UpdateAppStepEPb.part.0
005cf570 T __ZN4Sexy11SexyAppBase13UpdateAppStepEPb
005cf5a0 T __ZN4Sexy11SexyAppBase9UpdateAppEv
005cf600 T __ZN4Sexy11SexyAppBase17ShowResourceErrorEb
005cf680 T __ZN4Sexy11SexyAppBase20LoadResourceManifestEv
005cf750 T __ZN4Sexy11SexyAppBase10GetBooleanERKNSt7__cxx1112basic_stringIcSt11char_traitsIcESaIcEEE
005cf7a0 T __ZN4Sexy11SexyAppBase10GetBooleanERKNSt7__cxx1112basic_stringIcSt11char_traitsIcESaIcEEEb
005cf7f0 T __ZN4Sexy11SexyAppBase10GetIntegerERKNSt7__cxx1112basic_stringIcSt11char_traitsIcESaIcEEE
005cf840 T __ZN4Sexy11SexyAppBase10GetIntegerERKNSt7__cxx1112basic_stringIcSt11char_traitsIcESaIcEEEi
005cf890 T __ZN4Sexy11SexyAppBase9GetDoubleERKNSt7__cxx1112basic_stringIcSt11char_traitsIcESaIcEEE
005cf8e0 T __ZN4Sexy11SexyAppBase9GetDoubleERKNSt7__cxx1112basic_stringIcSt11char_traitsIcESaIcEEEd
005cf930 T __ZN4Sexy11SexyAppBase9GetStringERKNSt7__cxx1112basic_stringIcSt11char_traitsIcESaIcEEE
005cf9a0 T __ZN4Sexy11SexyAppBase15CopyToClipboardERKNSt7__cxx1112basic_stringIcSt11char_traitsIcESaIcEEE
005cfb60 T __ZN4Sexy11SexyAppBase9SetCursorEi
005cfb90 T __ZN4Sexy11SexyAppBase9GetCursorEv
005cfba0 T __ZN4Sexy11SexyAppBase19EnableCustomCursorsEb
005cfbd0 T __ZN4Sexy11SexyAppBase13ColorizeImageEPNS_5ImageERKNS_5ColorE
005cfe80 T __ZN4Sexy11SexyAppBase11MirrorImageEPNS_5ImageE
005cff60 T __ZN4Sexy11SexyAppBase9FlipImageEPNS_5ImageE
005d0050 T __ZN4Sexy11SexyAppBase14RotateImageHueEPNS_11MemoryImageEi
005d03c0 T __ZN4Sexy11SexyAppBase8HSLToRGBEiii
005d0550 T __ZN4Sexy11SexyAppBase8RGBToHSLEiii
005d06a0 T __ZN4Sexy11SexyAppBase8HSLToRGBEPKmPmi
005d0710 T __ZN4Sexy11SexyAppBase8RGBToHSLEPKmPmi
005d0780 T __ZN4Sexy11SexyAppBase16PrecacheAdditiveEPNS_11MemoryImageE
005d07a0 T __ZN4Sexy11SexyAppBase13PrecacheAlphaEPNS_11MemoryImageE
005d07c0 T __ZN4Sexy11SexyAppBase14PrecacheNativeEPNS_11MemoryImageE
005d07e0 T __ZN4Sexy11SexyAppBase14AddMemoryImageEPNS_11MemoryImageE
005d08f0 T __ZN4Sexy11SexyAppBase17RemoveMemoryImageEPNS_11MemoryImageE
005d09d0 T __ZN4Sexy11SexyAppBase12Remove3DDataEPNS_11MemoryImageE
005d09f0 T __ZN4Sexy11SexyAppBase15Is3DAcceleratedEv
005d0a00 T __ZN4Sexy11SexyAppBase25Is3DAccelerationSupportedEv
005d0a30 T __ZN4Sexy11SexyAppBase27Is3DAccelerationRecommendedEv
005d0a60 T __ZN4Sexy11SexyAppBase19DemoSyncRefreshRateEv
005d0b00 T __ZN4Sexy11SexyAppBase15InitDDInterfaceEv
005d0c40 T __ZN4Sexy11SexyAppBase17CleanSharedImagesEv
005d0d40 T __ZN4Sexy11SexyAppBase12UpdateFramesEv
005d0d90 t __ZL27ChangeDisplayWindowEnumProcP6HWND__l@8
005d0fa0 T __ZN4Sexy11SexyAppBase18RegistryEraseValueERKNSt7__cxx1112basic_stringIcSt11char_traitsIcESaIcEEE
005d1500 T __ZN4Sexy11SexyAppBase16RegistryEraseKeyERKNSt7__cxx1112basic_stringIcSt11char_traitsIcESaIcEEE
005d1aa0 T __ZN4Sexy11SexyAppBase15GetStringVectorERKNSt7__cxx1112basic_stringIcSt11char_traitsIcESaIcEEE
005d1c20 T __ZN4Sexy11SexyAppBase9GetStringERKNSt7__cxx1112basic_stringIcSt11char_traitsIcESaIcEEES8_
005d1ca0 T __ZN4Sexy11SexyAppBase15Set3DAccleratedEbb
005d1f00 T __ZN4Sexy11SexyAppBase16SwitchScreenModeEbbb
005d2000 T __ZN4Sexy11SexyAppBase16SwitchScreenModeEv
005d2050 T __ZN4Sexy11SexyAppBase16SwitchScreenModeEb
005d20a0 T __ZN4Sexy11SexyAppBase6RedrawEPNS_5TRectIiEE
005d2400 T __ZN4Sexy11SexyAppBase10MakeWindowEv
005d2d20 T __ZN4Sexy11SexyAppBase18HandleCmdLineParamERKNSt7__cxx1112basic_stringIcSt11char_traitsIcESaIcEEES8_
005d3560 T __ZN4Sexy11SexyAppBase13DemoAddMarkerERKNSt7__cxx1112basic_stringIcSt11char_traitsIcESaIcEEE
005d36f0 T __ZN4Sexy11SexyAppBase9SetDoubleERKNSt7__cxx1112basic_stringIcSt11char_traitsIcESaIcEEEd
005d39a0 T __ZN4Sexy11SexyAppBase10SetBooleanERKNSt7__cxx1112basic_stringIcSt11char_traitsIcESaIcEEEb
005d3c50 T __ZN4Sexy11SexyAppBase10SetIntegerERKNSt7__cxx1112basic_stringIcSt11char_traitsIcESaIcEEEi
005d3ef0 T __ZN4Sexy11SexyAppBase16ReadFromRegistryEv
005d4790 T __ZN4Sexy11SexyAppBase5PopupERKNSt7__cxx1112basic_stringIwSt11char_traitsIwESaIwEEE
005d4a50 T __ZN4Sexy11SexyAppBase5PopupERKNSt7__cxx1112basic_stringIcSt11char_traitsIcESaIcEEE
005d4cc0 T __ZN4Sexy11SexyAppBase9SetStringERKNSt7__cxx1112basic_stringIcSt11char_traitsIcESaIcEEERKNS2_IwS3_IwESaIwEEE
005d4e20 T __ZN4Sexy11SexyAppBase14GetSharedImageERKNSt7__cxx1112basic_stringIcSt11char_traitsIcESaIcEEES8_Pb
005d5230 T __ZN4Sexy11SexyAppBase18RegistryGetSubKeysERKNSt7__cxx1112basic_stringIcSt11char_traitsIcESaIcEEEPSt6vectorIS6_SaIS6_EE
005d5cc0 T __ZN4Sexy11SexyAppBaseC1Ev
005d5cc0 T __ZN4Sexy11SexyAppBaseC2Ev
005d7c10 T __ZN4Sexy11SexyAppBase14ReadDemoBufferERNSt7__cxx1112basic_stringIcSt11char_traitsIcESaIcEEE
005d86b0 T __ZN4Sexy11SexyAppBase4InitEv
005d9c90 T __ZN4Sexy11SexyAppBase15WriteDemoBufferEv
005d9eb0 T __ZN4Sexy11SexyAppBaseD1Ev
005d9eb0 T __ZN4Sexy11SexyAppBaseD2Ev
005dac50 T __ZN4Sexy11SexyAppBaseD0Ev
005dac70 T __ZN4Sexy11SexyAppBase14DemoSyncStringEPNSt7__cxx1112basic_stringIcSt11char_traitsIcESaIcEEE
005dad90 T __ZN4Sexy11SexyAppBase12GetClipboardB5cxx11Ev
005dae60 T __ZN4Sexy11SexyAppBase11DemoSyncIntEPi
005daec0 T __ZN4Sexy11SexyAppBase12DemoSyncBoolEPb
005daf20 T __ZN4Sexy11SexyAppBase14TakeScreenshotEv
005db7d0 T __ZN4Sexy11SexyAppBase15DumpProgramInfoEv
005dfb50 T __ZN4Sexy11SexyAppBase12DebugKeyDownEi
005e0000 t ___tcf_ZZL12CalculateFPSvE5aFont
005e0010 t ___tcf_ZZL13FPSDrawCoordsiiE5aFont
005e0020 t ___tcf_ZZL21CalculateDemoTimeLeftvE5aFont
005e0030 T __ZN4Sexy11SexyAppBase14LoadPropertiesERKNSt7__cxx1112basic_stringIcSt11char_traitsIcESaIcEEEbb
005e0670 T __ZN4Sexy11SexyAppBase14LoadPropertiesEv
005e0730 T __ZN4Sexy11SexyAppBase20CreateCrossfadeImageEPNS_5ImageERKNS_5TRectIiEES2_S6_d
005e0a70 T __ZN4Sexy11SexyAppBase20CreateColorizedImageEPNS_5ImageERKNS_5ColorE
005e0dd0 T __ZN4Sexy11SexyAppBase9CopyImageEPNS_5ImageERKNS_5TRectIiEE
005e0e80 T __ZN4Sexy11SexyAppBase9CopyImageEPNS_5ImageE
005e0ee0 T __ZN4Sexy11SexyAppBase14DrawDirtyStuffEv
005e1e60 t .text
005e1e60 T __ZN4Sexy11SexyMatrix3C1Ev
005e1e60 T __ZN4Sexy11SexyMatrix3C2Ev
005e1e70 T __ZN4Sexy11SexyMatrix310ZeroMatrixEv
005e1e90 T __ZN4Sexy11SexyMatrix312LoadIdentityEv
005e1eb0 T __ZNK4Sexy11SexyMatrix3mlERKS0_
005e1f10 T __ZNK4Sexy11SexyMatrix3mlERKNS_11SexyVector2E
005e1f50 T __ZNK4Sexy11SexyMatrix3mlERKNS_11SexyVector3E
005e1fb0 T __ZN4Sexy11SexyMatrix3mLERKS0_
005e2050 T __ZN4Sexy15SexyTransform2DC1Ev
005e2050 T __ZN4Sexy15SexyTransform2DC2Ev
005e2070 T __ZN4Sexy15SexyTransform2DC1Eb
005e2070 T __ZN4Sexy15SexyTransform2DC2Eb
005e20a0 T __ZN4Sexy15SexyTransform2DC1ERKNS_11SexyMatrix3E
005e20a0 T __ZN4Sexy15SexyTransform2DC2ERKNS_11SexyMatrix3E
005e20e0 T __ZN4Sexy15SexyTransform2DaSERKNS_11SexyMatrix3E
005e2120 T __ZN4Sexy15SexyTransform2D9TranslateEff
005e21f0 T __ZN4Sexy15SexyTransform2D9RotateRadEf
005e22f0 t __ZNK4Sexy9Transform10CalcMatrixEv.part.0
005e23a0 T __ZN4Sexy15SexyTransform2D9RotateDegEf
005e23c0 T __ZN4Sexy15SexyTransform2D5ScaleEff
005e2490 T __ZN4Sexy9TransformC1Ev
005e2490 T __ZN4Sexy9TransformC2Ev
005e24c0 T __ZN4Sexy9Transform5ResetEv
005e24f0 T __ZN4Sexy9Transform9TranslateEff
005e2550 T __ZN4Sexy9Transform9RotateRadEf
005e25b0 T __ZN4Sexy9Transform9RotateDegEf
005e2620 T __ZN4Sexy9Transform5ScaleEff
005e26f0 T __ZN4Sexy9Transform11MakeComplexEv
005e2710 T __ZNK4Sexy9Transform10CalcMatrixEv
005e27d0 T __ZNK4Sexy9Transform9GetMatrixEv
005e28a0 t .text
005e28a0 T __ZN4Sexy11SharedImageC1Ev
005e28a0 T __ZN4Sexy11SharedImageC2Ev
005e28b0 T __ZN4Sexy14SharedImageRefC1ERKS0_
005e28b0 T __ZN4Sexy14SharedImageRefC2ERKS0_
005e28d0 T __ZN4Sexy14SharedImageRefC1Ev
005e28d0 T __ZN4Sexy14SharedImageRefC2Ev
005e28f0 T __ZN4Sexy14SharedImageRefC1EPNS_11SharedImageE
005e28f0 T __ZN4Sexy14SharedImageRefC2EPNS_11SharedImageE
005e2910 T __ZN4Sexy14SharedImageRefD1Ev
005e2910 T __ZN4Sexy14SharedImageRefD2Ev
005e2980 T __ZN4Sexy14SharedImageRef7ReleaseEv
005e2a00 T __ZN4Sexy14SharedImageRefaSERKS0_
005e2a60 T __ZN4Sexy14SharedImageRefaSEPNS_11SharedImageE
005e2ac0 T __ZN4Sexy14SharedImageRefaSEPNS_11MemoryImageE
005e2b10 T __ZN4Sexy14SharedImageRefptEv
005e2b30 T __ZN4Sexy14SharedImageRefcvPNS_5ImageEEv
005e2b50 T __ZN4Sexy14SharedImageRefcvPNS_11MemoryImageEEv
005e2b70 T __ZN4Sexy14SharedImageRefcvPNS_7DDImageEEv
005e2b80 t .text
005e2b80 T __ZN4Sexy6Slider8SetValueEd
005e2bc0 T __ZN4Sexy6Slider17HasTransparenciesEv
005e2bd0 T __ZN4Sexy6Slider9MouseMoveEii
005e2cf0 T __ZN4Sexy6Slider7MouseUpEii
005e2d50 T __ZN4Sexy6Slider10MouseLeaveEv
005e2d80 T __ZN4Sexy6Slider9MouseDragEii
005e2ee0 T __ZN4Sexy6Slider9MouseDownEiii
005e3080 T __ZN4Sexy6SliderC1EPNS_5ImageES2_iPNS_14SliderListenerE
005e3080 T __ZN4Sexy6SliderC2EPNS_5ImageES2_iPNS_14SliderListenerE
005e30f0 T __ZN4Sexy6Slider4DrawEPNS_8GraphicsE
005e3660 t .text
005e3660 T __ZN4Sexy7SysFontD1Ev
005e3660 T __ZN4Sexy7SysFontD2Ev
005e3690 T __ZN4Sexy7SysFont11StringWidthERKNSt7__cxx1112basic_stringIcSt11char_traitsIcESaIcEEE
005e3760 T __ZN4Sexy7SysFontD0Ev
005e37a0 T __ZN4Sexy7SysFont4InitEPNS_11SexyAppBaseERKNSt7__cxx1112basic_stringIcSt11char_traitsIcESaIcEEEiibbbb
005e3940 T __ZN4Sexy7SysFontC1ERKNSt7__cxx1112basic_stringIcSt11char_traitsIcESaIcEEEibbb
005e3940 T __ZN4Sexy7SysFontC2ERKNSt7__cxx1112basic_stringIcSt11char_traitsIcESaIcEEEibbb
005e39c0 T __ZN4Sexy7SysFontC1EPNS_11SexyAppBaseERKNSt7__cxx1112basic_stringIcSt11char_traitsIcESaIcEEEiibbb
005e39c0 T __ZN4Sexy7SysFontC2EPNS_11SexyAppBaseERKNSt7__cxx1112basic_stringIcSt11char_traitsIcESaIcEEEiibbb
005e3a40 T __ZN4Sexy7SysFontC1ERKS0_
005e3a40 T __ZN4Sexy7SysFontC2ERKS0_
005e3ab0 T __ZN4Sexy7SysFont9DuplicateEv
005e3af0 T __ZN4Sexy7SysFont15CreateImageFontEv
005e3e80 T __ZN4Sexy7SysFont10DrawStringEPNS_8GraphicsEiiRKNSt7__cxx1112basic_stringIcSt11char_traitsIcESaIcEEERKNS_5ColorERKNS_5TRectIiEE
005e4bc0 t .text
005e4bc0 T __ZN4Sexy10TextWidget17SelectionReversedEv
005e4bf0 T __ZN4Sexy10TextWidget14ScrollPositionEid
005e4c10 T __ZN4Sexy10TextWidget7KeyDownENS_7KeyCodeE
005e4c20 T __ZN4Sexy10TextWidget12GetLastColorERKNSt7__cxx1112basic_stringIcSt11char_traitsIcESaIcEEE
005e4cb0 t __ZNSt7__cxx1112basic_stringIcSt11char_traitsIcESaIcEE12_M_constructIPKcEEvT_S8_St20forward_iterator_tag.isra.0
005e4d70 T __ZThn128_N4Sexy10TextWidget14ScrollPositionEid
005e4d90 T __ZN4Sexy10TextWidget18GetSelectedIndicesEiPi
005e4e50 T __ZN4Sexy10TextWidget5ClearEv
005e4f20 t __ZNSt6vectorINSt7__cxx1112basic_stringIcSt11char_traitsIcESaIcEEESaIS5_EE8_M_eraseEN9__gnu_cxx17__normal_iteratorIPS5_S7_EESB_.isra.0
005e5050 T __ZN4Sexy10TextWidget19GetColorStringWidthERKNSt7__cxx1112basic_stringIcSt11char_traitsIcESaIcEEE
005e5140 T __ZN4Sexy10TextWidget14GetStringIndexERKNSt7__cxx1112basic_stringIcSt11char_traitsIcESaIcEEEi
005e5290 T __ZN4Sexy10TextWidget14GetTextIndexAtEiiPi
005e53b0 T __ZN4Sexy10TextWidget15DrawColorStringEPNS_8GraphicsERKNSt7__cxx1112basic_stringIcSt11char_traitsIcESaIcEEEiib
005e5510 T __ZN4Sexy10TextWidgetC1Ev
005e5510 T __ZN4Sexy10TextWidgetC2Ev
005e55e0 T __ZN4Sexy10TextWidget12GetSelectionB5cxx11Ev
005e5850 T __ZN4Sexy10TextWidget18AddToPhysicalLinesEiRKNSt7__cxx1112basic_stringIcSt11char_traitsIcESaIcEEE
005e5f60 T __ZN4Sexy10TextWidget7AddLineERKNSt7__cxx1112basic_stringIcSt11char_traitsIcESaIcEEE
005e6300 T __ZN4Sexy10TextWidget8GetLinesB5cxx11Ev
005e6380 T __ZN4Sexy10TextWidget8SetLinesESt6vectorINSt7__cxx1112basic_stringIcSt11char_traitsIcESaIcEEESaIS7_EE
005e65a0 T __ZN4Sexy10TextWidget22DrawColorStringHilitedEPNS_8GraphicsERKNSt7__cxx1112basic_stringIcSt11char_traitsIcESaIcEEEiiii
005e68e0 T __ZN4Sexy10TextWidget4DrawEPNS_8GraphicsE
005e6c00 T __ZN4Sexy10TextWidget6ResizeEiiii
005e6e70 T __ZN4Sexy10TextWidget9MouseDownEiii
005e6f10 T __ZN4Sexy10TextWidget9MouseDragEii
005e6fc0 t .text
005e6fc0 T __ZN4Sexy6Widget10MouseEnterEv
005e6fc0 T __ZN4Sexy6Widget10MouseLeaveEv
005e6fc0 T __ZN4Sexy6Widget21OrderInManagerChangedEv
005e6fd0 T __ZN4Sexy6Widget14IsPointVisibleEii
005e6fe0 T __ZN4Sexy6Widget11DrawOverlayEPNS_8GraphicsE
005e6fe0 T __ZN4Sexy6Widget4DrawEPNS_8GraphicsE
005e6ff0 T __ZN4Sexy6Widget6ResizeERKNS_5TRectIiEE
005e7030 T __ZN4Sexy6Widget4MoveEii
005e7070 T __ZN4Sexy6Widget10WantsFocusEv
005e7080 T __ZN4Sexy6Widget8GotFocusEv
005e7090 T __ZN4Sexy6Widget9LostFocusEv
005e70a0 T __ZN4Sexy6Widget7UpdateFEf
005e70b0 T __ZN4Sexy6Widget7KeyCharEc
005e70c0 T __ZN4Sexy6Widget5KeyUpENS_7KeyCodeE
005e70d0 T __ZN4Sexy6Widget7MouseUpEii
005e70d0 T __ZN4Sexy6Widget9MouseDragEii
005e70d0 T __ZN4Sexy6Widget9MouseMoveEii
005e70e0 T __ZN4Sexy6Widget7MouseUpEiiii
005e70e0 T __ZN4Sexy6Widget9MouseDownEiiii
005e70f0 T __ZN4Sexy6Widget10MouseWheelEi
005e7100 T __ZN4Sexy6Widget12GetNumDigitsEi
005e7140 T __ZN4Sexy6Widget8ContainsEii
005e7170 T __ZN4Sexy6Widget12GetInsetRectEv
005e71b0 T __ZN4Sexy6Widget10SetVisibleEb
005e71f0 T __ZN4Sexy6Widget6ResizeEiiii
005e7260 T __ZN4Sexy6Widget8GetColorEiRKNS_5ColorE
005e72c0 T __ZN4Sexy6Widget8GetColorEi
005e7340 T __ZN4Sexy6Widget10ShowFingerEb
005e7380 T __ZN4Sexy6Widget17WriteCenteredLineEPNS_8GraphicsEiRKNSt7__cxx1112basic_stringIcSt11char_traitsIcESaIcEEE
005e7410 T __ZN4Sexy6Widget17WriteCenteredLineEPNS_8GraphicsEiRKNSt7__cxx1112basic_stringIcSt11char_traitsIcESaIcEEENS_5ColorESB_RKNS_6TPointIiEE
005e7540 T __ZN4Sexy6Widget11WriteStringEPNS_8GraphicsERKNSt7__cxx1112basic_stringIcSt11char_traitsIcESaIcEEEiiiibii
005e75c0 T __ZN4Sexy6Widget16WriteWordWrappedEPNS_8GraphicsERKNS_5TRectIiEERKNSt7__cxx1112basic_stringIcSt11char_traitsIcESaIcEEEii
005e7630 T __ZN4Sexy6Widget20GetWordWrappedHeightEPNS_8GraphicsEiRKNSt7__cxx1112basic_stringIcSt11char_traitsIcESaIcEEEi
005e7660 T __ZN4Sexy6Widget20WriteNumberFromStripEPNS_8GraphicsEiiiPNS_5ImageEi
005e7780 T __ZN4Sexy6Widget7KeyDownENS_7KeyCodeE
005e77d0 T __ZN4Sexy6Widget9MouseDownEiii
005e7870 T __ZN4Sexy6Widget7MouseUpEiii
005e7940 T __ZN4Sexy6Widget11DrawOverlayEPNS_8GraphicsEi
005e7970 T __ZN4Sexy6WidgetD1Ev
005e7970 T __ZN4Sexy6WidgetD2Ev
005e79b0 T __ZN4Sexy6WidgetD0Ev
005e79f0 T __ZN4Sexy6Widget11SetDisabledEb
005e7ad0 T __ZN4Sexy6WidgetC1Ev
005e7ad0 T __ZN4Sexy6WidgetC2Ev
005e7b40 T __ZN4Sexy6Widget19WidgetRemovedHelperEv
005e7bf0 T __ZN4Sexy6Widget12DeferOverlayEi
005e7c20 T __ZN4Sexy6Widget6LayoutEiPS0_iiii
005e7f70 T __ZN4Sexy6Widget8SetColorEiRKNS_5ColorE
005e8000 T __ZN4Sexy6Widget9SetColorsEPA4_ii
005e80b0 T __ZN4Sexy6Widget9SetColorsEPA3_ii
005e8150 T __ZN4Sexy6Widget6UpdateEv
005e8160 t .text
005e8160 T __ZN4Sexy15WidgetContainer7GetRectEv
005e8190 T __ZN4Sexy15WidgetContainer9HasWidgetEPNS_6WidgetE
005e81d0 T __ZN4Sexy15WidgetContainer9GetAbsPosEv
005e8250 T __ZN4Sexy15WidgetContainer18RemovedFromManagerEPNS_13WidgetManagerE
005e82f0 T __ZN4Sexy15WidgetContainer9MarkDirtyEv
005e8320 T __ZN4Sexy15WidgetContainer13MarkDirtyFullEv
005e8350 T __ZN4Sexy15WidgetContainer6UpdateEv
005e8360 T __ZN4Sexy15WidgetContainer7UpdateFEf
005e8370 T __ZN4Sexy15WidgetContainer15SysColorChangedEv
005e8380 T __ZN4Sexy15WidgetContainer13DisableWidgetEPNS_6WidgetE
005e8380 T __ZN4Sexy15WidgetContainer4DrawEPNS_8GraphicsE
005e8380 T __ZN4Sexy15WidgetContainer8SetFocusEPNS_6WidgetE
005e8390 T __ZN4Sexy15WidgetContainerD0Ev
005e83e0 T __ZN4Sexy15WidgetContainer18SysColorChangedAllEv
005e8440 T __ZN4Sexy15WidgetContainer10IntersectsEPS0_
005e8510 T __ZN4Sexy15WidgetContainerD1Ev
005e8510 T __ZN4Sexy15WidgetContainerD2Ev
005e8540 T __ZN4Sexy15WidgetContainer10UpdateFAllEPNS_10ModalFlagsEf
005e8610 T __ZN4Sexy15WidgetContainer12RemoveWidgetEPNS_6WidgetE
005e86a0 T __ZN4Sexy15WidgetContainer16RemoveAllWidgetsEbb
005e8780 T __ZN4Sexy15WidgetContainer14AddedToManagerEPNS_13WidgetManagerE
005e8800 T __ZN4Sexy15WidgetContainer12MarkAllDirtyEv
005e8870 T __ZN4Sexy15WidgetContainer9UpdateAllEPNS_10ModalFlagsE
005e89b0 T __ZN4Sexy15WidgetContainer9MarkDirtyEPS0_
005e8ab0 T __ZN4Sexy15WidgetContainer13MarkDirtyFullEPS0_
005e8d10 T __ZN4Sexy15WidgetContainerC1Ev
005e8d10 T __ZN4Sexy15WidgetContainerC2Ev
005e8d90 T __ZN4Sexy15WidgetContainer17GetWidgetAtHelperEiiiPbPiS2_
005e8f50 T __ZN4Sexy15WidgetContainer13IsBelowHelperEPNS_6WidgetES2_Pb
005e92e0 T __ZN4Sexy15WidgetContainer7IsBelowEPNS_6WidgetES2_
005e9350 T __ZN4Sexy15WidgetContainer18InsertWidgetHelperERKSt14_List_iteratorIPNS_6WidgetEES3_
005e9430 T __ZN4Sexy15WidgetContainer9AddWidgetEPNS_6WidgetE
005e9530 T __ZN4Sexy15WidgetContainer12BringToFrontEPNS_6WidgetE
005e95c0 T __ZN4Sexy15WidgetContainer11BringToBackEPNS_6WidgetE
005e9650 T __ZN4Sexy15WidgetContainer9PutBehindEPNS_6WidgetES2_
005e9700 T __ZN4Sexy15WidgetContainer10PutInfrontEPNS_6WidgetES2_
005e97c0 T __ZN4Sexy15WidgetContainer7DrawAllEPNS_10ModalFlagsEPNS_8GraphicsE
005e99e0 t .text
005e99e0 T __ZN4Sexy13WidgetManager8SetFocusEPNS_6WidgetE
005e9a40 T __ZN4Sexy13WidgetManagerD1Ev
005e9a40 T __ZN4Sexy13WidgetManagerD2Ev
005e9aa0 T __ZN4Sexy13WidgetManagerD0Ev
005e9ac0 T __ZN4Sexy13WidgetManagerC1EPNS_11SexyAppBaseE
005e9ac0 T __ZN4Sexy13WidgetManagerC2EPNS_11SexyAppBaseE
005e9c60 T __ZN4Sexy13WidgetManager13FreeResourcesEv
005e9c70 T __ZN4Sexy13WidgetManager14GetWidgetFlagsEv
005e9c90 T __ZN4Sexy13WidgetManager14GetAnyWidgetAtEiiPiS1_
005e9cf0 T __ZN4Sexy13WidgetManager11GetWidgetAtEiiPiS1_
005e9d60 T __ZN4Sexy13WidgetManager16IsLeftButtonDownEv
005e9d70 T __ZN4Sexy13WidgetManager18IsMiddleButtonDownEv
005e9d80 T __ZN4Sexy13WidgetManager17IsRightButtonDownEv
005e9d90 T __ZN4Sexy13WidgetManager12DeferOverlayEPNS_6WidgetEi
005e9ea0 T __ZN4Sexy13WidgetManager10DoMouseUpsEPNS_6WidgetEm
005e9f20 T __ZN4Sexy13WidgetManager10DoMouseUpsEv
005e9f70 T __ZN4Sexy13WidgetManager13DisableWidgetEPNS_6WidgetE
005ea050 T __ZN4Sexy13WidgetManager10RemapMouseERiS1_
005ea0a0 T __ZN4Sexy13WidgetManager10MouseEnterEPNS_6WidgetE
005ea0e0 T __ZN4Sexy13WidgetManager10MouseLeaveEPNS_6WidgetE
005ea120 T __ZN4Sexy13WidgetManager12SetBaseModalEPNS_6WidgetERKNS_8FlagsModE
005ea270 T __ZN4Sexy13WidgetManager12AddBaseModalEPNS_6WidgetERKNS_8FlagsModE
005ea300 T __ZN4Sexy13WidgetManager12AddBaseModalEPNS_6WidgetE
005ea330 T __ZN4Sexy13WidgetManager15RemoveBaseModalEPNS_6WidgetE
005ea400 T __ZN4Sexy13WidgetManager6ResizeERKNS_5TRectIiEES4_
005ea470 T __ZN4Sexy13WidgetManager8GotFocusEv
005ea4a0 T __ZN4Sexy13WidgetManager9LostFocusEv
005ea5b0 T __ZN4Sexy13WidgetManager14InitModalFlagsEPNS_10ModalFlagsE
005ea600 T __ZN4Sexy13WidgetManager11UpdateFrameEv
005ea670 T __ZN4Sexy13WidgetManager12UpdateFrameFEf
005ea6e0 T __ZN4Sexy13WidgetManager21SetPopupCommandWidgetEPNS_6WidgetE
005ea6f0 T __ZN4Sexy13WidgetManager24RemovePopupCommandWidgetEv
005ea720 T __ZN4Sexy13WidgetManager13MousePositionEii
005ea860 T __ZN4Sexy13WidgetManager10RehupMouseEv
005ea930 T __ZN4Sexy13WidgetManager7MouseUpEiii
005eaa10 T __ZN4Sexy13WidgetManager9MouseDownEiii
005eac10 T __ZN4Sexy13WidgetManager9MouseDragEii
005ead80 T __ZN4Sexy13WidgetManager9MouseMoveEii
005eade0 T __ZN4Sexy13WidgetManager9MouseExitEii
005eae60 T __ZN4Sexy13WidgetManager10MouseWheelEi
005eae90 T __ZN4Sexy13WidgetManager7KeyCharEc
005eaf00 T __ZN4Sexy13WidgetManager7KeyDownENS_7KeyCodeE
005eaf50 T __ZN4Sexy13WidgetManager5KeyUpENS_7KeyCodeE
005eafb0 T __ZN4Sexy13WidgetManager27FlushDeferredOverlayWidgetsEi
005eb150 T __ZN4Sexy13WidgetManager13DrawWidgetsToEPNS_8GraphicsE
005eb280 T __ZN4Sexy13WidgetManager10DrawScreenEv
005eb5a0 t .text
005eb5a0 t __ZL9GetPakPtrv
005eb660 t __ZL7p_fseekP5PFILEli.constprop.0.isra.0
005eb6c0 t __ZL7p_freadPviiP5PFILE.constprop.0
005eb730 T __ZN4Sexy9XMLParser14GetUTF16BECharEPwPb
005eb7e0 T __ZN4Sexy9XMLParser14GetUTF16LECharEPwPb
005eb880 T __ZN4Sexy9XMLParser12GetUTF16CharEPwPb
005eb990 T __ZN4Sexy9XMLParser11GetUTF8CharEPwPb
005ebb80 T __ZN4Sexy9XMLParser12GetAsciiCharEPwPb
005ebbd0 t __ZL7p_fgetcP5PFILE
005ebc10 t __ZL8p_ungetciP5PFILE.isra.0
005ebc60 t __ZNSt7__cxx1112basic_stringIcSt11char_traitsIcESaIcEE12_M_constructIPKcEEvT_S8_St20forward_iterator_tag.isra.0
005ebd20 t __ZNSt8_Rb_treeINSt7__cxx1112basic_stringIcSt11char_traitsIcESaIcEEESt4pairIKS5_S5_ESt10_Select1stIS8_ESt4lessIS5_ESaIS8_EE24_M_get_insert_unique_posERS7_.isra.0
005ebe10 T __ZN4Sexy9XMLParserD1Ev
005ebe10 T __ZN4Sexy9XMLParserD2Ev
005ebee0 T __ZN4Sexy9XMLParserD0Ev
005ebf00 t __ZNSt8_Rb_treeINSt7__cxx1112basic_stringIcSt11char_traitsIcESaIcEEESt4pairIKS5_S5_ESt10_Select1stIS8_ESt4lessIS5_ESaIS8_EE8_M_eraseEPSt13_Rb_tree_nodeIS8_E.isra.0
005ec2e0 T __ZN4Sexy9XMLParserC1Ev
005ec2e0 T __ZN4Sexy9XMLParserC2Ev
005ec360 T __ZN4Sexy9XMLParser15SetEncodingTypeENS0_15XMLEncodingTypeE
005ec3f0 T __ZN4Sexy9XMLParser4FailERKNSt7__cxx1112basic_stringIcSt11char_traitsIcESaIcEEE
005ec400 T __ZN4Sexy9XMLParser4InitEv
005ec480 T __ZN4Sexy9XMLParser8OpenFileERKNSt7__cxx1112basic_stringIcSt11char_traitsIcESaIcEEE
005ec7b0 T __ZN4Sexy9XMLParser9HasFailedEv
005ec7c0 T __ZN4Sexy9XMLParser12GetErrorTextB5cxx11Ev
005ec880 T __ZN4Sexy9XMLParser17GetCurrentLineNumEv
005ec890 T __ZN4Sexy9XMLParser11GetFileNameB5cxx11Ev
005ec950 T __ZN4Sexy9XMLParser15SetStringSourceERKNSt7__cxx1112basic_stringIwSt11char_traitsIwESaIwEEE
005ec9f0 T __ZN4Sexy9XMLParser15SetStringSourceERKNSt7__cxx1112basic_stringIcSt11char_traitsIcESaIcEEE
005eca50 T __ZN4Sexy9XMLParser12AddAttributeEPNS_10XMLElementERKNSt7__cxx1112basic_stringIcSt11char_traitsIcESaIcEEESA_
005ecd30 T __ZN4Sexy9XMLParser11NextElementEPNS_10XMLElementE
005ef600 t __span
005ef600 t .text
005ef690 t __halt_one.part.0
005ef6c0 T _oggpack_readinit
005ef750 T _oggpack_look
005ef980 T _oggpack_adv
005ef9c0 T _oggpack_eop
005ef9d0 T _oggpack_read
005efdb0 T _oggpack_bytes
005efde0 T _oggpack_bits
005efe00 t .text
005efe00 T _vorbis_block_init
005efe40 T __vorbis_block_alloc
005efeb0 T __vorbis_block_ripcord
005eff40 T _vorbis_block_clear
005eff90 T _vorbis_synthesis_restart
005f0000 T _vorbis_synthesis_init
005f0260 T _vorbis_dsp_clear
005f03d0 T _vorbis_synthesis_blockin
005f09f0 T _vorbis_synthesis_pcmout
005f0a70 T _vorbis_synthesis_read
005f0ac0 t _decode_packed_entry_number
005f0ac0 t .text
005f0cc0 T _vorbis_staticbook_unpack
005f1030 T _vorbis_book_decode
005f1060 T _vorbis_book_decodevs_add
005f1270 T _vorbis_book_decodev_add
005f1390 T _vorbis_book_decodev_set
005f14c0 T _vorbis_book_decodevv_add
005f1640 t _floor0_inverse1
005f1640 t .text
005f17d0 t _floor0_free_look
005f1820 t _floor0_free_info
005f1840 t _floor0_unpack
005f1960 t _floor0_look
005f1ba0 T _vorbis_lsp_to_curve
005f2010 t _floor0_inverse2
005f20c0 t _icomp
005f20c0 t .text
005f20e0 t _floor1_inverse2
005f2340 t _floor1_inverse1
005f26a0 t _floor1_free_info
005f26c0 t _floor1_unpack
005f2980 t _floor1_look
005f2c50 t _floor1_free_look
005f2c80 t __ogg_buffer_destroy.part.0
005f2c80 t .text
005f2d00 t _ogg_buffer_release_one
005f2d50 t __next_lace
005f2e30 t _oggbyte_set4.constprop.0
005f2ef0 t _ogg_buffer_split
005f3010 t _oggbyte_read1
005f3090 t _oggbyte_read4
005f3220 t _ogg_buffer_pretruncate
005f32a0 T _ogg_buffer_dup
005f3360 T _ogg_page_version
005f33d0 T _ogg_page_continued
005f3440 T _ogg_page_bos
005f34b0 T _ogg_page_eos
005f3520 T _ogg_page_granulepos
005f3610 t __packetout
005f3d50 T _ogg_page_serialno
005f3dc0 T _ogg_page_pageno
005f3e30 T _ogg_page_packets
005f3f30 T _ogg_sync_create
005f3f70 T _ogg_sync_destroy
005f4000 T _ogg_sync_bufferin
005f42a0 T _ogg_sync_wrote
005f42e0 T _ogg_sync_reset
005f4370 T _ogg_stream_create
005f43a0 T _ogg_stream_destroy
005f4420 T _ogg_stream_reset
005f44f0 T _ogg_stream_reset_serialno
005f4510 T _ogg_stream_packetout
005f4530 T _ogg_stream_packetpeek
005f4540 T _ogg_packet_release
005f4610 T _ogg_page_release
005f4690 T _ogg_sync_pageseek
005f49e0 T _ogg_sync_pageout
005f4a30 T _ogg_stream_pagein
005f4c80 T _ogg_page_dup
005f4cc0 t .text
005f4cc0 T _vorbis_comment_init
005f4ce0 T _vorbis_comment_query
005f4de0 T _vorbis_comment_query_count
005f4ed0 T _vorbis_comment_clear
005f4f60 T _vorbis_info_blocksize
005f4f80 T _vorbis_info_init
005f5010 T _vorbis_info_clear
005f51a0 T _vorbis_synthesis_headerin
005f5840 t _mapping0_inverse
005f5840 t .text
005f5ca0 t _mapping0_free_info
005f5cc0 t _mapping0_look
005f5e30 t _mapping0_unpack
005f6070 t _mapping0_free_look
005f6140 t _mdct_butterfly_16
005f6140 t .text
005f6300 T _mdct_backward
005f7c80 T _res0_free_info
005f7c80 t .text
005f7c80 t .text
005f7ca0 T _res0_unpack
005f7e60 T _res0_look
005f8150 T _res2_inverse
005f8400 T _res0_free_look
005f84a0 t __01inverse.isra.0
005f86d0 T _res1_inverse
005f8740 T _res0_inverse
005f87c0 t _bitreverse
005f87c0 t .text
005f8800 t _sort32a
005f8820 T __ilog
005f8830 T __make_words
005f8b20 T __book_maptype1_quantvals
005f8b90 t __book_unquantize.part.0
005f9530 T __book_unquantize
005f9570 T _vorbis_staticbook_clear
005f95c0 T _vorbis_staticbook_destroy
005f9600 T _vorbis_book_clear
005f9680 T _vorbis_book_init_decode
005f9c40 t .text
005f9c40 T _vorbis_synthesis
005f9e20 T _vorbis_packet_blocksize
005f9ec0 t __get_next_page
005f9ec0 t .text
005fa010 t __fetch_headers
005fa230 t __fseek64_wrap
005fa260 t __make_decode_ready.part.0
005fa2e0 t _ov_clear.part.0
005fa400 t __ov_open1
005fa5f0 t __fetch_and_process_packet.constprop.0
005faa30 t __bisect_forward_serialno
005fad50 t __get_prev_page
005faec0 T _ov_clear
005faee0 T _ov_test_callbacks
005faf20 T _ov_test
005faf60 T _ov_streams
005faf70 T _ov_seekable
005faf80 T _ov_bitrate_instant
005fb000 T _ov_serialnumber
005fb040 T _ov_raw_total
005fb0d0 T _ov_pcm_total
005fb140 T _ov_time_total
005fb220 T _ov_bitrate
005fb400 T _ov_raw_seek
005fb8f0 t __open_seekable2
005fbec0 T _ov_open_callbacks
005fbf50 T _ov_test_open
005fbfb0 T _ov_open
005fc040 T _ov_pcm_seek_page
005fca30 T _ov_pcm_seek
005fcea0 T _ov_time_seek
005fd100 T _ov_time_seek_page
005fd360 T _ov_raw_tell
005fd380 T _ov_pcm_tell
005fd3a0 T _ov_time_tell
005fd670 T _ov_info
005fd6c0 T _ov_comment
005fd710 T _ov_read
005fd8c0 t .text
005fd8c0 T __vorbis_window
005fd950 T __vorbis_apply_window
005fdb00 t .text
005fdb00 T __ZN10AttachmentC1Ev
005fdb00 T __ZN10AttachmentC2Ev
005fdb40 T __ZN10Attachment6UpdateEv
005fdd00 T __ZN10Attachment11SetPositionERKN4Sexy11SexyVector2E
005fdec0 T __ZN10Attachment13OverrideColorERKN4Sexy5ColorE
005fe000 T __ZN10Attachment14PropogateColorERKN4Sexy5ColorEbS3_bS3_
005fe210 T __ZN10Attachment13OverrideScaleEf
005fe360 T __ZN10Attachment9CrossFadeEPKc
005fe3e0 T __ZN10Attachment9SetMatrixERKN4Sexy15SexyTransform2DE
005fe5f0 T __ZN10Attachment4DrawEPN4Sexy8GraphicsEb
005fe7f0 T __ZN10Attachment6DetachEv
005fe940 T __ZN10Attachment13AttachmentDieEv
005fea90 T __ZN10AttachmentD1Ev
005fea90 T __ZN10AttachmentD2Ev
005feaa0 T __ZN16AttachmentHolderC1Ev
005feaa0 T __ZN16AttachmentHolderC2Ev
005feae0 T __ZN16AttachmentHolderD1Ev
005feae0 T __ZN16AttachmentHolderD2Ev
005feb70 T __ZN16AttachmentHolder16InitializeHolderEv
005feba0 T __ZN16AttachmentHolder13DisposeHolderEv
005fec80 T __ZN16AttachmentHolder15AllocAttachmentEv
005fed40 T __Z28AttachmentUpdateAndSetMatrixR12AttachmentIDRN4Sexy15SexyTransform2DE
005feda0 T __Z23AttachmentUpdateAndMoveR12AttachmentIDff
005fee10 T __Z23AttachmentOverrideColorR12AttachmentIDRKN4Sexy5ColorE
005fee60 T __Z23AttachmentOverrideScaleR12AttachmentIDf
005feeb0 T __Z23AttachmentReanimTypeDieR12AttachmentID15ReanimationType
005fef70 T __Z37AttachmentDetachCrossFadeParticleTypeR12AttachmentID14ParticleEffectPKc
005ff040 T __Z24AttachmentPropogateColorR12AttachmentIDRKN4Sexy5ColorEbS4_bS4_
005ff0b0 T __Z19AttachmentCrossFadeR12AttachmentIDPKc
005ff100 T __Z14AttachmentDrawR12AttachmentIDPN4Sexy8GraphicsEb
005ff150 T __Z13AttachmentDieR12AttachmentID
005ff1a0 T __Z16AttachmentDetachR12AttachmentID
005ff1f0 T __Z20FindReanimAttachmentR12AttachmentID
005ff270 T __Z19FindFirstAttachmentR12AttachmentID
005ff2c0 T __Z22CreateEffectAttachmentR12AttachmentID10EffectTypejff
005ff430 T __Z12AttachReanimR12AttachmentIDP11Reanimationff
005ff470 T __Z14AttachParticleR12AttachmentIDP17TodParticleSystemff
005ff4c0 T __Z11AttachTrailR12AttachmentIDP5Trailff
005ff510 T __Z19IsFullOfAttachmentsR12AttachmentID
005ff560 t .text
005ff560 T __Z24ParticleFieldConstructorPv
005ff590 T __Z32TodParticleDefinitionConstructorPv
005ff5b0 T __Z26ReanimatorTrackConstructorPv
005ff5d0 T __Z31ReanimatorDefinitionConstructorPv
005ff600 t __ZL9GetPakPtrv
005ff6c0 T __Z31TodEmitterDefinitionConstructorPv
005ff710 T __Z26TrailDefinitionConstructorPv
005ff750 t __ZL7p_fopenPKcS0_.constprop.0
005ff7d0 t __ZL7p_fseekP5PFILEli.constprop.0.isra.0
005ff830 t __ZL8p_fcloseP5PFILE.isra.0
005ff880 t __ZNSt7__cxx1112basic_stringIcSt11char_traitsIcESaIcEE12_M_constructIPKcEEvT_S8_St20forward_iterator_tag.isra.0
005ff940 t __ZNSt8_Rb_treeINSt7__cxx1112basic_stringIcSt11char_traitsIcESaIcEEESt4pairIKS5_S5_ESt10_Select1stIS8_ESt4lessIS5_ESaIS8_EE8_M_eraseEPSt13_Rb_tree_nodeIS8_E.isra.0
005ffd20 T __Z30ReanimatorTransformConstructorPv
005ffd60 T __Z15DefinitionAlloci
005ffda0 T __Z19DefinitionLoadImagePPN4Sexy5ImageERKNSt7__cxx1112basic_stringIcSt11char_traitsIcESaIcEEE
006000c0 T __Z18DefinitionLoadFontPPN4Sexy4FontERKNSt7__cxx1112basic_stringIcSt11char_traitsIcESaIcEEE
00600130 T __Z5SMemRRPvS_j
00600160 T __Z26DefReadFromCacheFloatTrackRPvP19FloatParameterTrack
006001e0 T __Z22DefReadFromCacheStringRPvPPc
00600270 T __Z21DefReadFromCacheImageRPvPPN4Sexy5ImageE
00600350 T __Z20DefReadFromCacheFontRPvPPN4Sexy4FontE
00600430 T __Z19DefMapReadFromCacheRPvP6DefMapS_
00600560 T __Z21DefReadFromCacheArrayRPvP18DefinitionArrayDefP6DefMap
00600640 T __Z27DefinitionCalcHashSymbolMapiP9DefSymbol
006006b0 T __Z24DefinitionCalcHashDefMapiP6DefMapR7TodListIS0_E
00600860 T __Z18DefinitionCalcHashP6DefMap
006008f0 T __Z34DefinitionUncompressCompiledBufferPvjRjRKNSt7__cxx1112basic_stringIcSt11char_traitsIcESaIcEEE
006009b0 T __Z26DefinitionReadCompiledFileRKNSt7__cxx1112basic_stringIcSt11char_traitsIcESaIcEEEP6DefMapPv
00600bf0 T __Z44DefinitionGetCompiledFilePathFromXMLFilePathRKNSt7__cxx1112basic_stringIcSt11char_traitsIcESaIcEEE
00600d90 T __Z15IsFileInPakFileRKNSt7__cxx1112basic_stringIcSt11char_traitsIcESaIcEEE
00600dc0 T __Z20DefinitionIsCompiledRKNSt7__cxx1112basic_stringIcSt11char_traitsIcESaIcEEE
00600f90 T __Z26DefinitionFillWithDefaultsP6DefMapPv
00600ff0 T __Z18DefinitionXmlErrorPN4Sexy9XMLParserEPKcz
006010d0 T __Z23DefinitionReadXMLStringPN4Sexy9XMLParserERNSt7__cxx1112basic_stringIcSt11char_traitsIcESaIcEEE
00601340 T __Z24DefSymbolValueFromStringP9DefSymbolPKcPi
006013a0 T __Z22DefinitionReadIntFieldPN4Sexy9XMLParserEPi
00601450 T __Z24DefinitionReadFloatFieldPN4Sexy9XMLParserEPf
00601500 T __Z25DefinitionReadStringFieldPN4Sexy9XMLParserEPPc
006015d0 T __Z23DefinitionReadEnumFieldPN4Sexy9XMLParserEPiP9DefSymbol
006016a0 T __Z26DefinitionReadVector2FieldPN4Sexy9XMLParserEPNS_11SexyVector2E
00601750 T __Z29DefinitionReadFloatTrackFieldPN4Sexy9XMLParserEP19FloatParameterTrack
00601760 T __Z23DefinitionReadFlagFieldPN4Sexy9XMLParserERKNSt7__cxx1112basic_stringIcSt11char_traitsIcESaIcEEEPjP9DefSymbol
00601870 T __Z24DefinitionReadImageFieldPN4Sexy9XMLParserEPPNS_5ImageE
00601950 T __Z23DefinitionReadFontFieldPN4Sexy9XMLParserEPPNS_4FontE
00601a30 T __Z17DefinitionLoadMapPN4Sexy9XMLParserEP6DefMapPv
00601ae0 T __Z24DefinitionReadArrayFieldPN4Sexy9XMLParserEP18DefinitionArrayDefP8DefField
00601c00 T __Z19DefinitionReadFieldPN4Sexy9XMLParserEP6DefMapPvPb
00601fa0 T __Z27DefinitionWriteCompiledFileRKNSt7__cxx1112basic_stringIcSt11char_traitsIcESaIcEEEP6DefMapPv
00601fb0 T __Z24DefinitionCompileAndLoadRKNSt7__cxx1112basic_stringIcSt11char_traitsIcESaIcEEEP6DefMapPv
00602080 T __Z17DefinitionLoadXMLRKNSt7__cxx1112basic_stringIcSt11char_traitsIcESaIcEEEP6DefMapPv
00602090 T __Z18FloatTrackEvaluateR19FloatParameterTrackff
006021f0 T __Z20FloatTrackSetDefaultR19FloatParameterTrackf
00602260 T __Z15FloatTrackIsSetRK19FloatParameterTrack
00602280 T __Z24FloatTrackIsConstantZeroR19FloatParameterTrack
006022d0 T __Z30FloatTrackEvaluateFromLastTimeR19FloatParameterTrackff
00602300 T __Z17DefinitionFreeMapP6DefMapPv
006023c0 T __Z24DefinitionFreeArrayFieldP18DefinitionArrayDefP6DefMap
00602420 T __Z21DefinitionCompileFileNSt7__cxx1112basic_stringIcSt11char_traitsIcESaIcEEERKS4_P6DefMapPv
006024c0 t .text
006024c0 t __ZN16TodTriangleGroup9DrawGroupEPN4Sexy8GraphicsE.part.0
00602600 T __ZN12EffectSystem22EffectSystemInitializeEv
00602700 T __ZN12EffectSystem19EffectSystemDisposeEv
00602860 T __ZN12EffectSystem19EffectSystemFreeAllEv
00602b80 T __ZN12EffectSystem18ProcessDeleteQueueEv
00602d70 T __ZN12EffectSystem6UpdateEv
00602e90 T __Z51TodDrawTriangle_8888_TEX1_TALPHA0_MOD0_GLOB0_BLEND0PN4Sexy8SWHelper8SWVertexEPvjPKNS0_13SWTextureInfoERNS0_9SWDiffuseE
00603b20 T __Z51TodDrawTriangle_8888_TEX1_TALPHA0_MOD0_GLOB0_BLEND1PN4Sexy8SWHelper8SWVertexEPvjPKNS0_13SWTextureInfoERNS0_9SWDiffuseE
00604f20 T __Z51TodDrawTriangle_8888_TEX1_TALPHA0_MOD0_GLOB1_BLEND0PN4Sexy8SWHelper8SWVertexEPvjPKNS0_13SWTextureInfoERNS0_9SWDiffuseE
00606150 T __Z51TodDrawTriangle_8888_TEX1_TALPHA0_MOD0_GLOB1_BLEND1PN4Sexy8SWHelper8SWVertexEPvjPKNS0_13SWTextureInfoERNS0_9SWDiffuseE
00607b90 T __Z51TodDrawTriangle_8888_TEX1_TALPHA0_MOD1_GLOB0_BLEND0PN4Sexy8SWHelper8SWVertexEPvjPKNS0_13SWTextureInfoERNS0_9SWDiffuseE
00609790 T __Z51TodDrawTriangle_8888_TEX1_TALPHA0_MOD1_GLOB0_BLEND1PN4Sexy8SWHelper8SWVertexEPvjPKNS0_13SWTextureInfoERNS0_9SWDiffuseE
0060ba50 T __Z51TodDrawTriangle_8888_TEX1_TALPHA0_MOD1_GLOB1_BLEND0PN4Sexy8SWHelper8SWVertexEPvjPKNS0_13SWTextureInfoERNS0_9SWDiffuseE
0060d980 T __Z51TodDrawTriangle_8888_TEX1_TALPHA0_MOD1_GLOB1_BLEND1PN4Sexy8SWHelper8SWVertexEPvjPKNS0_13SWTextureInfoERNS0_9SWDiffuseE
0060fef0 T __Z51TodDrawTriangle_8888_TEX1_TALPHA1_MOD0_GLOB0_BLEND0PN4Sexy8SWHelper8SWVertexEPvjPKNS0_13SWTextureInfoERNS0_9SWDiffuseE
00611020 T __Z51TodDrawTriangle_8888_TEX1_TALPHA1_MOD0_GLOB0_BLEND1PN4Sexy8SWHelper8SWVertexEPvjPKNS0_13SWTextureInfoERNS0_9SWDiffuseE
00612800 T __Z51TodDrawTriangle_8888_TEX1_TALPHA1_MOD0_GLOB1_BLEND0PN4Sexy8SWHelper8SWVertexEPvjPKNS0_13SWTextureInfoERNS0_9SWDiffuseE
00613b00 T __Z51TodDrawTriangle_8888_TEX1_TALPHA1_MOD0_GLOB1_BLEND1PN4Sexy8SWHelper8SWVertexEPvjPKNS0_13SWTextureInfoERNS0_9SWDiffuseE
006154b0 T __Z51TodDrawTriangle_8888_TEX1_TALPHA1_MOD1_GLOB0_BLEND0PN4Sexy8SWHelper8SWVertexEPvjPKNS0_13SWTextureInfoERNS0_9SWDiffuseE
00617250 T __Z51TodDrawTriangle_8888_TEX1_TALPHA1_MOD1_GLOB0_BLEND1PN4Sexy8SWHelper8SWVertexEPvjPKNS0_13SWTextureInfoERNS0_9SWDiffuseE
006196f0 T __Z51TodDrawTriangle_8888_TEX1_TALPHA1_MOD1_GLOB1_BLEND0PN4Sexy8SWHelper8SWVertexEPvjPKNS0_13SWTextureInfoERNS0_9SWDiffuseE
0061b7b0 T __Z51TodDrawTriangle_8888_TEX1_TALPHA1_MOD1_GLOB1_BLEND1PN4Sexy8SWHelper8SWVertexEPvjPKNS0_13SWTextureInfoERNS0_9SWDiffuseE
0061ded0 T __Z51TodDrawTriangle_0888_TEX1_TALPHA0_MOD0_GLOB0_BLEND0PN4Sexy8SWHelper8SWVertexEPvjPKNS0_13SWTextureInfoERNS0_9SWDiffuseE
0061dee0 T __Z51TodDrawTriangle_0888_TEX1_TALPHA0_MOD0_GLOB0_BLEND1PN4Sexy8SWHelper8SWVertexEPvjPKNS0_13SWTextureInfoERNS0_9SWDiffuseE
0061def0 T __Z60TodDrawTriangle_0888_TEX1_TALPHA0_MOD0_GLOB1_BLEND0_ADDITIVEPN4Sexy8SWHelper8SWVertexEPvjPKNS0_13SWTextureInfoERNS0_9SWDiffuseE
0061eec0 T __Z51TodDrawTriangle_0888_TEX1_TALPHA0_MOD0_GLOB1_BLEND0PN4Sexy8SWHelper8SWVertexEPvjPKNS0_13SWTextureInfoERNS0_9SWDiffuseE
0061fef0 T __Z60TodDrawTriangle_0888_TEX1_TALPHA0_MOD0_GLOB1_BLEND1_ADDITIVEPN4Sexy8SWHelper8SWVertexEPvjPKNS0_13SWTextureInfoERNS0_9SWDiffuseE
006216b0 T __Z51TodDrawTriangle_0888_TEX1_TALPHA0_MOD0_GLOB1_BLEND1PN4Sexy8SWHelper8SWVertexEPvjPKNS0_13SWTextureInfoERNS0_9SWDiffuseE
00622e50 T __Z60TodDrawTriangle_0888_TEX1_TALPHA0_MOD1_GLOB0_BLEND0_ADDITIVEPN4Sexy8SWHelper8SWVertexEPvjPKNS0_13SWTextureInfoERNS0_9SWDiffuseE
006247d0 T __Z51TodDrawTriangle_0888_TEX1_TALPHA0_MOD1_GLOB0_BLEND0PN4Sexy8SWHelper8SWVertexEPvjPKNS0_13SWTextureInfoERNS0_9SWDiffuseE
006261a0 T __Z60TodDrawTriangle_0888_TEX1_TALPHA0_MOD1_GLOB0_BLEND1_ADDITIVEPN4Sexy8SWHelper8SWVertexEPvjPKNS0_13SWTextureInfoERNS0_9SWDiffuseE
00628260 T __Z51TodDrawTriangle_0888_TEX1_TALPHA0_MOD1_GLOB0_BLEND1PN4Sexy8SWHelper8SWVertexEPvjPKNS0_13SWTextureInfoERNS0_9SWDiffuseE
0062a410 T __Z60TodDrawTriangle_0888_TEX1_TALPHA0_MOD1_GLOB1_BLEND0_ADDITIVEPN4Sexy8SWHelper8SWVertexEPvjPKNS0_13SWTextureInfoERNS0_9SWDiffuseE
0062c060 T __Z51TodDrawTriangle_0888_TEX1_TALPHA0_MOD1_GLOB1_BLEND0PN4Sexy8SWHelper8SWVertexEPvjPKNS0_13SWTextureInfoERNS0_9SWDiffuseE
0062dd00 T __Z60TodDrawTriangle_0888_TEX1_TALPHA0_MOD1_GLOB1_BLEND1_ADDITIVEPN4Sexy8SWHelper8SWVertexEPvjPKNS0_13SWTextureInfoERNS0_9SWDiffuseE
00630010 T __Z51TodDrawTriangle_0888_TEX1_TALPHA0_MOD1_GLOB1_BLEND1PN4Sexy8SWHelper8SWVertexEPvjPKNS0_13SWTextureInfoERNS0_9SWDiffuseE
00632360 T __Z60TodDrawTriangle_0888_TEX1_TALPHA1_MOD0_GLOB0_BLEND0_ADDITIVEPN4Sexy8SWHelper8SWVertexEPvjPKNS0_13SWTextureInfoERNS0_9SWDiffuseE
006331e0 T __Z51TodDrawTriangle_0888_TEX1_TALPHA1_MOD0_GLOB0_BLEND0PN4Sexy8SWHelper8SWVertexEPvjPKNS0_13SWTextureInfoERNS0_9SWDiffuseE
00634110 T __Z60TodDrawTriangle_0888_TEX1_TALPHA1_MOD0_GLOB0_BLEND1_ADDITIVEPN4Sexy8SWHelper8SWVertexEPvjPKNS0_13SWTextureInfoERNS0_9SWDiffuseE
00635690 T __Z51TodDrawTriangle_0888_TEX1_TALPHA1_MOD0_GLOB0_BLEND1PN4Sexy8SWHelper8SWVertexEPvjPKNS0_13SWTextureInfoERNS0_9SWDiffuseE
00636bc0 T __Z60TodDrawTriangle_0888_TEX1_TALPHA1_MOD0_GLOB1_BLEND0_ADDITIVEPN4Sexy8SWHelper8SWVertexEPvjPKNS0_13SWTextureInfoERNS0_9SWDiffuseE
00637bc0 T __Z51TodDrawTriangle_0888_TEX1_TALPHA1_MOD0_GLOB1_BLEND0PN4Sexy8SWHelper8SWVertexEPvjPKNS0_13SWTextureInfoERNS0_9SWDiffuseE
00638be0 T __Z60TodDrawTriangle_0888_TEX1_TALPHA1_MOD0_GLOB1_BLEND1_ADDITIVEPN4Sexy8SWHelper8SWVertexEPvjPKNS0_13SWTextureInfoERNS0_9SWDiffuseE
0063a390 T __Z51TodDrawTriangle_0888_TEX1_TALPHA1_MOD0_GLOB1_BLEND1PN4Sexy8SWHelper8SWVertexEPvjPKNS0_13SWTextureInfoERNS0_9SWDiffuseE
0063bb10 T __Z60TodDrawTriangle_0888_TEX1_TALPHA1_MOD1_GLOB0_BLEND0_ADDITIVEPN4Sexy8SWHelper8SWVertexEPvjPKNS0_13SWTextureInfoERNS0_9SWDiffuseE
0063d5b0 T __Z51TodDrawTriangle_0888_TEX1_TALPHA1_MOD1_GLOB0_BLEND0PN4Sexy8SWHelper8SWVertexEPvjPKNS0_13SWTextureInfoERNS0_9SWDiffuseE
0063f030 T __Z60TodDrawTriangle_0888_TEX1_TALPHA1_MOD1_GLOB0_BLEND1_ADDITIVEPN4Sexy8SWHelper8SWVertexEPvjPKNS0_13SWTextureInfoERNS0_9SWDiffuseE
00641280 T __Z51TodDrawTriangle_0888_TEX1_TALPHA1_MOD1_GLOB0_BLEND1PN4Sexy8SWHelper8SWVertexEPvjPKNS0_13SWTextureInfoERNS0_9SWDiffuseE
00643550 T __Z60TodDrawTriangle_0888_TEX1_TALPHA1_MOD1_GLOB1_BLEND0_ADDITIVEPN4Sexy8SWHelper8SWVertexEPvjPKNS0_13SWTextureInfoERNS0_9SWDiffuseE
006452c0 T __Z51TodDrawTriangle_0888_TEX1_TALPHA1_MOD1_GLOB1_BLEND0PN4Sexy8SWHelper8SWVertexEPvjPKNS0_13SWTextureInfoERNS0_9SWDiffuseE
00647080 T __Z60TodDrawTriangle_0888_TEX1_TALPHA1_MOD1_GLOB1_BLEND1_ADDITIVEPN4Sexy8SWHelper8SWVertexEPvjPKNS0_13SWTextureInfoERNS0_9SWDiffuseE
00649530 T __Z51TodDrawTriangle_0888_TEX1_TALPHA1_MOD1_GLOB1_BLEND1PN4Sexy8SWHelper8SWVertexEPvjPKNS0_13SWTextureInfoERNS0_9SWDiffuseE
0064ba40 T __Z51TodDrawTriangle_0565_TEX1_TALPHA0_MOD0_GLOB0_BLEND0PN4Sexy8SWHelper8SWVertexEPvjPKNS0_13SWTextureInfoERNS0_9SWDiffuseE
0064c6a0 T __Z51TodDrawTriangle_0565_TEX1_TALPHA0_MOD0_GLOB0_BLEND1PN4Sexy8SWHelper8SWVertexEPvjPKNS0_13SWTextureInfoERNS0_9SWDiffuseE
0064db10 T __Z60TodDrawTriangle_0565_TEX1_TALPHA0_MOD0_GLOB1_BLEND0_ADDITIVEPN4Sexy8SWHelper8SWVertexEPvjPKNS0_13SWTextureInfoERNS0_9SWDiffuseE
0064ec40 T __Z51TodDrawTriangle_0565_TEX1_TALPHA0_MOD0_GLOB1_BLEND0PN4Sexy8SWHelper8SWVertexEPvjPKNS0_13SWTextureInfoERNS0_9SWDiffuseE
0064fd70 T __Z60TodDrawTriangle_0565_TEX1_TALPHA0_MOD0_GLOB1_BLEND1_ADDITIVEPN4Sexy8SWHelper8SWVertexEPvjPKNS0_13SWTextureInfoERNS0_9SWDiffuseE
00651660 T __Z51TodDrawTriangle_0565_TEX1_TALPHA0_MOD0_GLOB1_BLEND1PN4Sexy8SWHelper8SWVertexEPvjPKNS0_13SWTextureInfoERNS0_9SWDiffuseE
00652f50 T __Z60TodDrawTriangle_0565_TEX1_TALPHA0_MOD1_GLOB0_BLEND0_ADDITIVEPN4Sexy8SWHelper8SWVertexEPvjPKNS0_13SWTextureInfoERNS0_9SWDiffuseE
006549b0 T __Z51TodDrawTriangle_0565_TEX1_TALPHA0_MOD1_GLOB0_BLEND0PN4Sexy8SWHelper8SWVertexEPvjPKNS0_13SWTextureInfoERNS0_9SWDiffuseE
00656470 T __Z60TodDrawTriangle_0565_TEX1_TALPHA0_MOD1_GLOB0_BLEND1_ADDITIVEPN4Sexy8SWHelper8SWVertexEPvjPKNS0_13SWTextureInfoERNS0_9SWDiffuseE
00658640 T __Z51TodDrawTriangle_0565_TEX1_TALPHA0_MOD1_GLOB0_BLEND1PN4Sexy8SWHelper8SWVertexEPvjPKNS0_13SWTextureInfoERNS0_9SWDiffuseE
0065a8e0 T __Z60TodDrawTriangle_0565_TEX1_TALPHA0_MOD1_GLOB1_BLEND0_ADDITIVEPN4Sexy8SWHelper8SWVertexEPvjPKNS0_13SWTextureInfoERNS0_9SWDiffuseE
0065c690 T __Z51TodDrawTriangle_0565_TEX1_TALPHA0_MOD1_GLOB1_BLEND0PN4Sexy8SWHelper8SWVertexEPvjPKNS0_13SWTextureInfoERNS0_9SWDiffuseE
0065e490 T __Z60TodDrawTriangle_0565_TEX1_TALPHA0_MOD1_GLOB1_BLEND1_ADDITIVEPN4Sexy8SWHelper8SWVertexEPvjPKNS0_13SWTextureInfoERNS0_9SWDiffuseE
006608c0 T __Z51TodDrawTriangle_0565_TEX1_TALPHA0_MOD1_GLOB1_BLEND1PN4Sexy8SWHelper8SWVertexEPvjPKNS0_13SWTextureInfoERNS0_9SWDiffuseE
00662d40 T __Z60TodDrawTriangle_0565_TEX1_TALPHA1_MOD0_GLOB0_BLEND0_ADDITIVEPN4Sexy8SWHelper8SWVertexEPvjPKNS0_13SWTextureInfoERNS0_9SWDiffuseE
00663d30 T __Z51TodDrawTriangle_0565_TEX1_TALPHA1_MOD0_GLOB0_BLEND0PN4Sexy8SWHelper8SWVertexEPvjPKNS0_13SWTextureInfoERNS0_9SWDiffuseE
00664d70 T __Z60TodDrawTriangle_0565_TEX1_TALPHA1_MOD0_GLOB0_BLEND1_ADDITIVEPN4Sexy8SWHelper8SWVertexEPvjPKNS0_13SWTextureInfoERNS0_9SWDiffuseE
006663b0 T __Z51TodDrawTriangle_0565_TEX1_TALPHA1_MOD0_GLOB0_BLEND1PN4Sexy8SWHelper8SWVertexEPvjPKNS0_13SWTextureInfoERNS0_9SWDiffuseE
00667a40 T __Z60TodDrawTriangle_0565_TEX1_TALPHA1_MOD0_GLOB1_BLEND0_ADDITIVEPN4Sexy8SWHelper8SWVertexEPvjPKNS0_13SWTextureInfoERNS0_9SWDiffuseE
00668b90 T __Z51TodDrawTriangle_0565_TEX1_TALPHA1_MOD0_GLOB1_BLEND0PN4Sexy8SWHelper8SWVertexEPvjPKNS0_13SWTextureInfoERNS0_9SWDiffuseE
00669d00 T __Z60TodDrawTriangle_0565_TEX1_TALPHA1_MOD0_GLOB1_BLEND1_ADDITIVEPN4Sexy8SWHelper8SWVertexEPvjPKNS0_13SWTextureInfoERNS0_9SWDiffuseE
0066b560 T __Z51TodDrawTriangle_0565_TEX1_TALPHA1_MOD0_GLOB1_BLEND1PN4Sexy8SWHelper8SWVertexEPvjPKNS0_13SWTextureInfoERNS0_9SWDiffuseE
0066ce00 T __Z60TodDrawTriangle_0565_TEX1_TALPHA1_MOD1_GLOB0_BLEND0_ADDITIVEPN4Sexy8SWHelper8SWVertexEPvjPKNS0_13SWTextureInfoERNS0_9SWDiffuseE
0066e9f0 T __Z51TodDrawTriangle_0565_TEX1_TALPHA1_MOD1_GLOB0_BLEND0PN4Sexy8SWHelper8SWVertexEPvjPKNS0_13SWTextureInfoERNS0_9SWDiffuseE
00670610 T __Z60TodDrawTriangle_0565_TEX1_TALPHA1_MOD1_GLOB0_BLEND1_ADDITIVEPN4Sexy8SWHelper8SWVertexEPvjPKNS0_13SWTextureInfoERNS0_9SWDiffuseE
00672950 T __Z51TodDrawTriangle_0565_TEX1_TALPHA1_MOD1_GLOB0_BLEND1PN4Sexy8SWHelper8SWVertexEPvjPKNS0_13SWTextureInfoERNS0_9SWDiffuseE
00674cf0 T __Z60TodDrawTriangle_0565_TEX1_TALPHA1_MOD1_GLOB1_BLEND0_ADDITIVEPN4Sexy8SWHelper8SWVertexEPvjPKNS0_13SWTextureInfoERNS0_9SWDiffuseE
00676c00 T __Z51TodDrawTriangle_0565_TEX1_TALPHA1_MOD1_GLOB1_BLEND0PN4Sexy8SWHelper8SWVertexEPvjPKNS0_13SWTextureInfoERNS0_9SWDiffuseE
00678b50 T __Z60TodDrawTriangle_0565_TEX1_TALPHA1_MOD1_GLOB1_BLEND1_ADDITIVEPN4Sexy8SWHelper8SWVertexEPvjPKNS0_13SWTextureInfoERNS0_9SWDiffuseE
0067b0d0 T __Z51TodDrawTriangle_0565_TEX1_TALPHA1_MOD1_GLOB1_BLEND1PN4Sexy8SWHelper8SWVertexEPvjPKNS0_13SWTextureInfoERNS0_9SWDiffuseE
0067d6c0 T __Z51TodDrawTriangle_0555_TEX1_TALPHA0_MOD0_GLOB0_BLEND0PN4Sexy8SWHelper8SWVertexEPvjPKNS0_13SWTextureInfoERNS0_9SWDiffuseE
0067e320 T __Z51TodDrawTriangle_0555_TEX1_TALPHA0_MOD0_GLOB0_BLEND1PN4Sexy8SWHelper8SWVertexEPvjPKNS0_13SWTextureInfoERNS0_9SWDiffuseE
0067f790 T __Z51TodDrawTriangle_0555_TEX1_TALPHA0_MOD0_GLOB1_BLEND0PN4Sexy8SWHelper8SWVertexEPvjPKNS0_13SWTextureInfoERNS0_9SWDiffuseE
006808a0 T __Z51TodDrawTriangle_0555_TEX1_TALPHA0_MOD0_GLOB1_BLEND1PN4Sexy8SWHelper8SWVertexEPvjPKNS0_13SWTextureInfoERNS0_9SWDiffuseE
00682180 T __Z51TodDrawTriangle_0555_TEX1_TALPHA0_MOD1_GLOB0_BLEND0PN4Sexy8SWHelper8SWVertexEPvjPKNS0_13SWTextureInfoERNS0_9SWDiffuseE
00683be0 T __Z51TodDrawTriangle_0555_TEX1_TALPHA0_MOD1_GLOB0_BLEND1PN4Sexy8SWHelper8SWVertexEPvjPKNS0_13SWTextureInfoERNS0_9SWDiffuseE
00685dc0 T __Z51TodDrawTriangle_0555_TEX1_TALPHA0_MOD1_GLOB1_BLEND0PN4Sexy8SWHelper8SWVertexEPvjPKNS0_13SWTextureInfoERNS0_9SWDiffuseE
00687b70 T __Z51TodDrawTriangle_0555_TEX1_TALPHA0_MOD1_GLOB1_BLEND1PN4Sexy8SWHelper8SWVertexEPvjPKNS0_13SWTextureInfoERNS0_9SWDiffuseE
00689fa0 T __Z51TodDrawTriangle_0555_TEX1_TALPHA1_MOD0_GLOB0_BLEND0PN4Sexy8SWHelper8SWVertexEPvjPKNS0_13SWTextureInfoERNS0_9SWDiffuseE
0068af70 T __Z51TodDrawTriangle_0555_TEX1_TALPHA1_MOD0_GLOB0_BLEND1PN4Sexy8SWHelper8SWVertexEPvjPKNS0_13SWTextureInfoERNS0_9SWDiffuseE
0068c5a0 T __Z51TodDrawTriangle_0555_TEX1_TALPHA1_MOD0_GLOB1_BLEND0PN4Sexy8SWHelper8SWVertexEPvjPKNS0_13SWTextureInfoERNS0_9SWDiffuseE
0068d6d0 T __Z51TodDrawTriangle_0555_TEX1_TALPHA1_MOD0_GLOB1_BLEND1PN4Sexy8SWHelper8SWVertexEPvjPKNS0_13SWTextureInfoERNS0_9SWDiffuseE
0068ef30 T __Z51TodDrawTriangle_0555_TEX1_TALPHA1_MOD1_GLOB0_BLEND0PN4Sexy8SWHelper8SWVertexEPvjPKNS0_13SWTextureInfoERNS0_9SWDiffuseE
00690b10 T __Z51TodDrawTriangle_0555_TEX1_TALPHA1_MOD1_GLOB0_BLEND1PN4Sexy8SWHelper8SWVertexEPvjPKNS0_13SWTextureInfoERNS0_9SWDiffuseE
00692e50 T __Z51TodDrawTriangle_0555_TEX1_TALPHA1_MOD1_GLOB1_BLEND0PN4Sexy8SWHelper8SWVertexEPvjPKNS0_13SWTextureInfoERNS0_9SWDiffuseE
00694d60 T __Z51TodDrawTriangle_0555_TEX1_TALPHA1_MOD1_GLOB1_BLEND1PN4Sexy8SWHelper8SWVertexEPvjPKNS0_13SWTextureInfoERNS0_9SWDiffuseE
006972f0 T __ZN16TodTriangleGroupC1Ev
006972f0 T __ZN16TodTriangleGroupC2Ev
00697380 T __ZN16TodTriangleGroup9DrawGroupEPN4Sexy8GraphicsE
006973a0 T __ZN16TodTriangleGroup11AddTriangleEPN4Sexy8GraphicsEPNS0_5ImageERKNS0_11SexyMatrix3ERKNS0_5TRectIiEERKNS0_5ColorEiSB_
00698c80 t .text
00698c80 t __ZNSt8_Rb_treeIPN4Sexy5ImageESt4pairIKS2_S2_ESt10_Select1stIS5_ESt4lessIS2_ESaIS5_EE8_M_eraseEPSt13_Rb_tree_nodeIS5_E.isra.0
00698e40 t ___tcfgFilterMap
00698e90 T __Z10RGB_to_HSLfffRfS_S_
00699040 T __Z10HSL_to_RGBfffRfS_S_
00699170 T __Z22FilterEffectInitForAppv
00699180 T __Z25FilterEffectDisposeForAppv
00699210 T __Z20FilterEffectDoLumSatPN4Sexy11MemoryImageEff
006993d0 T __Z23FilterEffectDoWashedOutPN4Sexy11MemoryImageE
00699400 T __Z27FilterEffectDoLessWashedOutPN4Sexy11MemoryImageE
00699430 T __Z19FilterEffectDoWhitePN4Sexy11MemoryImageE
006994b0 T __Z23FilterEffectCreateImagePN4Sexy5ImageE12FilterEffect
00699680 T __Z20FilterEffectGetImagePN4Sexy5ImageE12FilterEffect
00699840 t .text
00699840 T __Z26sSortByNonIncreasingHeightRK16ReanimAtlasImageS1_
00699870 T __ZN11ReanimAtlasC1Ev
00699870 T __ZN11ReanimAtlasC2Ev
006998c0 T __ZN11ReanimAtlas18ReanimAtlasDisposeEv
006998f0 T __ZN11ReanimAtlas21GetEncodedReanimAtlasEPN4Sexy5ImageE
00699920 T __Z31ReanimAtlasMakeBlankMemoryImageii
006999b0 T __ZN11ReanimAtlas14PickAtlasWidthEv
00699ab0 T __ZN11ReanimAtlas9ImageFitsEiRKN4Sexy5TRectIiEEi
00699b40 T __ZN11ReanimAtlas20ImageFindPlaceOnSideEP16ReanimAtlasImageiib
00699c20 T __ZN11ReanimAtlas14ImageFindPlaceEP16ReanimAtlasImageii
00699c90 T __ZN11ReanimAtlas15PlaceAtlasImageEP16ReanimAtlasImageii
00699d20 T __ZN11ReanimAtlas8AddImageEPN4Sexy5ImageE
00699d60 T __ZN11ReanimAtlas9FindImageEPN4Sexy5ImageE
00699db0 T __ZN11ReanimAtlas13ArrangeImagesERiS0_
00699f40 T __ZN11ReanimAtlas17ReanimAtlasCreateEP20ReanimatorDefinition
0069a2c0 t .text
0069a2c0 t __ZNSt7__cxx1112basic_stringIcSt11char_traitsIcESaIcEE12_M_constructIPKcEEvT_S8_St20forward_iterator_tag.isra.0
0069a380 t __ZN11Reanimation17GetFramesForLayerEPKcRiS2_.part.0
0069a4b0 T __ZN19ReanimatorTransformC1Ev
0069a4b0 T __ZN19ReanimatorTransformC2Ev
0069a4f0 T __Z28ReanimationFillInMissingDataRfS_
0069a520 T __Z28ReanimationFillInMissingDataRPvS0_
0069a540 T __Z25ReanimationLoadDefinitionRKNSt7__cxx1112basic_stringIcSt11char_traitsIcESaIcEEEP20ReanimatorDefinition
0069a8a0 T __Z25ReanimationFreeDefinitionP20ReanimatorDefinition
0069a970 T __ZN23ReanimatorTrackInstanceC1Ev
0069a970 T __ZN23ReanimatorTrackInstanceC2Ev
0069aa10 T __ZN11ReanimationC1Ev
0069aa10 T __ZN11ReanimationC2Ev
0069ab10 T __ZN11ReanimationD1Ev
0069ab10 T __ZN11ReanimationD2Ev
0069ab90 T __ZN11Reanimation17ReanimationDeleteEv
0069abf0 T __Z22ReanimationCreateAtlasP20ReanimatorDefinition15ReanimationType
0069ad30 T __Z18ReanimationPreload15ReanimationType
0069ad80 T __ZN11Reanimation21ReanimationInitializeEffP20ReanimatorDefinition
0069ae40 T __Z14BlendTransformP19ReanimatorTransformRKS_S2_f
0069af50 T __ZN11Reanimation18GetTransformAtTimeEiP19ReanimatorTransformP19ReanimatorFrameTime
0069b090 T __ZN11Reanimation19MatrixFromTransformERK19ReanimatorTransformRN4Sexy11SexyMatrix3E
0069b140 T __ZN11Reanimation15ReanimBltMatrixEPN4Sexy8GraphicsEPNS0_5ImageERNS0_11SexyMatrix3ERKNS0_5TRectIiEERKNS0_5ColorEiSA_
0069b470 T __ZN11Reanimation12GetFrameTimeEP19ReanimatorFrameTime
0069b540 T __ZN11Reanimation19GetCurrentTransformEiP19ReanimatorTransform
0069b610 T __ZN11Reanimation14GetTrackMatrixEiRN4Sexy15SexyTransform2DE
0069b810 T __ZN11Reanimation20GetCurrentTrackImageEPKc
0069b900 T __ZN11Reanimation9DrawTrackEPN4Sexy8GraphicsEiiP16TodTriangleGroup
0069c6e0 t __ZN11Reanimation15DrawRenderGroupEPN4Sexy8GraphicsEi.part.0
0069c7e0 T __ZN11Reanimation15DrawRenderGroupEPN4Sexy8GraphicsEi
0069c800 T __ZN11Reanimation4DrawEPN4Sexy8GraphicsE
0069c830 T __ZN11Reanimation14FindTrackIndexEPKc
0069c8a0 T __ZN11Reanimation22GetTrackInstanceByNameEPKc
0069c930 T __ZN11Reanimation26AttachToAnotherReanimationEPS_PKc
0069c9f0 T __ZN11Reanimation19SetBasePoseFromAnimEPKc
0069ca40 T __ZN11Reanimation22GetTrackBasePoseMatrixEiRN4Sexy15SexyTransform2DE
0069cab0 T __ZN11Reanimation21AttachParticleToTrackEPKcP17TodParticleSystemff
0069cb80 T __ZN11Reanimation26GetAttachmentOverlayMatrixEiRN4Sexy15SexyTransform2DE
0069ccb0 T __ZN11Reanimation17GetFramesForLayerEPKcRiS2_
0069cd00 T __ZN11Reanimation17SetFramesForLayerEPKc
0069cd70 T __ZN11Reanimation11TrackExistsEPKc
0069cde0 T __ZN11Reanimation10StartBlendEi
0069cf20 T __ZN11Reanimation14ReanimationDieEv
0069cf70 T __ZN11Reanimation16SetShakeOverrideEPKcf
0069d000 T __ZN11Reanimation11SetPositionEff
0069d020 T __ZN11Reanimation13OverrideScaleEff
0069d040 T __ZN11Reanimation16GetImageOverrideEPKc
0069d0d0 T __ZN11Reanimation16SetImageOverrideEPKcPN4Sexy5ImageE
0069d160 T __ZN11Reanimation29SetTruncateDisappearingFramesEPKcb
0069d270 T __ZN17ReanimationHolder13DisposeHolderEv
0069d340 T __ZN17ReanimationHolderD1Ev
0069d340 T __ZN17ReanimationHolderD2Ev
0069d3d0 T __ZN17ReanimationHolder16InitializeHolderEv
0069d400 T __Z25ReanimatorFreeDefinitionsv
0069d470 T __ZN11Reanimation16GetTrackVelocityEPKc
0069d520 T __ZN11Reanimation14IsTrackShowingEPKc
0069d5c0 T __ZN11Reanimation13ShowOnlyTrackEPKc
0069d620 T __ZN11Reanimation24AssignRenderGroupToTrackEPKci
0069d680 T __ZN11Reanimation25AssignRenderGroupToPrefixEPKci
0069d730 T __ZN11Reanimation27PropogateColorToAttachmentsEv
0069d7c0 T __ZN11Reanimation23ShouldTriggerTimedEventEf
0069d850 T __ZN11Reanimation10PlayReanimEPKc14ReanimLoopTypeif
0069d910 T __ZN11Reanimation18ParseAttacherTrackERK19ReanimatorTransformR12AttacherInfo
0069dc80 T __ZN11Reanimation22AttacherSynchWalkSpeedEiPS_R12AttacherInfo
0069dfd0 T __ZN11Reanimation13IsAnimPlayingEPKc
0069e030 T __ZN11Reanimation13FindSubReanimE15ReanimationType
0069e0a0 T __Z32ReanimatorEnsureDefinitionLoaded15ReanimationTypeb
0069e350 T __ZN11Reanimation25ReanimationInitializeTypeEff15ReanimationType
0069e3b0 T __Z25ReanimatorLoadDefinitionsP17ReanimationParamsi
0069e530 T __ZN17ReanimationHolder16AllocReanimationEffi15ReanimationType
0069e630 T __ZN11Reanimation19UpdateAttacherTrackEi
0069ebb0 T __ZN11Reanimation6UpdateEv
0069ee40 t .text
0069ee40 t __Z19TodCalcSmoothWeightfff.part.0
0069eeb0 t __ZNSt8_Rb_treeINSt7__cxx1112basic_stringIcSt11char_traitsIcESaIcEEESt4pairIKS5_S5_ESt10_Select1stIS8_ESt4lessIS5_ESaIS8_EE8_M_eraseEPSt13_Rb_tree_nodeIS8_E.isra.0
0069ef30 T __Z28Tod_SWTri_AddAllDrawTriFuncsv
0069fe40 T __Z22TodGetCurrentLevelNameB5cxx11v
0069fe70 T __Z19TodHasUsedCheatKeysv
0069fe80 T __Z18TodAppCloseRequestv
0069fe90 T __Z16TodPickFromArrayPKii
0069feb0 T __Z33TodPickArrayItemFromWeightedArrayPK16TodWeightedArrayi
0069ff20 T __Z24TodPickFromWeightedArrayPK16TodWeightedArrayi
0069ff40 T __Z28TodPickFromWeightedGridArrayPK20TodWeightedGridArrayi
0069ffb0 T __Z19TodCalcSmoothWeightfff
0069ffe0 T __Z24TodUpdateSmoothArrayPickP14TodSmoothArrayii
006a0040 T __Z22TodPickFromSmoothArrayP14TodSmoothArrayi
006a01c0 T __Z12TodCurveQuadf
006a01d0 T __Z15TodCurveInvQuadf
006a01e0 T __Z9TodCurveSf
006a0200 T __Z16TodCurveInvQuadSf
006a0230 T __Z14TodCurveBouncef
006a0250 T __Z13TodCurveQuadSf
006a0290 T __Z13TodCurveCubicf
006a02a0 T __Z16TodCurveInvCubicf
006a02c0 T __Z14TodCurveCubicSf
006a0300 T __Z12TodCurvePolyff
006a0310 T __Z15TodCurveInvPolyff
006a0340 T __Z13TodCurvePolySff
006a03a0 T __Z14TodCurveCirclef
006a03f0 T __Z17TodCurveInvCirclef
006a0430 T __Z16TodCurveEvaluatefff9TodCurves
006a0640 T __Z23TodCurveEvaluateClampedfff9TodCurves
006a0690 T __Z24TodAnimateCurveFloatTimefffff9TodCurves
006a06f0 T __Z20TodAnimateCurveFloatiiiff9TodCurves
006a0770 T __Z15TodAnimateCurveiiiii9TodCurves
006a0830 T __Z12RandRangeIntii
006a0850 T __Z14RandRangeFloatff
006a0870 T __Z13TodDrawStringPN4Sexy8GraphicsERKNSt7__cxx1112basic_stringIcSt11char_traitsIcESaIcEEEiiPNS_4FontERKNS_5ColorE23DrawStringJustification
006a0940 T __Z21TodDrawImageCelScaledPN4Sexy8GraphicsEPNS_5ImageEiiiiff
006a0a40 T __Z16TodDrawImageCelFPN4Sexy8GraphicsEPNS_5ImageEffii
006a0ab0 T __Z22SexyMatrix3TranslationRN4Sexy11SexyMatrix3Eff
006a0ad0 T __Z23TodScaleTransformMatrixRN4Sexy11SexyMatrix3Effff
006a0b10 T __Z29TodScaleRotateTransformMatrixRN4Sexy11SexyMatrix3Efffff
006a0b90 T __Z23SexyMatrix3ExtractScaleRKN4Sexy11SexyMatrix3ERfS3_
006a0c80 T __Z22TodMarkImageForSandingPN4Sexy5ImageE
006a0c90 T __Z20TodSandImageIfNeededPN4Sexy5ImageE
006a0ca0 T __Z12TodBltMatrixPN4Sexy8GraphicsEPNS_5ImageERKNS_11SexyMatrix3ERKNS_5TRectIiEERKNS_5ColorEiSA_
006a0e40 T __Z28TodDrawImageCelCenterScaledFPN4Sexy8GraphicsEPNS_5ImageEffiff
006a0fb0 T __Z22TodDrawImageCelScaledFPN4Sexy8GraphicsEPNS_5ImageEffiiff
006a1130 T __Z19TodDrawImageScaledFPN4Sexy8GraphicsEPNS_5ImageEffff
006a1290 T __Z25TodDrawImageCenterScaledFPN4Sexy8GraphicsEPNS_5ImageEffff
006a13e0 T __Z19AverageNearByPixelsPN4Sexy11MemoryImageEPmii
006a1560 T __Z31FixPixelsOnAlphaEdgeForBlendingPN4Sexy5ImageE
006a16d0 T __Z20SexyMatrix3TransposeRKN4Sexy11SexyMatrix3ERS0_
006a1750 T __Z18SexyMatrix3InverseRKN4Sexy11SexyMatrix3ERS0_
006a18b0 T __Z19SexyMatrix3MultiplyRN4Sexy11SexyMatrix3ERKS0_S3_
006a1a10 T __Z19TodDrawStringMatrixPN4Sexy8GraphicsEPKNS_4FontERKNS_11SexyMatrix3ERKNSt7__cxx1112basic_stringIcSt11char_traitsIcESaIcEEERKNS_5ColorE
006a2010 T __Z16GetFlashingColorii
006a2080 T __Z8ColorAddRKN4Sexy5ColorES2_
006a2110 T __Z22ColorComponentMultiplyii
006a2140 T __Z14ColorsMultiplyRKN4Sexy5ColorES2_
006a2240 T __ZN18TodResourceManager19TodLoadNextResourceEv
006a2340 T __Z19TodLoadNextResourcev
006a2350 T __Z16TodFindImagePathPN4Sexy5ImageEPNSt7__cxx1112basic_stringIcSt11char_traitsIcESaIcEEE
006a23d0 T __ZN18TodResourceManager13FindImagePathEPN4Sexy5ImageEPNSt7__cxx1112basic_stringIcSt11char_traitsIcESaIcEEE
006a2440 T __Z19FindGlobalAllocatori
006a24c0 T __Z20FreeGlobalAllocatorsv
006a2520 T __Z16TodReplaceStringRKNSt7__cxx1112basic_stringIcSt11char_traitsIcESaIcEEEPKcS6_
006a2600 T __Z22TodReplaceNumberStringRKNSt7__cxx1112basic_stringIcSt11char_traitsIcESaIcEEEPKci
006a26f0 T __Z19TodIsPointInPolygonPKN4Sexy11SexyVector2EiRS1_
006a2790 T __Z12TodVsnprintfPciPKcS_
006a27e0 T __Z11TodSnprintfPciPKcz
006a2830 T __ZN18TodResourceManager13AddImageToMapEPN4Sexy14SharedImageRefERKNSt7__cxx1112basic_stringIcSt11char_traitsIcESaIcEEE
006a2bc0 T __Z16TodAddImageToMapPN4Sexy14SharedImageRefERKNSt7__cxx1112basic_stringIcSt11char_traitsIcESaIcEEE
006a2bf0 T __ZN18TodResourceManager16TodLoadResourcesERKNSt7__cxx1112basic_stringIcSt11char_traitsIcESaIcEEE
006a2e80 T __Z16TodLoadResourcesRKNSt7__cxx1112basic_stringIcSt11char_traitsIcESaIcEEE
006a2ec0 t .text
006a2ec0 T __Z27TodUnhandledExceptionFilterP19_EXCEPTION_POINTERS@4
006a2f10 T __Z18TodErrorMessageBoxPKcS0_
006a2f60 T __Z14TodTraceMemoryv
006a2f70 T __Z9TodMalloci
006a2f80 T __Z7TodFreePv
006a2fa0 T __Z15TodAssertFailedPKcS0_iS0_z
006a2fb0 T __Z6TodLogPKcz
006a2fc0 T __Z12TodLogStringPKc
006a2fd0 T __Z8TodTracePKcz
006a2fe0 T __Z18TodHesitationTracez
006a2ff0 T __Z14TodTraceAndLogPKcz
006a3000 T __Z23TodTraceWithoutSpammingPKcz
006a3010 T __Z14TodReportErrorP19_EXCEPTION_POINTERSPKc
006a3030 T __Z19TodAssertInitForAppv
006a3340 t .text
006a3340 T __ZN13FoleyInstanceC1Ev
006a3340 T __ZN13FoleyInstanceC2Ev
006a3370 T __ZN13FoleyTypeDataC1Ev
006a3370 T __ZN13FoleyTypeDataC2Ev
006a33c0 T __ZN17TodDSoundInstance16GetSoundPositionEv
006a33f0 T __ZN17TodDSoundInstance16SetSoundPositionEi
006a3410 T __Z18TodFoleyInitializeP11FoleyParamsi
006a3430 T __Z15TodFoleyDisposev
006a3450 T __Z35SoundSystemReleaseFinishedInstancesP8TodFoley
006a34d0 T __Z36SoundSystemHasFoleyPlayedTooRecentlyP8TodFoley9FoleyType
006a3520 T __Z11LookupFoley9FoleyType
006a3530 T __Z23SoundSystemFindInstanceP8TodFoley9FoleyType
006a3580 T __Z31SoundSystemGetFreeInstanceIndexP8TodFoley9FoleyType
006a35d0 T __ZN8TodFoley9StopFoleyE9FoleyType
006a3640 T __ZN8TodFoley9GamePauseEb
006a37e0 T __ZN8TodFoley17CancelPausedFoleyEv
006a3860 T __ZN8TodFoley16ApplyMusicVolumeEP13FoleyInstance
006a38b0 T __ZN8TodFoley14PlayFoleyPitchE9FoleyTypef
006a3ae0 T __ZN8TodFoley9PlayFoleyE9FoleyType
006a3b40 T __ZN8TodFoley28RehookupSoundWithMusicVolumeEv
006a3be0 T __ZN8TodFoley14IsFoleyPlayingE9FoleyType
006a3c40 t .text
006a3c40 T __ZN12TodAllocator10InitializeEii
006a3c70 T __ZN12TodAllocator7DisposeEv
006a3cb0 T __ZN12TodAllocator4GrowEv
006a3d20 T __ZN12TodAllocator22IsPointerFromAllocatorEPv
006a3d80 T __ZN12TodAllocator19IsPointerOnFreeListEPv
006a3db0 T __ZN12TodAllocator5AllocEi
006a3e40 T __ZN12TodAllocator6CallocEi
006a3ee0 T __ZN12TodAllocator4FreeEPvi
006a3f00 T __ZN12TodAllocator7FreeAllEv
006a3f40 t .text
006a3f40 T __Z19TodParticleLoadADefP21TodParticleDefinitionPKc
006a43e0 T __Z26TodParticleLoadDefinitionsP14ParticleParamsi
006a44c0 T __Z26TodParticleFreeDefinitionsv
006a4540 T __ZN17TodParticleSystemC1Ev
006a4540 T __ZN17TodParticleSystemC2Ev
006a4590 T __ZN18TodParticleEmitter21ParticleTrackEvaluateER19FloatParameterTrackP11TodParticle14ParticleTracks
006a45b0 T __ZN18TodParticleEmitter19UpdateParticleFieldEP11TodParticleP13ParticleFieldfi
006a4a20 T __ZN18TodParticleEmitter19SystemTrackEvaluateER19FloatParameterTrack20ParticleSystemTracks
006a4a50 T __ZN18TodParticleEmitter17UpdateSystemFieldEP13ParticleFieldfi
006a4b30 T __ZN18TodParticleEmitter9DeleteAllEv
006a4bd0 T __ZN17TodParticleSystem17ParticleSystemDieEv
006a4cb0 T __ZN17TodParticleSystemD1Ev
006a4cb0 T __ZN17TodParticleSystemD2Ev
006a4d00 T __ZN18TodParticleEmitter14DeleteParticleEP11TodParticle
006a4dd0 T __ZN18TodParticleEmitter20DeleteNonCrossFadingEv
006a4e20 T __Z13CrossFadeLerpffbbf
006a4e50 T __ZN18TodParticleEmitter15GetRenderParamsEP11TodParticleP20ParticleRenderParams
006a54f0 T __Z14RenderParticlePN4Sexy8GraphicsEP11TodParticleRKNS_5ColorEP20ParticleRenderParamsP16TodTriangleGroup
006a5a30 t __ZN18TodParticleEmitter12DrawParticleEPN4Sexy8GraphicsEP11TodParticleP16TodTriangleGroup.part.0
006a5c80 t __ZN18TodParticleEmitter4DrawEPN4Sexy8GraphicsE.part.0
006a5d00 T __ZN18TodParticleEmitter12DrawParticleEPN4Sexy8GraphicsEP11TodParticleP16TodTriangleGroup
006a5d30 T __ZN18TodParticleEmitter4DrawEPN4Sexy8GraphicsE
006a5d90 T __ZN17TodParticleSystem4DrawEPN4Sexy8GraphicsE
006a5de0 T __ZN18TodParticleEmitter10SystemMoveEff
006a5ea0 T __ZN17TodParticleSystem10SystemMoveEff
006a5f00 T __ZN17TodParticleSystem13OverrideColorEPKcRKN4Sexy5ColorE
006a5f80 T __ZN17TodParticleSystem25OverrideExtraAdditiveDrawEPKcb
006a5ff0 T __ZN17TodParticleSystem13OverrideImageEPKcPN4Sexy5ImageE
006a6050 T __ZN17TodParticleSystem13OverrideFrameEPKci
006a60b0 T __ZN17TodParticleSystem13OverrideScaleEPKcf
006a6110 T __ZN17TodParticleSystem17FindEmitterByNameEPKc
006a6180 T __ZN17TodParticleSystem20FindEmitterDefByNameEPKc
006a61f0 T __ZN17TodParticleHolder16InitializeHolderEv
006a62a0 T __ZN17TodParticleHolder13DisposeHolderEv
006a6520 T __ZN17TodParticleHolderD1Ev
006a6520 T __ZN17TodParticleHolderD2Ev
006a6710 T __ZN17TodParticleHolder12IsOverLoadedEv
006a6740 T __ZN18TodParticleEmitter23CrossFadeParticleToNameEP11TodParticlePKc
006a6940 T __ZN18TodParticleEmitter14UpdateParticleEP11TodParticle
006a6b90 T __ZN18TodParticleEmitter13SpawnParticleEii
006a7330 T __ZN18TodParticleEmitter17CrossFadeParticleEP11TodParticlePS_
006a7470 T __ZN18TodParticleEmitter16CrossFadeEmitterEPS_
006a7590 T __ZN18TodParticleEmitter14UpdateSpawningEv
006a7770 t __ZN18TodParticleEmitter6UpdateEv.part.0
006a7950 T __ZN18TodParticleEmitter6UpdateEv
006a7970 T __ZN18TodParticleEmitter20TodEmitterInitializeEffP17TodParticleSystemP20TodEmitterDefinition
006a7b20 T __ZN17TodParticleSystem28TodParticleInitializeFromDefEffiP21TodParticleDefinition14ParticleEffect
006a7d10 T __ZN17TodParticleHolder26AllocParticleSystemFromDefEffiP21TodParticleDefinition14ParticleEffect
006a7e50 T __ZN17TodParticleHolder19AllocParticleSystemEffi14ParticleEffect
006a7e90 T __ZN17TodParticleSystem9CrossFadeEPKc
006a8100 T __ZN17TodParticleSystem6UpdateEv
006a81c0 t .text
006a81c0 t __ZL9GetPakPtrv
006a8280 t __ZL7p_fseekP5PFILEli.constprop.0.isra.0
006a82e0 t __ZNSt8_Rb_treeINSt7__cxx1112basic_stringIcSt11char_traitsIcESaIcEEESt4pairIKS5_NS1_IwS2_IwESaIwEEEESt10_Select1stISB_ESt4lessIS5_ESaISB_EE4findERS7_.isra.0
006a83a0 t __ZNSt7__cxx1112basic_stringIcSt11char_traitsIcESaIcEE12_M_constructIPKcEEvT_S8_St20forward_iterator_tag.isra.0
006a8460 T __ZN19TodStringListFormatC1Ev
006a8460 T __ZN19TodStringListFormatC2Ev
006a8490 T __ZN19TodStringListFormatC1EPKcPPN4Sexy4FontERKNS2_5ColorEij
006a8490 T __ZN19TodStringListFormatC2EPKcPPN4Sexy4FontERKNS2_5ColorEij
006a84d0 T __Z22TodStringListSetColorsP19TodStringListFormati
006a84f0 T __Z21TodStringListReadNameRPKcRNSt7__cxx1112basic_stringIcSt11char_traitsIcESaIcEEE
006a8710 T __Z26TodStringRemoveReturnCharsRNSt7__cxx1112basic_stringIcSt11char_traitsIcESaIcEEE
006a8770 T __Z22TodStringListReadValueRPKcRNSt7__cxx1112basic_stringIcSt11char_traitsIcESaIcEEE
006a8900 T __Z22TodStringListReadItemsPKc
006a8a70 T __Z21TodStringListReadFilePKc
006a8c40 T __Z17TodStringListLoadPKc
006a8cc0 T __Z17TodStringListFindRKNSt7__cxx1112basic_stringIcSt11char_traitsIcESaIcEEE
006a8d70 T __Z18TodStringTranslateRKNSt7__cxx1112basic_stringIcSt11char_traitsIcESaIcEEE
006a8e90 T __Z18TodStringTranslateB5cxx11PKc
006a8fd0 T __Z19TodStringListExistsRKNSt7__cxx1112basic_stringIcSt11char_traitsIcESaIcEEE
006a9080 T __Z23TodWriteStringSetFormatPKcR19TodStringListFormat
006a9160 T __Z19CharIsSpaceInFormatcRK19TodStringListFormat
006a9180 T __Z14TodWriteStringPN4Sexy8GraphicsERKNSt7__cxx1112basic_stringIcSt11char_traitsIcESaIcEEEiiR19TodStringListFormati23DrawStringJustificationbii
006a9450 T __Z25TodWriteWordWrappedHelperPN4Sexy8GraphicsERKNSt7__cxx1112basic_stringIcSt11char_traitsIcESaIcEEEiiR19TodStringListFormati23DrawStringJustificationbiii
006a9500 T __Z26TodDrawStringWrappedHelperPN4Sexy8GraphicsERKNSt7__cxx1112basic_stringIcSt11char_traitsIcESaIcEEERKNS_5TRectIiEEPNS_4FontERKNS_5ColorE23DrawStringJustificationb
006a9a20 T __Z20TodDrawStringWrappedPN4Sexy8GraphicsERKNSt7__cxx1112basic_stringIcSt11char_traitsIcESaIcEEERKNS_5TRectIiEEPNS_4FontERKNS_5ColorE23DrawStringJustification
006a9b40 t .text
006a9b40 T __ZN15TrailDefinitionC1Ev
006a9b40 T __ZN15TrailDefinitionC2Ev
006a9b80 T __ZN15TrailDefinitionD1Ev
006a9b80 T __ZN15TrailDefinitionD2Ev
006a9b90 T __ZN10TrailPointC1Ev
006a9b90 T __ZN10TrailPointC2Ev
006a9ba0 T __Z13TrailLoadADefP15TrailDefinitionPKc
006a9d50 T __Z20TrailLoadDefinitionsP11TrailParamsi
006a9e80 T __Z20TrailFreeDefinitionsv
006a9f20 T __ZN5TrailC1Ev
006a9f20 T __ZN5TrailC2Ev
006aa000 T __ZN5Trail8AddPointEff
006aa0b0 T __ZN5Trail6UpdateEv
006aa0f0 T __ZN5Trail16GetNormalAtPointEiRN4Sexy11SexyVector2E
006aa210 T __ZN5Trail4DrawEPN4Sexy8GraphicsE
006aa7e0 T __ZN11TrailHolder16InitializeHolderEv
006aa810 T __ZN11TrailHolder13DisposeHolderEv
006aa8d0 T __ZN11TrailHolder17AllocTrailFromDefEiP15TrailDefinition
006aaa00 T __ZN11TrailHolder10AllocTrailEi9TrailType
006aaa40 t .text
006aaa40 t __ZL11FixFileNamePKcPc
006aac30 T __ZN12PakInterface6FCloseEP5PFILE
006aac70 T __ZN12PakInterface5FSeekEP5PFILEli
006aad10 T __ZN12PakInterface5FReadEPviiP5PFILE
006aadc0 T __ZN12PakInterface5FGetSEPciP5PFILE
006aae70 T __ZN12PakInterface6UnGetCEiP5PFILE
006aaec0 T __ZN12PakInterface4FEofEP5PFILE
006aaf00 T __ZN12PakInterface5FGetCEP5PFILE
006aaf80 T __ZN12PakInterface5FTellEP5PFILE
006aafc0 t __ZNSt7__cxx1112basic_stringIcSt11char_traitsIcESaIcEE12_M_constructIPKcEEvT_S8_St20forward_iterator_tag.isra.0
006ab080 t __ZNSt8_Rb_treeINSt7__cxx1112basic_stringIcSt11char_traitsIcESaIcEEESt4pairIKS5_9PakRecordESt10_Select1stIS9_ESt4lessIS5_ESaIS9_EE4findERS7_.isra.0
006ab140 T __ZN12PakInterface9FindCloseEPv
006ab1b0 t __ZNSt8_Rb_treeINSt7__cxx1112basic_stringIcSt11char_traitsIcESaIcEEESt4pairIKS5_9PakRecordESt10_Select1stIS9_ESt4lessIS5_ESaIS9_EE8_M_eraseEPSt13_Rb_tree_nodeIS9_E.isra.0
006ab230 T __ZN12PakInterface5FOpenEPKcS1_
006ab3a0 T __ZN12PakInterfaceC1Ev
006ab3a0 T __ZN12PakInterfaceC2Ev
006ab4b0 T __ZN12PakInterfaceD1Ev
006ab4b0 T __ZN12PakInterfaceD2Ev
006ab550 T __ZN12PakInterface9PFindNextEP9PFindDataP17_WIN32_FIND_DATAA
006ab7d0 T __ZN12PakInterface14FindFirstFileAEPKcP17_WIN32_FIND_DATAA
006ab900 T __ZN12PakInterface13FindNextFileAEPvP17_WIN32_FIND_DATAA
006ab980 T __ZN12PakInterface10AddPakFileERKNSt7__cxx1112basic_stringIcSt11char_traitsIcESaIcEEE
006ac900 t .text
006ac900 t __ZL11init_sourceP22jpeg_decompress_struct
006ac910 t __ZL11term_sourceP22jpeg_decompress_struct
006ac920 T __ZN8ImageLib5ImageD1Ev
006ac920 T __ZN8ImageLib5ImageD2Ev
006ac950 t __ZL9GetPakPtrv
006aca10 t __ZL13my_error_exitP18jpeg_common_struct
006aca40 t __ZL7p_fopenPKcS0_.constprop.0
006acac0 t __ZL7p_freadPviiP5PFILE
006acb30 t __ZL17png_pak_read_dataP14png_struct_defPhj
006acb80 t __ZL17fill_input_bufferP22jpeg_decompress_struct
006acc00 t __ZL15skip_input_dataP22jpeg_decompress_structl
006acc50 t __ZL7p_ftellP5PFILE.isra.0
006acc90 t __ZL8p_fcloseP5PFILE.isra.0
006acce0 t __ZNSt7__cxx1112basic_stringIcSt11char_traitsIcESaIcEE12_M_constructIPKcEEvT_S8_St20forward_iterator_tag.isra.0
006acda0 T __ZN8ImageLib5ImageD0Ev
006acde0 T __ZN8ImageLib5ImageC1Ev
006acde0 T __ZN8ImageLib5ImageC2Ev
006ace00 T __ZN8ImageLib5Image8GetWidthEv
006ace10 T __ZN8ImageLib5Image9GetHeightEv
006ace20 T __ZN8ImageLib5Image7GetBitsEv
006ace30 T __Z11GetPNGImageRKNSt7__cxx1112basic_stringIcSt11char_traitsIcESaIcEEE
006ad080 T __Z11GetTGAImageRKNSt7__cxx1112basic_stringIcSt11char_traitsIcESaIcEEE
006ad250 T __Z13ReadBlobBlockP5PFILEPc
006ad2a0 T __Z11GetGIFImageRKNSt7__cxx1112basic_stringIcSt11char_traitsIcESaIcEEE
006adea0 T __ZN8ImageLib14WriteJPEGImageERKNSt7__cxx1112basic_stringIcSt11char_traitsIcESaIcEEEPNS_5ImageE
006ae110 T __ZN8ImageLib13WritePNGImageERKNSt7__cxx1112basic_stringIcSt11char_traitsIcESaIcEEEPNS_5ImageE
006ae310 T __ZN8ImageLib13WriteTGAImageERKNSt7__cxx1112basic_stringIcSt11char_traitsIcESaIcEEEPNS_5ImageE
006ae540 T __ZN8ImageLib13WriteBMPImageERKNSt7__cxx1112basic_stringIcSt11char_traitsIcESaIcEEEPNS_5ImageE
006ae680 T __Z12jpeg_pak_srcP22jpeg_decompress_structP5PFILE
006ae720 T __Z12GetJPEGImageRKNSt7__cxx1112basic_stringIcSt11char_traitsIcESaIcEEE
006aea40 T __Z16GetJPEG2000ImageRKNSt7__cxx1112basic_stringIcSt11char_traitsIcESaIcEEE
006aef80 T __ZN8ImageLib12InitJPEG2000Ev
006aef90 T __ZN8ImageLib13CloseJPEG2000Ev
006aefa0 T __ZN8ImageLib8GetImageERKNSt7__cxx1112basic_stringIcSt11char_traitsIcESaIcEEEb
006b0040 T _adler32
006b0040 t .text
006b0240 T _compress2
006b0240 t .text
006b0300 T _compress
006b03c0 T _get_crc_table
006b03c0 t .text
006b03d0 T _crc32
006b0500 t _longest_match
006b0500 t .text
006b0780 t _fill_window
006b0970 t _flush_pending
006b09e0 t _deflate_slow
006b0e90 t _deflate_fast
006b1220 t _deflate_stored
006b1380 T _deflateSetDictionary
006b14d0 T _deflateReset
006b1620 T _deflate
006b1a10 T _deflateParams
006b1b20 T _deflateEnd
006b1c00 T _deflateInit2_
006b1e70 T _deflateInit_
006b1ec0 T _deflateCopy
006b2100 t _destroy
006b2100 t .text
006b21e0 t _get_byte
006b2280 t _check_header
006b23c0 t _gz_open
006b2730 t _getLong
006b2780 t _do_flush.part.0
006b2890 t _gzread.part.0
006b2ad0 T _gzopen
006b2af0 T _gzdopen
006b2b30 T _gzsetparams
006b2bd0 T _gzread
006b2c30 T _gzgetc
006b2c90 T _gzgets
006b2d50 T _gzwrite
006b2e10 T _gzprintf
006b2e70 T _gzputc
006b2eb0 T _gzputs
006b2ee0 T _gzflush
006b2f40 T _gzrewind
006b2ff0 T _gzseek
006b31c0 T _gztell
006b31f0 T _gzeof
006b3210 T _gzclose
006b32c0 T _gzerror
006b33c0 T _inflate_blocks_reset
006b33c0 t .text
006b3470 T _inflate_blocks_new
006b3550 T _inflate_blocks
006b4500 T _inflate_blocks_free
006b4560 T _inflate_set_dictionary
006b45a0 T _inflate_blocks_sync_point
006b45c0 T _inflate_codes_new
006b45c0 t .text
006b4610 T _inflate_codes
006b4f80 T _inflate_codes_free
006b4fc0 T _inflate_fast
006b4fc0 t .text
006b54c0 T _inflateReset
006b54c0 t .text
006b5520 T _inflateEnd
006b5580 T _inflateInit2_
006b5700 T _inflateInit_
006b5730 T _inflate
006b5b70 T _inflateSetDictionary
006b5c20 T _inflateSync
006b5d90 T _inflateSyncPoint
006b5dc0 t _huft_build
006b5dc0 t .text
006b64b0 T _inflate_trees_bits
006b6580 T _inflate_trees_dynamic
006b6730 T _inflate_trees_fixed
006b6780 T _inflate_flush
006b6780 t .text
006b6900 t _pqdownheap
006b6900 t .text
006b6a00 t _build_tree
006b6ff0 t _scan_tree
006b71f0 t _send_tree
006b7920 t _compress_block
006b7d30 t _bi_windup
006b7da0 t _bi_flush
006b7e30 T __tr_init
006b7f50 T __tr_stored_block
006b8060 T __tr_align
006b8200 T __tr_flush_block
006b87b0 T __tr_tally
006b8880 t .text
006b8880 T _uncompress
006b8930 t .text
006b8930 T _zlibVersion
006b8940 T _zError
006b8960 T _zcalloc
006b8980 T _zcfree
006b8990 T _png_get_header_version
006b8990 t .text
006b89a0 T _png_set_sig_bytes
006b89f0 T _png_sig_cmp
006b8a50 T _png_check_sig
006b8aa0 T _png_zalloc
006b8b30 T _png_zfree
006b8b40 T _png_reset_crc
006b8b70 T _png_calculate_crc
006b8bd0 T _png_create_info_struct
006b8c30 T _png_info_init
006b8c60 T _png_info_destroy
006b8d50 T _png_destroy_info_struct
006b8d90 T _png_get_io_ptr
006b8da0 T _png_init_io
006b8db0 T _png_convert_to_rfc1123
006b8ed0 T _png_get_copyright
006b8ee0 T _png_check_version
006b8ef0 t _png_format_buffer
006b8ef0 t .text
006b9020 T _png_error
006b9070 T _png_warning
006b90c0 T _png_chunk_error
006b90f0 T _png_chunk_warning
006b9150 T _png_set_error_fn
006b9170 T _png_get_error_ptr
006b9180 T _png_get_valid
006b9180 t .text
006b91b0 T _png_get_rowbytes
006b91d0 T _png_get_image_width
006b91f0 T _png_get_image_height
006b9210 T _png_get_bit_depth
006b9230 T _png_get_color_type
006b9250 T _png_get_filter_type
006b9270 T _png_get_interlace_type
006b9290 T _png_get_compression_type
006b92b0 T _png_get_x_pixels_per_meter
006b92f0 T _png_get_y_pixels_per_meter
006b9330 T _png_get_pixels_per_meter
006b9360 T _png_get_pixel_aspect_ratio
006b93b0 T _png_get_x_offset_microns
006b93f0 T _png_get_y_offset_microns
006b9430 T _png_get_x_offset_pixels
006b9470 T _png_get_y_offset_pixels
006b94b0 T _png_get_channels
006b94d0 T _png_get_signature
006b94f0 T _png_get_bKGD
006b9530 T _png_get_cHRM
006b9600 T _png_get_gAMA
006b9640 T _png_get_sRGB
006b9680 T _png_get_hIST
006b96c0 T _png_get_IHDR
006b97e0 T _png_get_oFFs
006b9850 T _png_get_pCAL
006b9930 T _png_get_pHYs
006b99a0 T _png_get_PLTE
006b99f0 T _png_get_sBIT
006b9a30 T _png_get_text
006b9a90 T _png_get_tIME
006b9ad0 T _png_get_tRNS
006b9b70 T _png_get_rgb_to_gray_status
006b9b80 T _png_create_struct
006b9b80 t .text
006b9bc0 T _png_destroy_struct
006b9be0 T _png_malloc
006b9c30 T _png_free
006b9c60 T _png_memcpy_check
006b9c80 T _png_memset_check
006b9ca0 T _png_push_fill_buffer
006b9ca0 t .text
006b9d60 T _png_push_read_sig
006b9e30 T _png_push_crc_skip
006b9e50 T _png_push_save_buffer
006b9f70 T _png_push_crc_finish
006ba080 T _png_push_restore_buffer
006ba0b0 T _png_read_push_finish_row
006ba1e0 T _png_push_process_row
006ba760 T _png_process_IDAT_data
006ba860 T _png_push_read_IDAT
006baa60 T _png_push_handle_tEXt
006baae0 T _png_push_read_tEXt
006bac30 T _png_push_handle_zTXt
006bacb0 T _png_push_read_zTXt
006bb030 T _png_push_handle_unknown
006bb090 T _png_push_read_chunk
006bb500 T _png_process_some_data
006bb590 T _png_process_data
006bb670 T _png_push_have_info
006bb690 T _png_push_have_end
006bb6b0 T _png_push_have_row
006bb6f0 T _png_progressive_combine_row
006bb730 T _png_set_progressive_read_fn
006bb770 T _png_get_progressive_ptr
006bb780 T _png_create_read_struct
006bb780 t .text
006bb970 T _png_read_init
006bbbb0 T _png_read_info
006bbfd0 T _png_read_update_info
006bc020 T _png_start_read_image
006bc040 T _png_read_row
006bc570 T _png_read_rows
006bc650 T _png_read_image
006bc6e0 T _png_read_end
006bca60 T _png_read_destroy
006bcde0 T _png_destroy_read_struct
006bcf20 T _png_set_read_status_fn
006bcf30 t _png_default_read_data
006bcf30 t .text
006bcf90 T _png_read_data
006bcfc0 T _png_set_read_fn
006bd040 T _png_set_crc_action
006bd040 t .text
006bd120 T _png_set_background
006bd1d0 T _png_set_strip_16
006bd1e0 T _png_set_strip_alpha
006bd1f0 T _png_set_dither
006bdc40 T _png_set_gamma
006bdc80 T _png_set_expand
006bdc90 T _png_set_palette_to_rgb
006bdca0 T _png_set_gray_1_2_4_to_8
006bdcb0 T _png_set_tRNS_to_alpha
006bdcc0 T _png_set_gray_to_rgb
006bdcd0 T _png_set_rgb_to_gray
006bde30 T _png_set_read_user_transform_fn
006bde50 T _png_read_transform_info
006be0f0 T _png_do_unpack
006be2a0 T _png_do_unshift
006be4d0 T _png_do_chop
006be530 T _png_do_read_swap_alpha
006be6b0 T _png_do_read_invert_alpha
006be780 T _png_do_read_filler
006bec20 T _png_do_gray_to_rgb
006bedf0 T _png_do_rgb_to_gray
006bf5a0 T _png_build_grayscale_palette
006bf620 T _png_do_background
006c0600 T _png_do_gamma
006c0ac0 T _png_do_expand_palette
006c0e40 T _png_do_expand
006c1430 T _png_do_dither
006c15e0 T _png_do_read_transformations
006c1cb0 T _png_build_gamma_table
006c2480 T _png_init_read_transformations
006c3080 T _png_get_uint_32
006c3080 t .text
006c3090 T _png_get_int_32
006c30a0 T _png_get_uint_16
006c30b0 T _png_crc_read
006c30f0 T _png_crc_error
006c3170 T _png_crc_finish
006c3280 T _png_handle_IHDR
006c35a0 T _png_handle_PLTE
006c37b0 T _png_handle_IEND
006c3830 T _png_handle_gAMA
006c39d0 T _png_handle_sBIT
006c3b60 T _png_handle_cHRM
006c4790 T _png_handle_sRGB
006c4a60 T _png_handle_tRNS
006c4cf0 T _png_handle_bKGD
006c4f20 T _png_handle_hIST
006c5090 T _png_handle_pHYs
006c51b0 T _png_handle_oFFs
006c52d0 T _png_handle_pCAL
006c5610 T _png_handle_tIME
006c5720 T _png_handle_tEXt
006c5840 T _png_handle_zTXt
006c5d70 T _png_check_chunk_name
006c5df0 T _png_handle_unknown
006c5e60 T _png_combine_row
006c6230 T _png_do_read_interlace
006c6910 T _png_read_filter_row
006c6b40 T _png_read_finish_row
006c6eb0 T _png_read_start_row
006c7200 T _png_set_bKGD
006c7200 t .text
006c7230 T _png_set_cHRM
006c72d0 T _png_set_gAMA
006c7300 T _png_set_hIST
006c7320 T _png_set_IHDR
006c7410 T _png_set_oFFs
006c7440 T _png_set_pCAL
006c75b0 T _png_set_pHYs
006c75e0 T _png_set_PLTE
006c7610 T _png_set_sBIT
006c7640 T _png_set_sRGB
006c7660 T _png_set_sRGB_gAMA_and_cHRM
006c76e0 T _png_set_text
006c7820 T _png_set_tIME
006c7860 T _png_set_tRNS
006c78c0 T _png_permit_empty_plte
006c7900 T _png_set_bgr
006c7900 t .text
006c7910 T _png_set_swap
006c7930 T _png_set_packing
006c7950 T _png_set_packswap
006c7970 T _png_set_shift
006c7990 T _png_set_interlace_handling
006c79c0 T _png_set_filler
006c7a20 T _png_set_swap_alpha
006c7a30 T _png_set_invert_alpha
006c7a40 T _png_set_invert_mono
006c7a50 T _png_do_invert
006c7a90 T _png_do_swap
006c7ae0 T _png_do_packswap
006c7b50 T _png_do_strip_filler
006c7df0 T _png_do_bgr
006c7f20 T _png_set_user_transform_info
006c7f40 T _png_get_user_transform_ptr
006c7f80 t _png_default_flush
006c7f80 t .text
006c7fa0 t _png_default_write_data
006c8000 T _png_write_data
006c8030 T _png_flush
006c8050 T _png_set_write_fn
006c80e0 T _png_write_info
006c80e0 t .text
006c84e0 T _png_write_end
006c85f0 T _png_convert_from_struct_tm
006c8630 T _png_convert_from_time_t
006c8690 T _png_write_row
006c88b0 T _png_write_rows
006c88f0 T _png_write_image
006c8960 T _png_set_flush
006c8980 T _png_write_flush
006c8a80 T _png_write_destroy
006c8cb0 T _png_destroy_write_struct
006c8dc0 T _png_set_filter
006c9090 T _png_set_filter_heuristics
006c9400 T _png_create_write_struct
006c9550 T _png_write_init
006c9720 T _png_set_compression_level
006c9740 T _png_set_compression_mem_level
006c9760 T _png_set_compression_strategy
006c9780 T _png_set_compression_window_bits
006c9810 T _png_set_compression_method
006c9850 T _png_set_write_status_fn
006c9860 T _png_set_write_user_transform_fn
006c9880 T _png_do_pack
006c9880 t .text
006c9a50 T _png_do_shift
006c9d70 T _png_do_write_swap_alpha
006c9ef0 T _png_do_write_invert_alpha
006ca030 T _png_do_write_transformations
006ca240 T _png_save_uint_32
006ca240 t .text
006ca250 T _png_save_int_32
006ca260 T _png_save_uint_16
006ca270 T _png_write_chunk_start
006ca2e0 T _png_write_chunk
006ca370 t _png_write_finish_row.part.0
006ca5b0 T _png_write_chunk_data
006ca610 T _png_write_chunk_end
006ca640 T _png_write_sig
006ca670 T _png_write_IHDR
006caa90 T _png_write_PLTE
006caba0 T _png_write_IDAT
006cabe0 T _png_write_IEND
006cac70 T _png_write_gAMA
006cace0 T _png_write_sRGB
006cad40 T _png_write_sBIT
006cae40 T _png_write_cHRM
006cb220 T _png_write_tRNS
006cb320 T _png_write_bKGD
006cb3f0 T _png_write_hIST
006cb4d0 T _png_check_keyword
006cb730 T _png_write_tEXt
006cb880 T _png_write_zTXt
006cbe50 T _png_write_oFFs
006cbec0 T _png_write_pCAL
006cc170 T _png_write_pHYs
006cc1e0 T _png_write_tIME
006cc2a0 T _png_write_start_row
006cc470 T _png_write_finish_row
006cc4a0 T _png_do_write_interlace
006cc810 T _png_write_filtered_row
006cc950 T _png_write_find_filter
006cdc00 T _jpeg_CreateCompress
006cdc00 t .text
006cdd20 T _jpeg_destroy_compress
006cdd30 T _jpeg_abort_compress
006cdd40 T _jpeg_suppress_tables
006cdd90 T _jpeg_finish_compress
006cdea0 T _jpeg_write_marker
006cdf30 T _jpeg_write_m_header
006cdf90 T _jpeg_write_m_byte
006cdfb0 T _jpeg_write_tables
006ce010 T _jpeg_start_compress
006ce010 t .text
006ce0b0 T _jpeg_write_scanlines
006ce170 T _jpeg_write_raw_data
006ce240 t _compress_data
006ce240 t .text
006ce580 t _start_pass_coef
006ce6a0 t _compress_output
006ce940 t _compress_first_pass
006cecb0 T _jinit_c_coef_controller
006cee00 t _rgb_ycc_start
006cee00 t .text
006ceeb0 t _rgb_ycc_convert
006cefe0 t _rgb_gray_convert
006cf0d0 t _cmyk_ycck_convert
006cf240 t _grayscale_convert
006cf2d0 t _null_convert
006cf3c0 t _null_method
006cf3d0 T _jinit_color_converter
006cf600 t _start_pass_fdctmgr
006cf600 t .text
006cf860 t _forward_DCT
006cf9e0 t _forward_DCT_float
006cfba0 T _jinit_forward_dct
006cfc80 t _encode_mcu_gather
006cfc80 t .text
006cfe80 t _emit_bits
006cff80 t _finish_pass_huff
006d0050 t _encode_mcu_huff
006d0480 T _jpeg_make_c_derived_tbl
006d0780 t _start_pass_huff
006d0990 T _jpeg_gen_optimal_table
006d0c60 t _finish_pass_gather
006d0d50 T _jinit_huff_encoder
006d0dc0 T _jinit_compress_master
006d0dc0 t .text
006d0eb0 t _process_data_simple_main
006d0eb0 t .text
006d0f90 t _start_pass_main
006d0fe0 T _jinit_c_main_controller
006d10a0 t _emit_byte
006d10a0 t .text
006d10e0 t _write_file_trailer
006d1110 t _write_marker_header
006d1170 t _emit_sof
006d1280 t _emit_dqt
006d13a0 t _write_frame_header
006d1500 t _emit_dht
006d1630 t _write_tables_only
006d16d0 t _write_scan_header
006d18c0 t _write_file_header
006d1ad0 t _write_marker_byte
006d1b30 T _jinit_marker_writer
006d1ba0 t .text
006d1ba0 t _validate_script
006d20f0 t _select_scan_parameters
006d21f0 t _pass_startup
006d2230 t _finish_pass_master
006d22c0 t _per_scan_setup
006d24d0 t _prepare_for_pass
006d26c0 T _jinit_c_master_control
006d2a40 T _jpeg_abort
006d2a40 t .text
006d2a90 T _jpeg_destroy
006d2ac0 T _jpeg_alloc_quant_table
006d2af0 T _jpeg_alloc_huff_table
006d2b40 t _add_huff_table
006d2b40 t .text
006d2c00 T _jpeg_add_quant_table
006d2d00 T _jpeg_set_linear_quality
006d2d60 T _jpeg_quality_scaling
006d2da0 T _jpeg_set_quality
006d2e40 T _jpeg_set_colorspace
006d32b0 T _jpeg_default_colorspace
006d3360 T _jpeg_set_defaults
006d3560 T _jpeg_simple_progression
006d3b40 t _dump_buffer
006d3b40 t .text
006d3b80 t _emit_bits
006d3c60 t _start_pass_phuff
006d3ea0 t _emit_symbol
006d3ed0 t _emit_eobrun
006d3f90 t _emit_restart
006d4060 t _encode_mcu_DC_first
006d41e0 t _encode_mcu_DC_refine
006d42b0 t _finish_pass_phuff
006d4310 t _finish_pass_gather_phuff
006d4440 t _encode_mcu_AC_refine
006d4720 t _encode_mcu_AC_first
006d4980 T _jinit_phuff_encoder
006d4a00 t _start_pass_prep
006d4a00 t .text
006d4a60 t _pre_process_context
006d4cd0 t _pre_process_data
006d4f80 T _jinit_c_prep_controller
006d51c0 t _start_pass_downsample
006d51c0 t .text
006d51d0 t _sep_downsample
006d5250 t _h2v2_smooth_downsample
006d5570 t _fullsize_downsample
006d5600 t _h2v1_downsample
006d56e0 t _h2v2_downsample
006d57d0 t _int_downsample
006d59b0 t _fullsize_smooth_downsample
006d5bb0 T _jinit_downsampler
006d5d80 t _compress_output
006d5d80 t .text
006d6100 t _start_pass_coef
006d6190 T _jpeg_write_coefficients
006d62f0 T _jpeg_copy_critical_parameters
006d65a0 T _jpeg_CreateDecompress
006d65a0 t .text
006d66f0 T _jpeg_destroy_decompress
006d6700 T _jpeg_abort_decompress
006d6710 T _jpeg_consume_input
006d6960 T _jpeg_read_header
006d69f0 T _jpeg_input_complete
006d6a30 T _jpeg_has_multiple_scans
006d6a70 T _jpeg_finish_decompress
006d6b50 t _output_pass_setup
006d6b50 t .text
006d6c30 T _jpeg_start_decompress
006d6d40 T _jpeg_read_scanlines
006d6de0 T _jpeg_read_raw_data
006d6ea0 T _jpeg_start_output
006d6f10 T _jpeg_finish_output
006d6fb0 t _init_destination
006d6fb0 t .text
006d6ff0 t _empty_output_buffer
006d7050 t _term_destination
006d7100 T _jpeg_stdio_dest
006d7160 t _init_source
006d7160 t .text
006d7170 t _term_source
006d7180 t _fill_input_buffer
006d7210 t _skip_input_data
006d7260 T _jpeg_stdio_src
006d7300 t _dummy_consume_data
006d7300 t .text
006d7310 t _decompress_data
006d7510 t _start_output_pass
006d7670 t _decompress_onepass
006d79a0 t _decompress_smooth_data
006d80e0 t _start_input_pass
006d8140 t _consume_data
006d8410 T _jinit_d_coef_controller
006d8580 t _build_ycc_rgb_table
006d8580 t .text
006d86a0 t _ycc_rgb_convert
006d87f0 t _null_convert
006d88e0 t _gray_rgb_convert
006d8970 t _ycck_cmyk_convert
006d8ae0 t _start_pass_dcolor
006d8af0 t _grayscale_convert
006d8b30 T _jinit_color_deconverter
006d8e40 t _start_pass
006d8e40 t .text
006d9060 T _jinit_inverse_dct
006d9140 T _jpeg_make_d_derived_tbl
006d9140 t .text
006d9570 t _start_pass_huff_decoder
006d96d0 T _jpeg_fill_bit_buffer
006d9830 T _jpeg_huff_decode
006d9960 t _decode_mcu
006da0e0 T _jinit_huff_decoder
006da180 t _finish_input_pass
006da180 t .text
006da1a0 t _reset_input_controller
006da1e0 t _start_input_pass
006da4c0 t _consume_markers
006da7e0 T _jinit_input_controller
006da840 t _process_data_simple_main
006da840 t .text
006da8e0 t _process_data_context_main
006dac20 t _process_data_crank_post
006dac70 t _start_pass_main
006dae30 T _jinit_d_main_controller
006db000 t _get_sof
006db000 t .text
006db3d0 t _examine_app0
006db660 t _examine_app14
006db720 t _get_interesting_appn
006db8f0 t _save_marker
006dbbe0 t _skip_variable
006dbcb0 t _next_marker
006dbde0 t _read_restart_marker
006dbe90 t _reset_marker_reader
006dbed0 t _get_dht
006dc280 t _read_markers
006dcd90 T _jpeg_resync_to_restart
006dced0 T _jinit_marker_reader
006dcfc0 T _jpeg_save_markers
006dd090 T _jpeg_set_marker_processor
006dd100 t _prepare_for_output_pass
006dd100 t .text
006dd280 t _finish_output_pass
006dd2b0 t _use_merged_upsample
006dd330 T _jpeg_calc_output_dimensions
006dd600 T _jpeg_new_colormap
006dd680 T _jinit_master_decompress
006dda20 t _start_pass_merged_upsample
006dda20 t .text
006dda40 t _merged_1v_upsample
006dda90 t _h2v1_merged_upsample
006ddc50 t _h2v2_merged_upsample
006ddec0 t _merged_2v_upsample
006ddfc0 T _jinit_merged_upsampler
006de140 t _process_restart
006de140 t .text
006de1d0 t _start_pass_phuff_decoder
006de530 t _decode_mcu_DC_refine
006de670 t _decode_mcu_AC_refine
006deb30 t _decode_mcu_AC_first
006dedf0 t _decode_mcu_DC_first
006df0a0 T _jinit_phuff_decoder
006df180 t _start_pass_dpost
006df180 t .text
006df2a0 t _post_process_1pass
006df340 t _post_process_prepass
006df430 t _post_process_2pass
006df500 T _jinit_d_post_controller
006df600 t _start_pass_upsample
006df600 t .text
006df620 t _sep_upsample
006df750 t _fullsize_upsample
006df760 t _noop_upsample
006df770 t _h2v1_upsample
006df7f0 t _h2v1_fancy_upsample
006df8f0 t _h2v2_fancy_upsample
006dfa80 t _int_upsample
006dfbc0 t _h2v2_upsample
006dfc90 T _jinit_upsampler
006dff00 T _jpeg_read_coefficients
006dff00 t .text
006e00a0 t _emit_message
006e00a0 t .text
006e00f0 t _reset_error_mgr
006e0110 t _format_message
006e0210 t _output_message
006e0260 t _error_exit
006e0290 T _jpeg_std_error
006e0300 T _jpeg_fdct_float
006e0300 t .text
006e04e0 T _jpeg_fdct_ifast
006e04e0 t .text
006e06e0 T _jpeg_fdct_islow
006e06e0 t .text
006e0990 T _jpeg_idct_float
006e0990 t .text
006e0d80 T _jpeg_idct_ifast
006e0d80 t .text
006e1180 T _jpeg_idct_islow
006e1180 t .text
006e1660 T _jpeg_idct_4x4
006e1660 t .text
006e1970 T _jpeg_idct_2x2
006e1b30 T _jpeg_idct_1x1
006e1b70 t _do_sarray_io
006e1b70 t .text
006e1c40 t _do_barray_io
006e1d10 t _alloc_small
006e1e80 t _request_virt_barray
006e1f00 t _request_virt_sarray
006e1f80 t _free_pool
006e20b0 t _self_destruct
006e2110 t _access_virt_barray
006e2300 t _access_virt_sarray
006e24f0 t _alloc_large
006e25c0 t _alloc_barray
006e26a0 t _alloc_sarray
006e2770 t _realize_virt_arrays
006e29b0 T _jinit_memory_mgr
006e2b00 T _jpeg_get_small
006e2b00 t .text
006e2b10 T _jpeg_free_small
006e2b20 T _jpeg_get_large
006e2b30 T _jpeg_free_large
006e2b40 T _jpeg_mem_available
006e2b50 T _jpeg_open_backing_store
006e2b70 T _jpeg_mem_init
006e2b80 T _jpeg_mem_term
006e2bc0 t _create_colorindex
006e2bc0 t .text
006e2d80 t _color_quantize
006e2e70 t _color_quantize3
006e2f70 t _quantize3_ord_dither
006e30d0 t _alloc_fs_workspace
006e3130 t _finish_pass_1_quant
006e3140 t _new_color_map_1_quant
006e3160 t _start_pass_1_quant
006e33a0 t _quantize_fs_dither
006e35b0 t _quantize_ord_dither
006e36f0 T _jinit_1pass_quantizer
006e3ac0 t _prescan_quantize
006e3ac0 t .text
006e3bb0 t _fill_inverse_cmap
006e4000 t _pass2_no_dither
006e40e0 t _pass2_fs_dither
006e4440 t _init_error_limit
006e4530 t _finish_pass2
006e4540 t _new_color_map_2_quant
006e4550 t _start_pass_2_quant
006e46b0 t _update_box.isra.0
006e4b40 t _finish_pass1
006e4f60 T _jinit_2pass_quantizer
006e5100 T _jdiv_round_up
006e5100 t .text
006e5110 T _jround_up
006e5130 T _jcopy_sample_rows
006e5190 T _jcopy_block_row
006e51b0 T _jzero_far
006e51e0 t _jas_cmshapmat_invmat
006e51e0 t .text
006e5320 t _jas_cmshapmatlut_invert
006e5570 t _jas_cmpxform_createshapmat
006e5610 t _jas_cmpxformseq_insertpxform
006e5700 t _jas_cmshapmatlut_lookup.isra.0
006e57c0 t _jas_cmshapmat_apply
006e5a60 t _jas_cmshapmat_destroy
006e5aa0 t _jas_cmshapmatlut_set
006e5c00 t _jas_cmpxformseq_destroy
006e5c80 t _jas_cmpxformseq_create
006e5ce0 t _triclr
006e6030 t _jas_cmpxformseq_append
006e60d0 t _mono
006e6260 T _jas_cmprof_createfromiccprof
006e6400 T _jas_cmprof_createfromclrspc
006e6660 T _jas_cmprof_destroy
006e66b0 T _jas_cmprof_copy
006e6770 T _jas_cmxform_create
006e6cd0 T _jas_cmxform_apply
006e7140 T _jas_cmxform_destroy
006e7170 T _jas_clrspc_numchans
006e71c0 T _jas_iccprof_createfromcmprof
006e71e0 T _jas_setdbglevel
006e71e0 t .text
006e71f0 T _jas_getdbglevel
006e7200 T _jas_eprintf
006e7230 T _jas_memdump
006e72d0 T _jas_getopt
006e72d0 t .text
006e74e0 t _jas_icctagtabent_cmp
006e74e0 t .text
006e7500 t _jas_iccxyz_getsize
006e7510 t _jas_icccurv_getsize
006e7520 t _jas_icclut8_getsize
006e7580 t _jas_icclut16_getsize
006e75f0 t _jas_icctxt_dump
006e7620 t _jas_icctxtdesc_dump
006e76a0 t _jas_iccxyz_dump
006e76f0 t _jas_icclut16_dump
006e77b0 t _jas_icclut8_dump
006e7870 t _jas_iccgetuint8
006e78e0 t _jas_icclut16_destroy
006e7950 t _jas_icclut8_destroy
006e79c0 t _jas_icctxt_destroy
006e79e0 t _jas_icctxtdesc_destroy
006e7a20 t _jas_icccurv_destroy
006e7a40 t _jas_icctxt_getsize
006e7a60 t _jas_icctxtdesc_getsize
006e7a80 t _jas_icctxt_output
006e7b10 t _jas_icctxt_input
006e7b90 t _jas_icctxt_copy
006e7bc0 t _jas_iccattrtab_add
006e7c80 t _jas_icccurv_dump
006e7d40 t _jas_iccattrtab_destroy
006e7df0 t _jas_iccattrtab_create
006e7e50 t _jas_iccgetuint16
006e7f00 t _jas_iccgetuint32
006e7fb0 t _jas_icccurv_input
006e8120 t _jas_iccgetsint32
006e8200 t _jas_icclut16_input
006e85e0 t _jas_iccxyz_input
006e8640 t _jas_icctxtdesc_input
006e8820 t _jas_iccprof_create
006e88a0 t _jas_icccurv_output
006e8a60 t _jas_icclut8_input
006e8eb0 t _jas_iccxyz_output
006e90c0 t _jas_icctxtdesc_output
006e94a0 t _jas_icclut16_output
006e9b70 t _jas_icclut8_output
006ea170 T _jas_iccprof_copy
006ea220 T _jas_iccprof_destroy
006ea250 T _jas_iccprof_save
006eb6c0 T _jas_iccprof_getattr
006eb700 T _jas_iccprof_setattr
006eb830 T _jas_iccprof_gethdr
006eb850 T _jas_iccprof_sethdr
006eb870 T _jas_iccattrval_create
006eb900 T _jas_iccprof_load
006ebeb0 T _jas_iccattrval_clone
006ebec0 T _jas_iccattrval_destroy
006ebf10 T _jas_iccattrval_dump
006ebff0 T _jas_iccattrtab_dump
006ec1b0 T _jas_iccprof_dump
006ec1c0 T _jas_iccattrval_allowmodify
006ec290 T _jas_iccprof_createfrombuf
006ec2d0 T _jas_iccprof_createfromclrspc
006ec360 t .text
006ec380 t _jas_image_setbbox
006ec380 t .text
006ec460 t _jas_image_growcmpts
006ec4d0 t _jas_image_cmpt_copy
006ec5f0 t _getint
006ec6c0 t _putint
006ec770 t _jas_image_delcmpt.part.0
006ec7f0 t _jas_image_cmpt_create
006ec980 T _jas_image_create0
006ec9e0 T _jas_image_destroy
006eca60 T _jas_image_create
006ecc20 T _jas_image_copy
006ecd30 T _jas_image_encode
006ecda0 T _jas_image_readcmpt
006ecfa0 T _jas_image_writecmpt
006ed190 T _jas_image_clearfmts
006ed220 T _jas_image_addfmt
006ed2f0 T _jas_image_strtofmt
006ed350 T _jas_image_fmttostr
006ed390 T _jas_image_getfmt
006ed3f0 T _jas_image_decode
006ed4a0 T _jas_image_fmtfromname
006ed510 T _jas_image_rawsize
006ed580 T _jas_image_delcmpt
006ed5a0 T _jas_image_addcmpt
006ed680 T _jas_image_lookupfmtbyid
006ed6c0 T _jas_image_lookupfmtbyname
006ed720 T _jas_image_copycmpt
006ed7c0 T _jas_image_readcmptsample
006ed8c0 T _jas_image_writecmptsample
006ed9b0 T _jas_image_depalettize
006edb10 T _jas_image_getcmptbytype
006edb50 T _jas_image_readcmpt2
006edc70 T _jas_image_dump
006edeb0 T _jas_image_writecmpt2
006edfd0 T _jas_image_sampcmpt
006ee440 T _jas_image_ishomosamp
006ee490 T _jas_image_chclrspc
006eeb80 T _jas_cleanup
006eeb80 t .text
006eeb90 T _jas_init
006eec30 T _jas_malloc
006eec30 t .text
006eec40 T _jas_free
006eec50 T _jas_realloc
006eec60 T _jas_calloc
006eec80 T _jas_matrix_create
006eec80 t .text
006eede0 T _jas_seq2d_create
006eee30 T _jas_matrix_destroy
006eee80 T _jas_seq2d_copy
006eef20 T _jas_matrix_copy
006eef90 T _jas_matrix_bindsub
006ef090 T _jas_seq2d_bindsub
006ef0e0 T _jas_matrix_cmp
006ef160 T _jas_matrix_divpow2
006ef1f0 T _jas_matrix_clip
006ef270 T _jas_matrix_asr
006ef2d0 T _jas_matrix_asl
006ef330 T _jas_matrix_resize
006ef3a0 T _jas_matrix_output
006ef480 T _jas_matrix_setall
006ef4e0 t _jas_strtoopenmode
006ef4e0 t .text
006ef570 t _jas_stream_create
006ef5e0 t _mem_close
006ef620 t _mem_seek
006ef680 t _mem_read
006ef6c0 t _mem_write
006ef7a0 t _file_close
006ef7f0 t _file_seek
006ef800 t _file_write
006ef810 t _file_read
006ef820 t _sfile_close
006ef830 t _sfile_seek
006ef840 t _sfile_write
006ef870 t _sfile_read
006ef8a0 T _jas_stream_fopen
006ef9c0 T _jas_stream_freopen
006efa40 T _jas_stream_tmpfile
006efb50 T _jas_stream_fdopen
006efc50 T _jas_stream_ungetc
006efc90 T _jas_stream_isseekable
006efcf0 T _jas_stream_tell
006efd50 T _jas_stream_fillbuf
006efde0 T _jas_stream_getc_func
006efe40 T _jas_stream_read
006efed0 T _jas_stream_gets
006eff70 T _jas_stream_gobble
006f0000 T _jas_stream_flushbuf
006f00c0 T _jas_stream_putc_func
006f0130 T _jas_stream_write
006f01c0 T _jas_stream_puts
006f0250 T _jas_stream_printf
006f02a0 T _jas_stream_pad
006f0340 T _jas_stream_flush
006f0370 T _jas_stream_close
006f03d0 T _jas_stream_memopen
006f0510 T _jas_stream_seek
006f05b0 T _jas_stream_rewind
006f0630 T _jas_stream_copy
006f0760 T _jas_stream_setrwcount
006f0780 T _jas_stream_display
006f09e0 T _jas_stream_length
006f0a50 T _jas_strdup
006f0a50 t .text
006f0a90 T _jas_tvparser_create
006f0a90 t .text
006f0af0 T _jas_tvparser_destroy
006f0b20 T _jas_tvparser_next
006f0cc0 T _jas_tvparser_gettag
006f0cd0 T _jas_tvparser_getval
006f0ce0 T _jas_taginfos_lookup
006f0d30 T _jas_taginfo_nonull
006f0d40 T _jas_getversion
006f0d40 t .text
006f0d60 t _jp2_cmap_putdata
006f0d60 t .text
006f0d70 t _jp2_cdef_dumpdata
006f0de0 t _jp2_cmap_dumpdata
006f0e50 t _jp2_pclr_dumpdata
006f0ef0 t _jp2_putuint16
006f1000 t _jp2_cdef_putdata
006f1090 t _jp2_putuint8
006f1100 t _jp2_putuint32
006f12f0 t _jp2_ihdr_putdata
006f1380 t _jp2_ftyp_putdata
006f13f0 t _jp2_jp_putdata
006f1410 t _jp2_getuint16
006f1500 t _jp2_cdef_getdata
006f15a0 t _jp2_getuint8
006f1620 t _jp2_pclr_getdata
006f1840 t _jp2_getuint32
006f19f0 t _jp2_ihdr_getdata
006f1a80 t _jp2_ftyp_getdata
006f1b00 t _jp2_jp_getdata
006f1b20 t _jp2_cdef_destroy
006f1b50 t _jp2_cmap_destroy
006f1b70 t _jp2_pclr_destroy
006f1bb0 t _jp2_colr_destroy
006f1bd0 t _jp2_bpcc_destroy
006f1c00 t _jp2_colr_dumpdata
006f1c90 t _jp2_colr_putdata
006f1d30 t _jp2_colr_getdata
006f1df0 t _jp2_pclr_putdata
006f1e00 t _jp2_bpcc_putdata
006f1ea0 t _jp2_bpcc_getdata
006f1f60 t _jp2_cmap_getdata
006f2090 T _jp2_box_create
006f2120 T _jp2_box_destroy
006f2150 T _jp2_box_get
006f22e0 T _jp2_box_dump
006f23b0 T _jp2_box_put
006f24a0 T _jp2_boxinfolookup
006f24e0 T _jp2_cdef_lookup
006f2520 t _jp2_dec_destroy
006f2520 t .text
006f25b0 t _jp2_getct
006f2630 T _jp2_decode
006f2fc0 T _jp2_validate
006f3080 T _jp2_encode
006f3080 t .text
006f3740 T _jpc_bitstream_sopen
006f3740 t .text
006f37a0 T _jpc_bitstream_putbit_func
006f3880 T _jpc_bitstream_putbits
006f39a0 T _jpc_bitstream_fillbuf
006f3ac0 T _jpc_bitstream_getbit_func
006f3af0 T _jpc_bitstream_getbits
006f3b60 T _jpc_bitstream_needalign
006f3bb0 T _jpc_bitstream_pending
006f3bd0 T _jpc_bitstream_inalign
006f3d60 T _jpc_bitstream_outalign
006f3e50 T _jpc_bitstream_align
006f3ea0 T _jpc_bitstream_close
006f3f40 t _jpc_cod_destroyparms
006f3f40 t .text
006f3f50 t _jpc_unk_putparms
006f3f60 t _jpc_unk_destroyparms
006f3f80 t _jpc_com_destroyparms
006f3fa0 t _jpc_ppt_destroyparms
006f3fc0 t _jpc_ppm_destroyparms
006f3fe0 t _jpc_poc_destroyparms
006f4000 t _jpc_qcc_destroyparms
006f4020 t _jpc_qcd_destroyparms
006f4040 t _jpc_siz_destroyparms
006f4060 t _jpc_unk_dumpparms
006f40b0 t _jpc_crg_dumpparms
006f4110 t _jpc_sop_dumpparms
006f4140 t _jpc_poc_dumpparms
006f4200 t _jpc_qcc_dumpparms
006f42a0 t _jpc_qcd_dumpparms
006f4330 t _jpc_rgn_dumpparms
006f4370 t _jpc_coc_dumpparms
006f43e0 t _jpc_cod_dumpparms
006f44e0 t _jpc_siz_dumpparms
006f45d0 t _jpc_sot_dumpparms
006f4610 t _jpc_ppm_putparms
006f4650 t _jpc_unk_getparms
006f46d0 t _jpc_com_dumpparms
006f47a0 t _jpc_ppt_dumpparms
006f4830 t _jpc_ppm_dumpparms
006f48c0 t _jpc_coc_destroyparms
006f48d0 t _jpc_ppt_putparms
006f4970 T _jpc_cstate_create
006f4990 T _jpc_cstate_destroy
006f49a0 T _jpc_ms_create
006f4a30 T _jpc_ms_destroy
006f4a60 T _jpc_ms_dump
006f4b40 T _jpc_getuint8
006f4bc0 t _jpc_ppt_getparms
006f4c60 t _jpc_ppm_getparms
006f4d00 t _jpc_cox_getcompparms.isra.0
006f4e20 T _jpc_putuint8
006f4ea0 t _jpc_cox_putcompparms.isra.0
006f4fc0 T _jpc_getuint16
006f50b0 T _jpc_getms
006f5340 t _jpc_com_getparms
006f53d0 t _jpc_crg_getparms
006f5470 t _jpc_sop_getparms
006f54a0 t _jpc_poc_getparms
006f5690 t _jpc_rgn_getparms
006f5720 t _jpc_coc_getparms
006f57c0 t _jpc_cod_getparms
006f5850 t _jpc_qcx_getcompparms.isra.0
006f5970 t _jpc_qcc_getparms
006f5a00 t _jpc_qcd_getparms
006f5a20 T _jpc_putuint16
006f5b30 t _jpc_com_putparms
006f5b90 t _jpc_crg_putparms
006f5c00 t _jpc_sop_putparms
006f5c30 t _jpc_poc_putparms
006f5d60 t _jpc_rgn_putparms
006f5de0 t _jpc_coc_putparms
006f5e60 t _jpc_cod_putparms
006f5ef0 T _jpc_putms
006f6030 t _jpc_qcx_putcompparms.isra.0
006f60f0 t _jpc_qcc_putparms
006f6150 t _jpc_qcd_putparms
006f6170 T _jpc_getuint32
006f6320 t _jpc_siz_getparms
006f6510 t _jpc_sot_getparms
006f6590 T _jpc_putuint32
006f6770 t _jpc_siz_putparms
006f6900 t _jpc_sot_putparms
006f6970 T _jpc_validate
006f69f0 T _jpc_getdata
006f6a10 T _jpc_putdata
006f6a40 t _jpc_dec_process_soc
006f6a40 t .text
006f6a50 t _jpc_dec_process_com
006f6a60 t _jpc_dec_process_rgn
006f6b00 t _jpc_dec_process_unk
006f6b60 t _jpc_dec_cp_create
006f6c60 t _jpc_dec_process_siz
006f7000 t _jpc_dec_tiledecode
006f76a0 t _jpc_dec_tileinit
006f7ff0 t _jpc_dec_cp_setfrompoc.constprop.0
006f8090 t _jpc_dec_process_poc
006f8150 t _jpc_dec_cp_setfromcoc.isra.0
006f8210 t _jpc_dec_process_coc
006f82a0 t _jpc_dec_process_crg
006f82b0 t _jpc_dec_cp_setfromqcd.isra.0
006f8350 t _jpc_dec_process_qcd
006f83a0 t _jpc_dec_cp_setfromcod.isra.0
006f84d0 t _jpc_dec_process_cod
006f8520 t _jpc_dec_process_qcc
006f8630 t _jpc_dec_destroy
006f86f0 T _jpc_decode
006f8a60 T _jpc_seglist_insert
006f8aa0 T _jpc_seglist_remove
006f8af0 T _jpc_seg_alloc
006f8b50 T _jpc_seg_destroy
006f8b80 T _jpc_streamlist_create
006f8bf0 T _jpc_streamlist_insert
006f8ca0 T _jpc_streamlist_remove
006f8d00 T _jpc_streamlist_destroy
006f8d50 T _jpc_streamlist_get
006f8d60 T _jpc_streamlist_numstreams
006f8d70 T _jpc_ppxstab_create
006f8da0 T _jpc_ppxstab_destroy
006f8e10 t _jpc_dec_tilefini.isra.0
006f9140 t _jpc_dec_process_sod
006f9870 t _jpc_dec_process_eoc
006f98d0 T _jpc_ppxstab_grow
006f9940 T _jpc_ppxstab_insert
006f9a50 t _jpc_dec_process_ppt
006f9b10 t _jpc_dec_process_ppm
006f9bd0 T _jpc_ppmstabtostreams
006f9d50 t _jpc_dec_process_sot
006fa080 T _jpc_pptstabwrite
006fa0f0 T _jpc_ppxstabent_create
006fa120 T _jpc_ppxstabent_destroy
006fa180 t _jpc_abstorelstepsize
006fa180 t .text
006fa1f0 t _jpc_enc_encodemainhdr
006fa8f0 t _cblk_destroy
006fa970 t _prc_destroy
006fa9f0 t _band_destroy
006faa50 t _quantize.part.0
006fab10 t _tcmpt_destroy
006fabb0 t _tcmpt_create
006fb7c0 T _jpc_enc_cp_destroy
006fb800 T _ratestrtosize
006fb8b0 T _jpc_enc_encodetiledata
006fb8d0 T _dump_passes
006fb9b0 T _quantize
006fb9d0 T _calcrdslopes
006fbb40 T _dump_layeringinfo
006fbd40 T _rateallocate
006fc7e0 T _jpc_enc_tile_destroy
006fc850 T _jpc_enc_destroy
006fc8e0 T _jpc_enc_create
006fc970 T _jpc_enc_tile_create
006fcc10 T _jpc_enc_dump
006fcee0 T _jpc_encode
006feb00 T _jpc_floorlog2
006feb00 t .text
006feb20 T _jpc_firstone
006feb40 T _jpc_rct
006feb40 t .text
006fec10 T _jpc_irct
006fecd0 T _jpc_ict
006fee20 T _jpc_iict
006fef30 T _jpc_mct_getsynweight
006fefc0 T _jpc_mqdec_destroy
006fefc0 t .text
006fefc0 t .text
006feff0 T _jpc_mqdec_init
006ff1a0 T _jpc_mqdec_create
006ff260 T _jpc_mqdec_setinput
006ff270 T _jpc_mqdec_setctxs
006ff320 T _jpc_mqdec_setctx
006ff350 T _jpc_mqdec_mpsexchrenormd
006ff4a0 T _jpc_mqdec_lpsexchrenormd
006ff600 T _jpc_mqdec_getbit_func
006ff660 T _jpc_mqdec_dump
006ff700 T _jpc_mqenc_create
006ff700 t .text
006ff7b0 T _jpc_mqenc_destroy
006ff7e0 T _jpc_mqenc_init
006ff810 T _jpc_mqenc_setctxs
006ff8c0 T _jpc_mqenc_getstate
006ff8f0 T _jpc_mqenc_codemps2
006ffc40 T _jpc_mqenc_putbit_func
006fffb0 T _jpc_mqenc_codelps
00700300 T _jpc_mqenc_flush
00700c20 T _jpc_mqenc_dump
00700cc0 t _jpc_ft_getnumchans
00700cc0 t .text
00700cd0 t _jpc_qmfb1d_join
00701130 t _jpc_ft_synthesize
007017d0 t _jpc_ns_synthesize
00701e50 t _jpc_qmfb1d_split
00702210 t _jpc_ft_analyze
00702880 t _jpc_ns_analyze
00702e70 t _jpc_ft_getsynfilters
00703020 t _jpc_ns_getsynfilters
00703250 t _jpc_ns_getnumchans
00703260 T _jpc_qmfb1d_make
007032c0 T _jpc_qmfb1d_copy
007032f0 T _jpc_qmfb1d_destroy
00703300 T _jpc_qmfb1d_getbands
00703360 T _jpc_qmfb1d_getnumchans
00703370 T _jpc_qmfb1d_getanalfilters
00703380 T _jpc_qmfb1d_getsynfilters
00703390 T _jpc_qmfb1d_analyze
007033a0 T _jpc_qmfb1d_synthesize
007033c0 T _JPC_PASSTYPE
007033c0 t .text
007033f0 T _JPC_NOMINALGAIN
00703450 T _JPC_SEGTYPE
007034a0 T _JPC_SEGPASSCNT
00703530 T _JPC_ISTERMINATED
007035e0 T _jpc_getsignmsedec_func
00703630 T _jpc_getzcctxno
00703760 T _jpc_getspb
00703840 T _jpc_getscctxno
00703930 T _jpc_getmagctxno
00703950 T _jpc_initctxs
007039d0 T _jpc_initluts
00703ce0 T _jpc_initmqctxs
00703d00 T _jpc_pow2i
00703d60 T _jpc_dec_decodecblks
00703d60 t .text
00706940 t _jpc_encclnpass.isra.0
00706940 t .text
007077a0 T _getthebyte
00707820 T _jpc_enc_enccblk
0070a270 T _jpc_enc_enccblks
0070a4c0 T _jpc_pi_next
0070a4c0 t .text
0070b3d0 T _jpc_pi_destroy
0070b4a0 T _jpc_pi_create0
0070b510 T _jpc_pchglist_create
0070b540 T _jpc_pchglist_insert
0070b5e0 T _jpc_pi_addpchg
0070b610 T _jpc_pchglist_remove
0070b670 T _jpc_pchg_copy
0070b6a0 T _jpc_pchglist_copy
0070b780 T _jpc_pchglist_destroy
0070b7d0 T _jpc_pchg_destroy
0070b7e0 T _jpc_pchglist_get
0070b7f0 T _jpc_pchglist_numpchgs
0070b800 T _jpc_pi_init
0070b8c0 T _jpc_dec_pi_create
0070b8c0 t .text
0070bbc0 T _jpc_dec_lookahead
0070bc30 T _jpc_dec_decodepkts
0070c760 T _jpc_enc_encpkt
0070c760 t .text
0070d380 T _jpc_save_t2state
0070d4e0 T _jpc_restore_t2state
0070d640 T _jpc_init_t2state
0070d870 T _jpc_enc_encpkts
0070d900 T _jpc_enc_pi_create
0070dc40 T _jpc_tagtree_create
0070dc40 t .text
0070def0 T _jpc_tagtree_destroy
0070df20 T _jpc_tagtree_copy
0070df70 T _jpc_tagtree_reset
0070dfa0 T _jpc_tagtree_setvalue
0070dfc0 T _jpc_tagtree_getleaf
0070dfd0 T _jpc_tagtree_encode
0070e210 T _jpc_tagtree_decode
0070e320 T _jpc_tagtree_dump
0070e380 t _jpc_tsfbnode_destroy
0070e380 t .text
0070e3e0 t _qmfb2d_getbands.constprop.0
0070e5d0 t _jpc_tsfbnode_synthesize
0070e740 t _jpc_tsfbnode_analyze
0070e8b0 t _jpc_tsfbnode_getbandstree
0070edd0 T _jpc_tsfb_wavelet
0070ef70 T _jpc_tsfb_destroy
0070efa0 T _jpc_tsfb_analyze
0070efd0 T _jpc_tsfb_synthesize
0070f000 T _jpc_tsfb_getbands
0070f0a0 T _jpc_cod_gettsfb
0070f100 T _jpc_atoaf
0070f100 t .text
0070f230 T _jpc_seq_upsample
0070f2f0 T _jpc_seq_norm
0070f390 T _jpc_seq_conv
0070f4e0 t .text
0070f4e0 t .text
0070f4e0 t .text
0070f4e0 t .text
0070f4e0 t .text
0070f4e0 t .text
0070f4e0 t .text
0070f4e0 t .text
0070f4e0 t .text
0070f4e0 t .text
0070f4e0 t .text
0070f4e0 t .text
0070f4e0 t .text
0070f4e0 t .text
0070f4e0 t .text
0070f4e0 T ___WSAFDIsSet@8
0070f4e8 t .text
0070f4e8 t .text
0070f4e8 t .text
0070f4e8 t .text
0070f4e8 t .text
0070f4e8 t .text
0070f4e8 t .text
0070f4e8 t .text
0070f4e8 t .text
0070f4e8 t .text
0070f4e8 t .text
0070f4e8 t .text
0070f4e8 t .text
0070f4e8 t .text
0070f4e8 t .text
0070f4e8 t .text
0070f4e8 t .text
0070f4e8 t .text
0070f4e8 t .text
0070f4e8 t .text
0070f4e8 t .text
0070f4e8 t .text
0070f4e8 t .text
0070f4e8 t .text
0070f4e8 t .text
0070f4e8 t .text
0070f4e8 t .text
0070f4e8 t .text
0070f4e8 t .text
0070f4e8 t .text
0070f4e8 t .text
0070f4e8 t .text
0070f4e8 t .text
0070f4e8 t .text
0070f4e8 t .text
0070f4e8 t .text
0070f4e8 t .text
0070f4e8 t .text
0070f4e8 t .text
0070f4e8 t .text
0070f4e8 t .text
0070f4e8 t .text
0070f4e8 t .text
0070f4e8 t .text
0070f4e8 t .text
0070f4e8 t .text
0070f4e8 t .text
0070f4e8 t .text
0070f4e8 t .text
0070f4e8 t .text
0070f4e8 t .text
0070f4e8 t .text
0070f4e8 t .text
0070f4e8 t .text
0070f4e8 t .text
0070f4e8 t .text
0070f4e8 t .text
0070f4e8 t .text
0070f4e8 t .text
0070f500 t _d_make_comp
0070f500 t .text
0070f610 t _d_make_name
0070f670 t _d_number
0070f750 t _d_call_offset
0070f7c0 t _d_ref_qualifier
0070f830 t _d_discriminator
0070f8a0 t _d_count_templates_scopes
0070f9c0 t _d_pack_length
0070f9f0 t _d_index_template_argument.part.0
0070fa30 t _d_growable_string_callback_adapter
0070faf0 t _next_is_type_qual.isra.0
0070fb50 t _d_append_char
0070fbd0 t _d_lookup_template_argument
0070fc30 t _d_append_string
0070fd10 t _d_find_pack
0070fdf0 t _d_template_param
0070fe90 t _d_append_num
0070ff90 t _d_source_name
007100a0 t _d_substitution
00710310 t _d_maybe_module_name
007103a0 t _d_type
00710dc0 t _d_parmlist
00710e70 t _d_bare_function_type
00710ee0 t _d_function_type
00710f70 t _d_template_parm
00711060 t _d_template_head
007110c0 t _d_operator_name
00711280 t _d_unqualified_name
007118d0 t _d_expression_1
007120b0 t _d_exprlist
00712160 t _d_cv_qualifiers
00712350 t _d_template_args_1
00712450 t _d_prefix
007125b0 t _d_name
00712a40 t _d_encoding.part.0
00712c60 t _d_special_name
00713320 t _d_expr_primary
00713510 t _d_template_arg
00713590 t _d_print_comp_inner
00717c80 t _d_print_comp
00717d10 t _d_print_mod
00718900 t _d_print_function_type
00718cf0 t _d_print_mod_list
00719110 t _d_print_array_type
00719450 t _d_print_expr_op
00719550 t _d_demangle_callback.constprop.0
00719ba0 t _d_print_subexpr
00719d80 t _d_maybe_print_fold_expression
0071a1b0 t _d_maybe_print_designated_init
0071a4e0 T ___cxa_demangle
0071a680 T ___gcclibcxx_demangle_callback
0071a6c0 T ___do_global_dtors
0071a6c0 t .text
0071a6c0 t .text
0071a6c0 t .text
0071a6c0 t .text
0071a6c0 t .text
0071a6c0 t .text
0071a6c0 t .text
0071a6c0 t .text
0071a6c0 t .text
0071a6c0 t .text
0071a6c0 t .text
0071a6c0 t .text
0071a6c0 t .text
0071a6c0 t .text
0071a6c0 t .text
0071a6c0 t .text
0071a6c0 t .text
0071a6c0 t .text
0071a6c0 t .text
0071a6c0 t .text
0071a6c0 t .text
0071a6c0 t .text
0071a6c0 t .text
0071a6c0 t .text
0071a6c0 t .text
0071a6c0 t .text
0071a6c0 t .text
0071a6c0 t .text
0071a6c0 t .text
0071a6c0 t .text
0071a6c0 t .text
0071a6c0 t .text
0071a6c0 t .text
0071a700 T ___do_global_ctors
0071a770 T ___main
0071a790 T __setargv
0071a790 t .text
0071a790 t .text
0071a790 t .text
0071a7a0 T ___dyn_tls_dtor@12
0071a7a0 t .text
0071a7a0 t .text
0071a7e0 T ___dyn_tls_init@12
0071a870 T ___tlregdtor
0071a880 T __matherr
0071a880 t .text
0071a880 t .text
0071a880 t .text
0071a900 t ___report_error
0071a900 t .text
0071a900 t .text
0071a900 t .text
0071a950 t _mark_section_writable
0071aab0 T __pei386_runtime_relocator
0071ae00 T ___mingw_raise_matherr
0071ae00 t .text
0071ae60 T ___mingw_setusermatherr
0071ae80 T __gnu_exception_handler@4
0071ae80 t .text
0071ae80 t .text
0071b020 t ___mingwthr_run_key_dtors.part.0
0071b020 t .text
0071b090 T ____w64_mingwthr_add_key_dtor
0071b110 T ____w64_mingwthr_remove_key_dtor
0071b1b0 T ___mingw_TLScallback
0071b2c0 T __fpreset
0071b2c0 T _fpreset
0071b2c0 t .text
0071b2c0 t .text
0071b2d0 t .text
0071b2d0 t .text
0071b2d0 T __ValidateImageBase
0071b300 T __FindPESection
0071b340 T __FindPESectionByName
0071b3e0 T ___mingw_GetSectionForAddress
0071b460 T ___mingw_GetSectionCount
0071b4a0 T __FindPESectionExec
0071b520 T __GetPEImageBase
0071b560 T __IsNonwritableInCurrentImage
0071b5f0 T ___mingw_enum_import_library_names
0071b6c0 T ___chkstk_ms
0071b6c0 t .text
0071b6ec t .text
0071b6f0 T ___divdi3
0071b6f0 t .text
0071b860 t .text
0071b860 T ___udivdi3
0071b980 t _init_dwarf_reg_size_table
0071b980 t .text
0071ba00 t _uw_install_context_1
0071bb90 t _read_encoded_value
0071bd40 t _execute_stack_op
0071c410 t _uw_update_context_1
0071c730 t _execute_cfa_program_specialized
0071d050 t _execute_cfa_program_generic
0071d970 t _uw_frame_state_for
0071dfb0 t _uw_init_context_1
0071e0e0 t __Unwind_RaiseException_Phase2
0071e220 t __Unwind_ForcedUnwind_Phase2
0071e390 T __Unwind_GetGR
0071e3d0 T __Unwind_GetCFA
0071e3e0 T __Unwind_SetGR
0071e420 T __Unwind_GetIP
0071e430 T __Unwind_GetIPInfo
0071e450 T __Unwind_SetIP
0071e460 T __Unwind_GetLanguageSpecificData
0071e470 T __Unwind_GetRegionStart
0071e480 T __Unwind_FindEnclosingFunction
0071e4b0 T __Unwind_GetDataRelBase
0071e4c0 T __Unwind_GetTextRelBase
0071e4d0 T ___frame_state_for
0071e5a0 t __Unwind_DebugHook
0071e5b0 T __Unwind_RaiseException
0071e760 T __Unwind_ForcedUnwind
0071e810 T __Unwind_Resume
0071e8c0 T __Unwind_Resume_or_Rethrow
0071e980 T __Unwind_DeleteException
0071e9a0 T __Unwind_Backtrace
0071ea80 t _fde_unencoded_compare
0071ea80 t .text
0071eaa0 t _fde_unencoded_extract
0071eae0 t _frame_downheap
0071ebb0 t _init_object_mutex
0071ebd0 t _read_encoded_value_with_base
0071ed30 t _fde_radixsort
0071ef70 t ___deregister_frame_info_bases.part.0
0071f060 t _get_cie_encoding
0071f180 t _fde_mixed_encoding_extract
0071f220 t _classify_object_over_fdes.constprop.0
0071f400 t _fde_single_encoding_extract
0071f4a0 t _fde_single_encoding_compare
0071f540 t _fde_mixed_encoding_compare
0071f630 t _add_fdes.isra.0
0071f8b0 t _linear_search_fdes
0071fbe0 t _search_object
00720110 T ___register_frame_info_bases
007201a0 T ___register_frame_info
00720230 T ___register_frame
007202c0 T ___register_frame_info_table_bases
00720330 T ___register_frame_info_table
007203a0 T ___register_frame_table
00720420 T ___deregister_frame_info_bases
00720440 T ___deregister_frame_info
00720460 T ___deregister_frame
00720490 T __Unwind_Find_FDE
00720640 t _emutls_destroy
00720640 t .text
00720690 t _emutls_init
007206d0 T ___emutls_get_address
00720920 T ___emutls_register_common
00720960 T ___mingw_strtod
00720960 T ___strtod
00720960 t .text
00720a80 T ___mingw_strtof
00720a80 T ___strtof
00720a80 t .text
00720b20 T ___mingw_strtold
00720b20 T ___strtold
00720b20 T _strtold
00720b20 t .text
00720bf0 T _lseek64
00720bf0 t .text
00720bf0 t .text
00720c00 T ___mingw_fprintf
00720c00 t .text
00720c50 T ___mingw_fscanf
00720c50 t .text
00720c80 t ___pformat_cvt
00720c80 t .text
00720d70 t ___pformat_putc
00720dd0 t ___pformat_wputchars
00720f50 t ___pformat_putchars
007210b0 t ___pformat_puts
00721100 t ___pformat_emit_inf_or_nan
00721190 t ___pformat_xint.isra.0
00721880 t ___pformat_int.isra.0
00721ca0 t ___pformat_emit_radix_point
00721df0 t ___pformat_emit_float
00722230 t ___pformat_emit_efloat
00722320 t ___pformat_efloat
007223b0 t ___pformat_float
00722480 t ___pformat_gfloat
007225f0 t ___pformat_emit_xfloat.isra.0
00722b80 T ___mingw_pformat
00723780 T ___mingw_sprintf
00723780 t .text
007237c0 T ___mingw_sscanf
007237c0 t .text
007237f0 T ___mingw_vfscanf
007237f0 t .text
00723840 T ___mingw_vsnprintf
00723840 t .text
007238c0 T ___mingw_vsscanf
007238c0 t .text
00723920 t _optimize_alloc
00723920 t .text
00723960 t _release_ptrs
007239e0 t _resize_wbuf
00723a50 t _cleanup_return
00723ae0 t _in_ch
00723b70 t _back_ch
00723be0 T ___mingw_sformat
00727480 T ___rv_alloc_D2A
00727480 t .text
007274c0 T ___nrv_alloc_D2A
00727550 T ___freedtoa
00727570 T ___quorem_D2A
00727780 T ___gdtoa
00727780 t .text
00729240 T ___g__fmt
00729240 t .text
00729560 T ___add_nanbits_D2A
00729680 T ___rshift_D2A
00729680 t .text
007297d0 T ___trailz_D2A
00729840 t _dtoa_lock
00729840 t .text
00729900 t _dtoa_lock_cleanup
00729940 T ___Balloc_D2A
00729a20 T ___Bfree_D2A
00729a90 T ___multadd_D2A
00729b70 T ___i2b_D2A
00729c20 T ___mult_D2A
00729de0 T ___pow5mult_D2A
00729f50 T ___lshift_D2A
0072a0d0 T ___cmp_D2A
0072a120 T ___diff_D2A
0072a350 T ___b2d_D2A
0072a490 T ___d2b_D2A
0072a640 T ___strcp_D2A
0072a680 T ___increment_D2A
0072a680 t .text
0072a730 t _rvOK.constprop.0.isra.0
0072aac0 T ___decrement_D2A
0072ab10 T ___set_ones_D2A
0072ac00 T ___strtodg
0072cd00 T ___sum_D2A
0072cd00 t .text
0072cec0 T ___gethex_D2A
0072cec0 t .text
0072db00 T ___hexnan_D2A
0072db00 t .text
0072db00 t .text
0072df20 T ___s2b_D2A
0072df20 t .text
0072e020 T ___ratio_D2A
0072e0e0 T ___match_D2A
0072e140 T ___copybits_D2A
0072e1e0 T ___any_on_D2A
0072e260 T _sinf
0072e260 t .text
0072e280 T _fmodf
0072e280 t .text
0072e2a0 T _floorf
0072e2a0 t .text
0072e2d0 T _cosf
0072e2d0 t .text
0072e2f0 T _ceilf
0072e2f0 t .text
0072e320 T _atan2f
0072e320 t .text
0072e330 T _sqrtf
0072e330 t .text
0072e450 T _sincosf
0072e450 t .text
0072e480 T _sincos
0072e480 t .text
0072e4b0 T _powf
0072e4b0 t .text
0072e4e0 t .text
0072e4e0 T _vsprintf
0072e530 t .text
0072e530 T _vfprintf
0072e570 T _sscanf
0072e570 t .text
0072e5c0 T _sprintf
0072e5c0 t .text
0072e610 T _fprintf
0072e610 t .text
0072e650 t .text
0072e650 T __vsnwprintf
0072e6a0 t .text
0072e6a0 T __vsnprintf
0072e6f0 T ___local_stdio_scanf_options
0072e6f0 t .text
0072e700 T ___local_stdio_printf_options
0072e700 t .text
0072e710 T ___p___initenv
0072e710 t .text
0072e720 T __amsg_exit
0072e720 t .text
0072e760 T ___getmainargs
0072e760 t .text
0072e7c0 T _qsort
0072e7c0 t .text
0072e7c8 T _rand
0072e7c8 t .text
0072e7d0 T _srand
0072e7d0 t .text
0072e7d8 T __gmtime64
0072e7d8 t .text
0072e7d8 t .text
0072e7d8 t .text
0072e7e0 T __localtime64
0072e7e0 t .text
0072e7e8 t .text
0072e7e8 T __time64
0072e7f0 T _asctime
0072e7f0 t .text
0072e7f8 T _strftime
0072e7f8 t .text
0072e800 t .text
0072e800 T _wcsftime
0072e808 T _isdigit
0072e808 t .text
0072e808 t .text
0072e808 t .text
0072e810 T _isspace
0072e810 t .text
0072e818 T _isxdigit
0072e818 t .text
0072e820 T _mbrlen
0072e820 t .text
0072e828 T _memset
0072e828 t .text
0072e830 T _strcat
0072e830 t .text
0072e838 T _strcmp
0072e838 t .text
0072e840 T _strcoll
0072e840 t .text
0072e848 T _strcpy
0072e848 t .text
0072e850 T _strlen
0072e850 t .text
0072e858 T _strncmp
0072e858 t .text
0072e860 T _strncpy
0072e860 t .text
0072e868 T _strnlen
0072e868 t .text
0072e870 T _strspn
0072e870 t .text
0072e878 T _strtok
0072e878 t .text
0072e880 T _strxfrm
0072e880 t .text
0072e888 t .text
0072e888 T _tolower
0072e890 t .text
0072e890 T _wcscoll
0072e898 t .text
0072e898 T _wcslen
0072e8a0 t .text
0072e8a0 T _wcsnlen
0072e8a8 t .text
0072e8a8 T _wcsxfrm
0072e8b0 t .text
0072e8b0 T _wctype
0072e8b8 T _strupr
0072e8b8 t .text
0072e8c0 T _strnicmp
0072e8c0 t .text
0072e8c8 T _stricmp
0072e8c8 t .text
0072e8d0 T _strdup
0072e8d0 t .text
0072e8d8 T ___acrt_iob_func
0072e8d8 t .text
0072e8d8 t .text
0072e8d8 t .text
0072e8e0 T ___p__commode
0072e8e0 t .text
0072e8e8 T ___p__fmode
0072e8e8 t .text
0072e8f0 T ___stdio_common_vfprintf
0072e8f0 t .text
0072e8f8 T ___stdio_common_vsprintf
0072e8f8 t .text
0072e900 T ___stdio_common_vsprintf_s
0072e900 t .text
0072e908 T ___stdio_common_vsscanf
0072e908 t .text
0072e910 T ___stdio_common_vswprintf
0072e910 t .text
0072e918 T __lseeki64
0072e918 t .text
0072e920 T _fclose
0072e920 t .text
0072e928 T _feof
0072e928 t .text
0072e930 T _ferror
0072e930 t .text
0072e938 T _fflush
0072e938 t .text
0072e940 T _fgetc
0072e940 t .text
0072e948 T _fgets
0072e948 t .text
0072e950 T _fopen
0072e950 t .text
0072e958 T _fputc
0072e958 t .text
0072e960 T _fputs
0072e960 t .text
0072e968 T _fread
0072e968 t .text
0072e970 T _fseek
0072e970 t .text
0072e978 T _ftell
0072e978 t .text
0072e980 T _fwrite
0072e980 t .text
0072e988 T _getc
0072e988 t .text
0072e990 T _rewind
0072e990 t .text
0072e998 T _setvbuf
0072e998 t .text
0072e9a0 t .text
0072e9a0 T _tmpnam
0072e9a8 t .text
0072e9a8 T _ungetc
0072e9b0 t .text
0072e9b0 T _write
0072e9b8 T _setmode
0072e9b8 t .text
0072e9c0 T _read
0072e9c0 t .text
0072e9c8 T _open
0072e9c8 t .text
0072e9d0 T _lseek
0072e9d0 t .text
0072e9d8 T _getcwd
0072e9d8 t .text
0072e9e0 T _fileno
0072e9e0 t .text
0072e9e8 T _close
0072e9e8 t .text
0072e9f0 T ___set_app_type
0072e9f0 t .text
0072e9f0 t .text
0072e9f0 t .text
0072e9f8 T ___p___argc
0072e9f8 t .text
0072ea00 T ___p___argv
0072ea00 t .text
0072ea08 T ___p__acmdln
0072ea08 t .text
0072ea10 T __cexit
0072ea10 t .text
0072ea18 T __configure_narrow_argv
0072ea18 t .text
0072ea20 T __crt_atexit
0072ea20 t .text
0072ea28 T __errno
0072ea28 t .text
0072ea30 T __exit
0072ea30 t .text
0072ea38 T __initialize_narrow_environment
0072ea38 t .text
0072ea40 T __initterm
0072ea40 t .text
0072ea48 T __initterm_e
0072ea48 t .text
0072ea50 T __set_invalid_parameter_handler
0072ea50 t .text
0072ea58 T _abort
0072ea58 t .text
0072ea60 T _exit
0072ea60 t .text
0072ea68 T _signal
0072ea68 t .text
0072ea70 T _strerror
0072ea70 t .text
0072ea78 T __setjmp3
0072ea78 t .text
0072ea78 t .text
0072ea78 t .text
0072ea80 T _memchr
0072ea80 t .text
0072ea88 T _memcmp
0072ea88 t .text
0072ea90 T _memcpy
0072ea90 t .text
0072ea98 T _memmove
0072ea98 t .text
0072eaa0 T _strchr
0072eaa0 t .text
0072eaa8 T _strrchr
0072eaa8 t .text
0072eab0 T _strstr
0072eab0 t .text
0072eab8 T __ismbblead
0072eab8 t .text
0072eab8 t .text
0072eab8 t .text
0072eac0 T ___setusermatherr
0072eac0 t .text
0072eac0 t .text
0072eac0 t .text
0072eac8 T _atan2
0072eac8 t .text
0072ead0 T _ceil
0072ead0 t .text
0072ead8 T _cos
0072ead8 t .text
0072eae0 T _floor
0072eae0 t .text
0072eae8 T _log10
0072eae8 t .text
0072eaf0 T _pow
0072eaf0 t .text
0072eaf8 T _sin
0072eaf8 t .text
0072eb00 T _sqrt
0072eb00 t .text
0072eb08 T _fdopen
0072eb08 t .text
0072eb10 T __configthreadlocale
0072eb10 t .text
0072eb10 t .text
0072eb10 t .text
0072eb18 T _localeconv
0072eb18 t .text
0072eb20 T _setlocale
0072eb20 t .text
0072eb28 T __set_new_mode
0072eb28 t .text
0072eb28 t .text
0072eb28 t .text
0072eb30 T _calloc
0072eb30 t .text
0072eb38 T _free
0072eb38 t .text
0072eb40 T _malloc
0072eb40 t .text
0072eb48 T _realloc
0072eb48 t .text
0072eb50 T __lock_file
0072eb50 t .text
0072eb50 t .text
0072eb50 t .text
0072eb58 t .text
0072eb58 T __unlock_file
0072eb60 t .text
0072eb60 T _unlink
0072eb68 T _rmdir
0072eb68 t .text
0072eb70 T _mkdir
0072eb70 t .text
0072eb78 T __fstat64
0072eb78 t .text
0072eb80 T _chdir
0072eb80 t .text
0072eb88 T ___p__environ
0072eb88 t .text
0072eb88 t .text
0072eb88 t .text
0072eb90 T _getenv
0072eb90 t .text
0072eb98 T _atof
0072eb98 t .text
0072eb98 t .text
0072eb98 t .text
0072eba0 T _atoi
0072eba0 t .text
0072eba8 T _btowc
0072eba8 t .text
0072ebb0 T _mbrtowc
0072ebb0 t .text
0072ebb8 T _strtol
0072ebb8 t .text
0072ebc0 T _strtoll
0072ebc0 t .text
0072ebc8 T _strtoul
0072ebc8 t .text
0072ebd0 T _strtoull
0072ebd0 t .text
0072ebd8 t .text
0072ebd8 T _wcrtomb
0072ebe0 t .text
0072ebe0 T _wcstombs
0072ebe8 t .text
0072ebe8 T _wctob
0072ebf0 T _pthread_setspecific
0072ebf0 t .text
0072ebf0 t .text
0072ebf0 t .text
0072ebf0 t .text
0072ebf8 T _pthread_once
0072ebf8 t .text
0072ec00 T _pthread_mutex_unlock
0072ec00 t .text
0072ec08 T _pthread_mutex_lock
0072ec08 t .text
0072ec10 T _pthread_mutex_init
0072ec10 t .text
0072ec18 T _pthread_mutex_destroy
0072ec18 t .text
0072ec20 T _pthread_key_create
0072ec20 t .text
0072ec28 T _pthread_getspecific
0072ec28 t .text
0072ec30 T _pthread_cond_wait
0072ec30 t .text
0072ec38 T _pthread_cond_broadcast
0072ec38 t .text
0072ec40 t .text
0072ec40 t .text$_Z20_txnal_cow_string_D1Pv
0072ec40 T __Z20_txnal_cow_string_D1Pv
0072ec70 t .text$_Z23_txnal_cow_string_c_strPKv
0072ec70 T __Z23_txnal_cow_string_c_strPKv
0072ec80 t .text$_Z23_txnal_sso_string_c_strPKv
0072ec80 T __Z23_txnal_sso_string_c_strPKv
0072ec90 t .text$_Z26_txnal_logic_error_get_msgPv
0072ec90 T __Z26_txnal_logic_error_get_msgPv
0072eca0 t .text$_Z27_txnal_cow_string_D1_commitPv
0072eca0 T __Z27_txnal_cow_string_D1_commitPv
0072ece0 t .text$_Z28_txnal_runtime_error_get_msgPv
0072ece0 T __Z28_txnal_runtime_error_get_msgPv
0072ecf0 t .text$_Z35_txnal_cow_string_C1_for_exceptionsPvPKcS_
0072ecf0 T __Z35_txnal_cow_string_C1_for_exceptionsPvPKcS_
0072ed60 t .text$_Z9sprintf_sILj1024EEiRAT__cPKcz
0072ed60 T __Z9sprintf_sILj1024EEiRAT__cPKcz
0072edb0 t .text$_ZGTtNKSt11logic_error4whatEv
0072edb0 T __ZGTtNKSt11logic_error4whatEv
0072edc0 t .text$_ZGTtNKSt13bad_exceptionD1Ev
0072edc0 T __ZGTtNKSt13bad_exceptionD1Ev
0072edd0 t .text$_ZGTtNKSt13runtime_error4whatEv
0072edd0 T __ZGTtNKSt13runtime_error4whatEv
0072ede0 t .text$_ZGTtNKSt9exceptionD1Ev
0072ede0 T __ZGTtNKSt9exceptionD1Ev
0072edf0 t .text$_ZGTtNSt11logic_errorC1EPKc
0072edf0 T __ZGTtNSt11logic_errorC1EPKc
0072edf0 T __ZGTtNSt11logic_errorC2EPKc
0072ee60 t .text$_ZGTtNSt11logic_errorC1ERKNSt7__cxx1112basic_stringIcSt11char_traitsIcESaIcEEE
0072ee60 T __ZGTtNSt11logic_errorC1ERKNSt7__cxx1112basic_stringIcSt11char_traitsIcESaIcEEE
0072ee60 T __ZGTtNSt11logic_errorC2ERKNSt7__cxx1112basic_stringIcSt11char_traitsIcESaIcEEE
0072eed0 t .text$_ZGTtNSt11logic_errorD0Ev
0072eed0 T __ZGTtNSt11logic_errorD0Ev
0072ef10 t .text$_ZGTtNSt11logic_errorD1Ev
0072ef10 T __ZGTtNSt11logic_errorD1Ev
0072ef10 T __ZGTtNSt11logic_errorD2Ev
0072ef50 t .text$_ZGTtNSt11range_errorC1EPKc
0072ef50 T __ZGTtNSt11range_errorC1EPKc
0072ef50 T __ZGTtNSt11range_errorC2EPKc
0072efd0 t .text$_ZGTtNSt11range_errorC1ERKNSt7__cxx1112basic_stringIcSt11char_traitsIcESaIcEEE
0072efd0 T __ZGTtNSt11range_errorC1ERKNSt7__cxx1112basic_stringIcSt11char_traitsIcESaIcEEE
0072efd0 T __ZGTtNSt11range_errorC2ERKNSt7__cxx1112basic_stringIcSt11char_traitsIcESaIcEEE
0072f050 t .text$_ZGTtNSt11range_errorD0Ev
0072f050 T __ZGTtNSt11range_errorD0Ev
0072f090 t .text$_ZGTtNSt11range_errorD1Ev
0072f090 T __ZGTtNSt11range_errorD1Ev
0072f090 T __ZGTtNSt11range_errorD2Ev
0072f0d0 t .text$_ZGTtNSt12domain_errorC1EPKc
0072f0d0 T __ZGTtNSt12domain_errorC1EPKc
0072f0d0 T __ZGTtNSt12domain_errorC2EPKc
0072f150 t .text$_ZGTtNSt12domain_errorC1ERKNSt7__cxx1112basic_stringIcSt11char_traitsIcESaIcEEE
0072f150 T __ZGTtNSt12domain_errorC1ERKNSt7__cxx1112basic_stringIcSt11char_traitsIcESaIcEEE
0072f150 T __ZGTtNSt12domain_errorC2ERKNSt7__cxx1112basic_stringIcSt11char_traitsIcESaIcEEE
0072f1d0 t .text$_ZGTtNSt12domain_errorD0Ev
0072f1d0 T __ZGTtNSt12domain_errorD0Ev
0072f210 t .text$_ZGTtNSt12domain_errorD1Ev
0072f210 T __ZGTtNSt12domain_errorD1Ev
0072f210 T __ZGTtNSt12domain_errorD2Ev
0072f250 t .text$_ZGTtNSt12length_errorC1EPKc
0072f250 T __ZGTtNSt12length_errorC1EPKc
0072f250 T __ZGTtNSt12length_errorC2EPKc
0072f2d0 t .text$_ZGTtNSt12length_errorC1ERKNSt7__cxx1112basic_stringIcSt11char_traitsIcESaIcEEE
0072f2d0 T __ZGTtNSt12length_errorC1ERKNSt7__cxx1112basic_stringIcSt11char_traitsIcESaIcEEE
0072f2d0 T __ZGTtNSt12length_errorC2ERKNSt7__cxx1112basic_stringIcSt11char_traitsIcESaIcEEE
0072f350 t .text$_ZGTtNSt12length_errorD0Ev
0072f350 T __ZGTtNSt12length_errorD0Ev
0072f390 t .text$_ZGTtNSt12length_errorD1Ev
0072f390 T __ZGTtNSt12length_errorD1Ev
0072f390 T __ZGTtNSt12length_errorD2Ev
0072f3d0 t .text$_ZGTtNSt12out_of_rangeC1EPKc
0072f3d0 T __ZGTtNSt12out_of_rangeC1EPKc
0072f3d0 T __ZGTtNSt12out_of_rangeC2EPKc
0072f450 t .text$_ZGTtNSt12out_of_rangeC1ERKNSt7__cxx1112basic_stringIcSt11char_traitsIcESaIcEEE
0072f450 T __ZGTtNSt12out_of_rangeC1ERKNSt7__cxx1112basic_stringIcSt11char_traitsIcESaIcEEE
0072f450 T __ZGTtNSt12out_of_rangeC2ERKNSt7__cxx1112basic_stringIcSt11char_traitsIcESaIcEEE
0072f4d0 t .text$_ZGTtNSt12out_of_rangeD0Ev
0072f4d0 T __ZGTtNSt12out_of_rangeD0Ev
0072f510 t .text$_ZGTtNSt12out_of_rangeD1Ev
0072f510 T __ZGTtNSt12out_of_rangeD1Ev
0072f510 T __ZGTtNSt12out_of_rangeD2Ev
0072f550 t .text$_ZGTtNSt13runtime_errorC1EPKc
0072f550 T __ZGTtNSt13runtime_errorC1EPKc
0072f550 T __ZGTtNSt13runtime_errorC2EPKc
0072f5c0 t .text$_ZGTtNSt13runtime_errorC1ERKNSt7__cxx1112basic_stringIcSt11char_traitsIcESaIcEEE
0072f5c0 T __ZGTtNSt13runtime_errorC1ERKNSt7__cxx1112basic_stringIcSt11char_traitsIcESaIcEEE
0072f5c0 T __ZGTtNSt13runtime_errorC2ERKNSt7__cxx1112basic_stringIcSt11char_traitsIcESaIcEEE
0072f630 t .text$_ZGTtNSt13runtime_errorD0Ev
0072f630 T __ZGTtNSt13runtime_errorD0Ev
0072f670 t .text$_ZGTtNSt13runtime_errorD1Ev
0072f670 T __ZGTtNSt13runtime_errorD1Ev
0072f670 T __ZGTtNSt13runtime_errorD2Ev
0072f6b0 t .text$_ZGTtNSt14overflow_errorC1EPKc
0072f6b0 T __ZGTtNSt14overflow_errorC1EPKc
0072f6b0 T __ZGTtNSt14overflow_errorC2EPKc
0072f730 t .text$_ZGTtNSt14overflow_errorC1ERKNSt7__cxx1112basic_stringIcSt11char_traitsIcESaIcEEE
0072f730 T __ZGTtNSt14overflow_errorC1ERKNSt7__cxx1112basic_stringIcSt11char_traitsIcESaIcEEE
0072f730 T __ZGTtNSt14overflow_errorC2ERKNSt7__cxx1112basic_stringIcSt11char_traitsIcESaIcEEE
0072f7b0 t .text$_ZGTtNSt14overflow_errorD0Ev
0072f7b0 T __ZGTtNSt14overflow_errorD0Ev
0072f7f0 t .text$_ZGTtNSt14overflow_errorD1Ev
0072f7f0 T __ZGTtNSt14overflow_errorD1Ev
0072f7f0 T __ZGTtNSt14overflow_errorD2Ev
0072f830 t .text$_ZGTtNSt15underflow_errorC1EPKc
0072f830 T __ZGTtNSt15underflow_errorC1EPKc
0072f830 T __ZGTtNSt15underflow_errorC2EPKc
0072f8b0 t .text$_ZGTtNSt15underflow_errorC1ERKNSt7__cxx1112basic_stringIcSt11char_traitsIcESaIcEEE
0072f8b0 T __ZGTtNSt15underflow_errorC1ERKNSt7__cxx1112basic_stringIcSt11char_traitsIcESaIcEEE
0072f8b0 T __ZGTtNSt15underflow_errorC2ERKNSt7__cxx1112basic_stringIcSt11char_traitsIcESaIcEEE
0072f930 t .text$_ZGTtNSt15underflow_errorD0Ev
0072f930 T __ZGTtNSt15underflow_errorD0Ev
0072f970 t .text$_ZGTtNSt15underflow_errorD1Ev
0072f970 T __ZGTtNSt15underflow_errorD1Ev
0072f970 T __ZGTtNSt15underflow_errorD2Ev
0072f9b0 t .text$_ZGTtNSt16invalid_argumentC1EPKc
0072f9b0 T __ZGTtNSt16invalid_argumentC1EPKc
0072f9b0 T __ZGTtNSt16invalid_argumentC2EPKc
0072fa30 t .text$_ZGTtNSt16invalid_argumentC1ERKNSt7__cxx1112basic_stringIcSt11char_traitsIcESaIcEEE
0072fa30 T __ZGTtNSt16invalid_argumentC1ERKNSt7__cxx1112basic_stringIcSt11char_traitsIcESaIcEEE
0072fa30 T __ZGTtNSt16invalid_argumentC2ERKNSt7__cxx1112basic_stringIcSt11char_traitsIcESaIcEEE
0072fab0 t .text$_ZGTtNSt16invalid_argumentD0Ev
0072fab0 T __ZGTtNSt16invalid_argumentD0Ev
0072faf0 t .text$_ZGTtNSt16invalid_argumentD1Ev
0072faf0 T __ZGTtNSt16invalid_argumentD1Ev
0072faf0 T __ZGTtNSt16invalid_argumentD2Ev
0072fb30 t .text$_ZL16get_adjusted_ptrPKSt9type_infoS1_PPv
0072fb30 t __ZL16get_adjusted_ptrPKSt9type_infoS1_PPv
0072fba0 t .text$_ZL17parse_lsda_headerP15_Unwind_ContextPKhP16lsda_header_info
0072fba0 t __ZL17parse_lsda_headerP15_Unwind_ContextPKhP16lsda_header_info
0072fca0 t .text$_ZL20check_exception_specP16lsda_header_infoPKSt9type_infoPvl
0072fca0 t __ZL20check_exception_specP16lsda_header_infoPKSt9type_infoPvl
0072fda0 t .text$_ZL21base_of_encoded_valuehP15_Unwind_Context
0072fda0 t __ZL21base_of_encoded_valuehP15_Unwind_Context
0072fe10 t .text$_ZL23__gxx_exception_cleanup19_Unwind_Reason_CodeP17_Unwind_Exception
0072fe10 t __ZL23__gxx_exception_cleanup19_Unwind_Reason_CodeP17_Unwind_Exception
0072fe60 t .text$_ZL28read_encoded_value_with_basehjPKhPj
0072fe60 t __ZL28read_encoded_value_with_basehjPKhPj
0072ffe0 t .text$_ZN10ProfileMgrD0Ev
0072ffe0 T __ZN10ProfileMgrD0Ev
00730070 t .text$_ZN10ProfileMgrD1Ev
00730070 T __ZN10ProfileMgrD1Ev
007300f0 t .text$_ZN10VertexListD1Ev
007300f0 T __ZN10VertexListD1Ev
00730120 t .text$_ZN10__cxxabiv111__terminateEPFvvE
00730120 T __ZN10__cxxabiv111__terminateEPFvvE
00730140 t .text$_ZN10__cxxabiv112__unexpectedEPFvvE
00730140 T __ZN10__cxxabiv112__unexpectedEPFvvE
00730150 t .text$_ZN10__cxxabiv115__forced_unwindD0Ev
00730150 T __ZN10__cxxabiv115__forced_unwindD0Ev
00730170 t .text$_ZN10__cxxabiv115__forced_unwindD2Ev
00730170 T __ZN10__cxxabiv115__forced_unwindD1Ev
00730170 T __ZN10__cxxabiv115__forced_unwindD2Ev
00730180 t .text$_ZN10__cxxabiv117__class_type_infoD0Ev
00730180 T __ZN10__cxxabiv117__class_type_infoD0Ev
007301b0 t .text$_ZN10__cxxabiv117__class_type_infoD2Ev
007301b0 T __ZN10__cxxabiv117__class_type_infoD1Ev
007301b0 T __ZN10__cxxabiv117__class_type_infoD2Ev
007301c0 t .text$_ZN10__cxxabiv119__foreign_exceptionD0Ev
007301c0 T __ZN10__cxxabiv119__foreign_exceptionD0Ev
007301e0 t .text$_ZN10__cxxabiv119__foreign_exceptionD2Ev
007301e0 T __ZN10__cxxabiv119__foreign_exceptionD1Ev
007301e0 T __ZN10__cxxabiv119__foreign_exceptionD2Ev
007301f0 t .text$_ZN10__cxxabiv120__si_class_type_infoD0Ev
007301f0 T __ZN10__cxxabiv120__si_class_type_infoD0Ev
00730220 t .text$_ZN10__cxxabiv120__si_class_type_infoD2Ev
00730220 T __ZN10__cxxabiv120__si_class_type_infoD1Ev
00730220 T __ZN10__cxxabiv120__si_class_type_infoD2Ev
00730230 t .text$_ZN10__cxxabiv121__vmi_class_type_infoD0Ev
00730230 T __ZN10__cxxabiv121__vmi_class_type_infoD0Ev
00730260 t .text$_ZN10__cxxabiv121__vmi_class_type_infoD2Ev
00730260 T __ZN10__cxxabiv121__vmi_class_type_infoD1Ev
00730260 T __ZN10__cxxabiv121__vmi_class_type_infoD2Ev
00730270 t .text$_ZN11AwardScreen14AddedToManagerEPN4Sexy13WidgetManagerE
00730270 T __ZN11AwardScreen14AddedToManagerEPN4Sexy13WidgetManagerE
00730280 t .text$_ZN11AwardScreen18RemovedFromManagerEPN4Sexy13WidgetManagerE
00730280 T __ZN11AwardScreen18RemovedFromManagerEPN4Sexy13WidgetManagerE
00730290 t .text$_ZN11AwardScreen6ResizeEiiii
00730290 T __ZN11AwardScreen6ResizeEiiii
007302a0 t .text$_ZN12_GLOBAL__N_117io_error_categoryD0Ev
007302a0 t __ZN12_GLOBAL__N_117io_error_categoryD0Ev
007302c0 t .text$_ZN12_GLOBAL__N_117io_error_categoryD2Ev
007302c0 t __ZN12_GLOBAL__N_117io_error_categoryD1Ev
007302c0 t __ZN12_GLOBAL__N_117io_error_categoryD2Ev
007302d0 t .text$_ZN12_GLOBAL__N_121system_error_categoryD0Ev
007302d0 t __ZN12_GLOBAL__N_121system_error_categoryD0Ev
007302e0 t .text$_ZN12_GLOBAL__N_121system_error_categoryD2Ev
007302e0 t __ZN12_GLOBAL__N_121system_error_categoryD1Ev
007302e0 t __ZN12_GLOBAL__N_121system_error_categoryD2Ev
007302f0 t .text$_ZN12_GLOBAL__N_122generic_error_categoryD0Ev
007302f0 t __ZN12_GLOBAL__N_122generic_error_categoryD0Ev
00730300 t .text$_ZN12_GLOBAL__N_122generic_error_categoryD2Ev
00730300 t __ZN12_GLOBAL__N_122generic_error_categoryD1Ev
00730300 t __ZN12_GLOBAL__N_122generic_error_categoryD2Ev
00730320 t .text$_ZN12_GLOBAL__N_14pool4freeEPv.constprop.0
00730320 t __ZN12_GLOBAL__N_14pool4freeEPv.constprop.0
00730420 t .text$_ZN12_GLOBAL__N_14pool8allocateEj.constprop.0
00730420 t __ZN12_GLOBAL__N_14pool8allocateEj.constprop.0
007304c0 t .text$_ZN12_GLOBAL__N_1L16get_locale_mutexEv
007304c0 t __ZN12_GLOBAL__N_1L16get_locale_mutexEv
00730540 t .text$_ZN12_GLOBAL__N_1L16init_static_condEv
00730540 t __ZN12_GLOBAL__N_1L16init_static_condEv
00730560 t .text$_ZN12_GLOBAL__N_1L4initEv
00730560 t __ZN12_GLOBAL__N_1L4initEv
00730580 t .text$_ZN13AlmanacDialog7KeyCharEc
00730580 T __ZN13AlmanacDialog7KeyCharEc
00730590 t .text$_ZN14CreditsOverlayD0Ev
00730590 T __ZN14CreditsOverlayD0Ev
007305c0 t .text$_ZN14CreditsOverlayD1Ev
007305c0 T __ZN14CreditsOverlayD1Ev
007305d0 t .text$_ZN14ImitaterDialog7MouseUpEiii
007305d0 T __ZN14ImitaterDialog7MouseUpEiii
007305e0 t .text$_ZN15ChallengeScreen7KeyCharEc
007305e0 T __ZN15ChallengeScreen7KeyCharEc
007305f0 t .text$_ZN15LawnStoneButtonD0Ev
007305f0 T __ZN15LawnStoneButtonD0Ev
00730620 t .text$_ZN15LawnStoneButtonD1Ev
00730620 T __ZN15LawnStoneButtonD1Ev
00730630 t .text$_ZN16PakInterfaceBase5FGetSEPwiP5PFILE
00730630 T __ZN16PakInterfaceBase5FGetSEPwiP5PFILE
00730640 t .text$_ZN16PakInterfaceBase5FOpenEPKwS1_
00730640 T __ZN16PakInterfaceBase5FOpenEPKwS1_
00730650 t .text$_ZN18StoreScreenOverlayD0Ev
00730650 T __ZN18StoreScreenOverlayD0Ev
00730680 t .text$_ZN18StoreScreenOverlayD1Ev
00730680 T __ZN18StoreScreenOverlayD1Ev
00730690 t .text$_ZN19DataReaderExceptionD0Ev
00730690 T __ZN19DataReaderExceptionD0Ev
007306c0 t .text$_ZN19DataReaderExceptionD1Ev
007306c0 T __ZN19DataReaderExceptionD1Ev
007306d0 t .text$_ZN19GameSelectorOverlayD0Ev
007306d0 T __ZN19GameSelectorOverlayD0Ev
00730700 t .text$_ZN19GameSelectorOverlayD1Ev
00730700 T __ZN19GameSelectorOverlayD1Ev
00730710 t .text$_ZN4Sexy10EditWidget7MouseUpEii
00730710 T __ZN4Sexy10EditWidget7MouseUpEii
00730720 t .text$_ZN4Sexy10EditWidget7MouseUpEiii
00730720 T __ZN4Sexy10EditWidget7MouseUpEiii
00730730 t .text$_ZN4Sexy10EditWidget9MouseDownEiii
00730730 T __ZN4Sexy10EditWidget9MouseDownEiii
00730740 t .text$_ZN4Sexy10ListWidget9MouseDownEiii
00730740 T __ZN4Sexy10ListWidget9MouseDownEiii
00730750 t .text$_ZN4Sexy10TextWidgetD0Ev
00730750 T __ZN4Sexy10TextWidgetD0Ev
00730850 t .text$_ZN4Sexy10TextWidgetD1Ev
00730850 T __ZN4Sexy10TextWidgetD1Ev
00730940 t .text$_ZN4Sexy10XMLElementD1Ev
00730940 T __ZN4Sexy10XMLElementD1Ev
00730a40 t .text$_ZN4Sexy12ButtonWidget7MouseUpEii
00730a40 T __ZN4Sexy12ButtonWidget7MouseUpEii
00730a50 t .text$_ZN4Sexy12ButtonWidget7MouseUpEiii
00730a50 T __ZN4Sexy12ButtonWidget7MouseUpEiii
00730a60 t .text$_ZN4Sexy12ButtonWidget9MouseDownEiii
00730a60 T __ZN4Sexy12ButtonWidget9MouseDownEiii
00730a70 t .text$_ZN4Sexy12CursorWidgetD0Ev
00730a70 T __ZN4Sexy12CursorWidgetD0Ev
00730aa0 t .text$_ZN4Sexy12CursorWidgetD1Ev
00730aa0 T __ZN4Sexy12CursorWidgetD1Ev
00730ab0 t .text$_ZN4Sexy12DialogButtonD0Ev
00730ab0 T __ZN4Sexy12DialogButtonD0Ev
00730ae0 t .text$_ZN4Sexy12DialogButtonD1Ev
00730ae0 T __ZN4Sexy12DialogButtonD1Ev
00730af0 t .text$_ZN4Sexy12EditListener14EditWidgetTextEiRKNSt7__cxx1112basic_stringIcSt11char_traitsIcESaIcEEE
00730af0 T __ZN4Sexy12EditListener14EditWidgetTextEiRKNSt7__cxx1112basic_stringIcSt11char_traitsIcESaIcEEE
00730b00 t .text$_ZN4Sexy12EditListener8AllowKeyEiNS_7KeyCodeE
00730b00 T __ZN4Sexy12EditListener8AllowKeyEiNS_7KeyCodeE
00730b10 t .text$_ZN4Sexy12EditListener9AllowCharEic
00730b10 T __ZN4Sexy12EditListener9AllowCharEic
00730b20 t .text$_ZN4Sexy12EditListener9AllowTextEiRKNSt7__cxx1112basic_stringIcSt11char_traitsIcESaIcEEE
00730b20 T __ZN4Sexy12EditListener9AllowTextEiRKNSt7__cxx1112basic_stringIcSt11char_traitsIcESaIcEEE
00730b30 t .text$_ZN4Sexy12ListListener10ListClosedEi
00730b30 T __ZN4Sexy12ListListener10ListClosedEi
00730b40 t .text$_ZN4Sexy12ListListener11ListClickedEiii
00730b40 T __ZN4Sexy12ListListener11ListClickedEiii
00730b50 t .text$_ZN4Sexy12ListListener17ListHiliteChangedEiii
00730b50 T __ZN4Sexy12ListListener17ListHiliteChangedEiii
00730b60 t .text$_ZN4Sexy14ButtonListener11ButtonPressEi
00730b60 T __ZN4Sexy14ButtonListener11ButtonPressEi
00730b70 t .text$_ZN4Sexy14ButtonListener11ButtonPressEii
00730b70 T __ZN4Sexy14ButtonListener11ButtonPressEii
00730b90 t .text$_ZN4Sexy14ButtonListener13ButtonDepressEi
00730b90 T __ZN4Sexy14ButtonListener13ButtonDepressEi
00730ba0 t .text$_ZN4Sexy14ButtonListener14ButtonDownTickEi
00730ba0 T __ZN4Sexy14ButtonListener14ButtonDownTickEi
00730bb0 t .text$_ZN4Sexy14ButtonListener15ButtonMouseMoveEiii
00730bb0 T __ZN4Sexy14ButtonListener15ButtonMouseMoveEiii
00730bc0 t .text$_ZN4Sexy14ButtonListener16ButtonMouseEnterEi
00730bc0 T __ZN4Sexy14ButtonListener16ButtonMouseEnterEi
00730bd0 t .text$_ZN4Sexy14ButtonListener16ButtonMouseLeaveEi
00730bd0 T __ZN4Sexy14ButtonListener16ButtonMouseLeaveEi
00730be0 t .text$_ZN4Sexy14ScrollListener14ScrollPositionEid
00730be0 T __ZN4Sexy14ScrollListener14ScrollPositionEid
00730bf0 t .text$_ZN4Sexy14SliderListener9SliderValEid
00730bf0 T __ZN4Sexy14SliderListener9SliderValEid
00730c00 t .text$_ZN4Sexy15HyperlinkWidgetD0Ev
00730c00 T __ZN4Sexy15HyperlinkWidgetD0Ev
00730c30 t .text$_ZN4Sexy15HyperlinkWidgetD1Ev
00730c30 T __ZN4Sexy15HyperlinkWidgetD1Ev
00730c40 t .text$_ZN4Sexy15ResourceManager7BaseRes14DeleteResourceEv
00730c40 T __ZN4Sexy15ResourceManager7BaseRes14DeleteResourceEv
00730c50 t .text$_ZN4Sexy15ResourceManager7BaseResD0Ev
00730c50 T __ZN4Sexy15ResourceManager7BaseResD0Ev
00730d30 t .text$_ZN4Sexy15ResourceManager7BaseResD1Ev
00730d30 T __ZN4Sexy15ResourceManager7BaseResD1Ev
00730e00 t .text$_ZN4Sexy15ResourceManager7BaseResD2Ev
00730e00 T __ZN4Sexy15ResourceManager7BaseResD2Ev
00730ed0 t .text$_ZN4Sexy15ResourceManager7FontResD0Ev
00730ed0 T __ZN4Sexy15ResourceManager7FontResD0Ev
00730ff0 t .text$_ZN4Sexy15ResourceManager7FontResD1Ev
00730ff0 T __ZN4Sexy15ResourceManager7FontResD1Ev
00731100 t .text$_ZN4Sexy15ResourceManager8ImageResD0Ev
00731100 T __ZN4Sexy15ResourceManager8ImageResD0Ev
00731240 t .text$_ZN4Sexy15ResourceManager8ImageResD1Ev
00731240 T __ZN4Sexy15ResourceManager8ImageResD1Ev
007313c0 t .text$_ZN4Sexy15ResourceManager8SoundResD0Ev
007313c0 T __ZN4Sexy15ResourceManager8SoundResD0Ev
007314a0 t .text$_ZN4Sexy15ResourceManager8SoundResD1Ev
007314a0 T __ZN4Sexy15ResourceManager8SoundResD1Ev
00731570 t .text$_ZN4Sexy15ScrollbarWidget7MouseUpEii
00731570 T __ZN4Sexy15ScrollbarWidget7MouseUpEii
00731580 t .text$_ZN4Sexy15ScrollbarWidget9MouseDownEiii
00731580 T __ZN4Sexy15ScrollbarWidget9MouseDownEiii
00731590 t .text$_ZN4Sexy16CheckboxListener15CheckboxCheckedEib
00731590 T __ZN4Sexy16CheckboxListener15CheckboxCheckedEib
007315a0 t .text$_ZN4Sexy24ResourceManagerExceptionC1ERKNSt7__cxx1112basic_stringIcSt11char_traitsIcESaIcEEE
007315a0 T __ZN4Sexy24ResourceManagerExceptionC1ERKNSt7__cxx1112basic_stringIcSt11char_traitsIcESaIcEEE
00731660 t .text$_ZN4Sexy24ResourceManagerExceptionD0Ev
00731660 T __ZN4Sexy24ResourceManagerExceptionD0Ev
007316b0 t .text$_ZN4Sexy24ResourceManagerExceptionD1Ev
007316b0 T __ZN4Sexy24ResourceManagerExceptionD1Ev
007316f0 t .text$_ZN4Sexy6Dialog7MouseUpEii
007316f0 T __ZN4Sexy6Dialog7MouseUpEii
00731700 t .text$_ZN4Sexy6Dialog7MouseUpEiii
00731700 T __ZN4Sexy6Dialog7MouseUpEiii
00731710 t .text$_ZN4Sexy6Dialog9MouseDownEiii
00731710 T __ZN4Sexy6Dialog9MouseDownEiii
00731720 t .text$_ZN4Sexy6SliderD0Ev
00731720 T __ZN4Sexy6SliderD0Ev
00731750 t .text$_ZN4Sexy6SliderD1Ev
00731750 T __ZN4Sexy6SliderD1Ev
00731760 t .text$_ZN4Sexy8Checkbox9MouseDownEiii
00731760 T __ZN4Sexy8Checkbox9MouseDownEiii
00731770 t .text$_ZN4Sexy8CheckboxD0Ev
00731770 T __ZN4Sexy8CheckboxD0Ev
007317a0 t .text$_ZN4Sexy8CheckboxD1Ev
007317a0 T __ZN4Sexy8CheckboxD1Ev
007317b0 t .text$_ZN4Sexy9D3DTester13TestExceptionC1ERKNSt7__cxx1112basic_stringIcSt11char_traitsIcESaIcEEE
007317b0 T __ZN4Sexy9D3DTester13TestExceptionC1ERKNSt7__cxx1112basic_stringIcSt11char_traitsIcESaIcEEE
00731870 t .text$_ZN4Sexy9D3DTester13TestExceptionD0Ev
00731870 T __ZN4Sexy9D3DTester13TestExceptionD0Ev
007318c0 t .text$_ZN4Sexy9D3DTester13TestExceptionD1Ev
007318c0 T __ZN4Sexy9D3DTester13TestExceptionD1Ev
00731900 t .text$_ZN4Sexy9FontLayerD1Ev
00731900 T __ZN4Sexy9FontLayerD1Ev
007319c0 t .text$_ZN5Board11ButtonPressEi
007319c0 T __ZN5Board11ButtonPressEi
007319d0 t .text$_ZN5Board16ButtonMouseEnterEi
007319d0 T __ZN5Board16ButtonMouseEnterEi
007319e0 t .text$_ZN5Board16ButtonMouseLeaveEi
007319e0 T __ZN5Board16ButtonMouseLeaveEi
007319f0 t .text$_ZN5Board5KeyUpEN4Sexy7KeyCodeE
007319f0 T __ZN5Board5KeyUpEN4Sexy7KeyCodeE
00731a00 t .text$_ZN7TodListI10ParticleIDE9RemoveAllEv
00731a00 T __ZN7TodListI10ParticleIDE9RemoveAllEv
00731a80 t .text$_ZN9__gnu_cxx15__concat_size_tEPcjj
00731a80 T __ZN9__gnu_cxx15__concat_size_tEPcjj
00731b40 t .text$_ZN9__gnu_cxx15__snprintf_liteEPcjPKcS0_
00731b40 T __ZN9__gnu_cxx15__snprintf_liteEPcjPKcS0_
00731c60 t .text$_ZN9__gnu_cxx24__concurrence_lock_errorD0Ev
00731c60 T __ZN9__gnu_cxx24__concurrence_lock_errorD0Ev
00731c90 t .text$_ZN9__gnu_cxx24__concurrence_lock_errorD1Ev
00731c90 T __ZN9__gnu_cxx24__concurrence_lock_errorD1Ev
00731ca0 t .text$_ZN9__gnu_cxx24__concurrence_wait_errorD0Ev
00731ca0 T __ZN9__gnu_cxx24__concurrence_wait_errorD0Ev
00731cd0 t .text$_ZN9__gnu_cxx24__concurrence_wait_errorD1Ev
00731cd0 T __ZN9__gnu_cxx24__concurrence_wait_errorD1Ev
00731ce0 t .text$_ZN9__gnu_cxx26__concurrence_unlock_errorD0Ev
00731ce0 T __ZN9__gnu_cxx26__concurrence_unlock_errorD0Ev
00731d10 t .text$_ZN9__gnu_cxx26__concurrence_unlock_errorD1Ev
00731d10 T __ZN9__gnu_cxx26__concurrence_unlock_errorD1Ev
00731d20 t .text$_ZN9__gnu_cxx27__verbose_terminate_handlerEv
00731d20 T __ZN9__gnu_cxx27__verbose_terminate_handlerEv
00731e80 t .text$_ZN9__gnu_cxx29__concurrence_broadcast_errorD0Ev
00731e80 T __ZN9__gnu_cxx29__concurrence_broadcast_errorD0Ev
00731eb0 t .text$_ZN9__gnu_cxx29__concurrence_broadcast_errorD1Ev
00731eb0 T __ZN9__gnu_cxx29__concurrence_broadcast_errorD1Ev
00731ec0 t .text$_ZN9__gnu_cxx30__throw_concurrence_lock_errorEv
00731ec0 T __ZN9__gnu_cxx30__throw_concurrence_lock_errorEv
00731ef0 t .text$_ZN9__gnu_cxx32__throw_concurrence_unlock_errorEv
00731ef0 T __ZN9__gnu_cxx32__throw_concurrence_unlock_errorEv
00731f20 t .text$_ZN9__gnu_cxx35__throw_concurrence_broadcast_errorEv
00731f20 T __ZN9__gnu_cxx35__throw_concurrence_broadcast_errorEv
00731f50 t .text$_ZN9__gnu_cxxeqIPKcNSt7__cxx1112basic_stringIcSt11char_traitsIcESaIcEEEEEbRKNS_17__normal_iteratorIT_T0_EESE_
00731f50 T __ZN9__gnu_cxxeqIPKcNSt7__cxx1112basic_stringIcSt11char_traitsIcESaIcEEEEEbRKNS_17__normal_iteratorIT_T0_EESE_
00731f60 t .text$_ZN9__gnu_cxxeqIPKcSsEEbRKNS_17__normal_iteratorIT_T0_EES8_
00731f60 T __ZN9__gnu_cxxeqIPKcSsEEbRKNS_17__normal_iteratorIT_T0_EES8_
00731f70 t .text$_ZN9__gnu_cxxeqIPKwNSt7__cxx1112basic_stringIwSt11char_traitsIwESaIwEEEEEbRKNS_17__normal_iteratorIT_T0_EESE_
00731f70 T __ZN9__gnu_cxxeqIPKwNSt7__cxx1112basic_stringIwSt11char_traitsIwESaIwEEEEEbRKNS_17__normal_iteratorIT_T0_EESE_
00731f80 t .text$_ZN9__gnu_cxxeqIPKwSbIwSt11char_traitsIwESaIwEEEEbRKNS_17__normal_iteratorIT_T0_EESC_
00731f80 T __ZN9__gnu_cxxeqIPKwSbIwSt11char_traitsIwESaIwEEEEbRKNS_17__normal_iteratorIT_T0_EESC_
00731f90 t .text$_ZN9__gnu_cxxeqIPcNSt7__cxx1112basic_stringIcSt11char_traitsIcESaIcEEEEEbRKNS_17__normal_iteratorIT_T0_EESD_
00731f90 T __ZN9__gnu_cxxeqIPcNSt7__cxx1112basic_stringIcSt11char_traitsIcESaIcEEEEEbRKNS_17__normal_iteratorIT_T0_EESD_
00731fa0 t .text$_ZN9__gnu_cxxeqIPcSsEEbRKNS_17__normal_iteratorIT_T0_EES7_
00731fa0 T __ZN9__gnu_cxxeqIPcSsEEbRKNS_17__normal_iteratorIT_T0_EES7_
00731fb0 t .text$_ZN9__gnu_cxxeqIPwNSt7__cxx1112basic_stringIwSt11char_traitsIwESaIwEEEEEbRKNS_17__normal_iteratorIT_T0_EESD_
00731fb0 T __ZN9__gnu_cxxeqIPwNSt7__cxx1112basic_stringIwSt11char_traitsIwESaIwEEEEEbRKNS_17__normal_iteratorIT_T0_EESD_
00731fc0 t .text$_ZN9__gnu_cxxeqIPwSbIwSt11char_traitsIwESaIwEEEEbRKNS_17__normal_iteratorIT_T0_EESB_
00731fc0 T __ZN9__gnu_cxxeqIPwSbIwSt11char_traitsIwESaIwEEEEbRKNS_17__normal_iteratorIT_T0_EESB_
00731fd0 t .text$_ZNK10__cxxabiv117__class_type_info10__do_catchEPKSt9type_infoPPvj
00731fd0 T __ZNK10__cxxabiv117__class_type_info10__do_catchEPKSt9type_infoPPvj
00732020 t .text$_ZNK10__cxxabiv117__class_type_info11__do_upcastEPKS0_PKvRNS0_15__upcast_resultE
00732020 T __ZNK10__cxxabiv117__class_type_info11__do_upcastEPKS0_PKvRNS0_15__upcast_resultE
00732060 t .text$_ZNK10__cxxabiv117__class_type_info11__do_upcastEPKS0_PPv
00732060 T __ZNK10__cxxabiv117__class_type_info11__do_upcastEPKS0_PPv
007320d0 t .text$_ZNK10__cxxabiv117__class_type_info12__do_dyncastEiNS0_10__sub_kindEPKS0_PKvS3_S5_RNS0_16__dyncast_resultE
007320d0 T __ZNK10__cxxabiv117__class_type_info12__do_dyncastEiNS0_10__sub_kindEPKS0_PKvS3_S5_RNS0_16__dyncast_resultE
00732140 t .text$_ZNK10__cxxabiv117__class_type_info20__do_find_public_srcEiPKvPKS0_S2_
00732140 T __ZNK10__cxxabiv117__class_type_info20__do_find_public_srcEiPKvPKS0_S2_
00732160 t .text$_ZNK10__cxxabiv120__si_class_type_info11__do_upcastEPKNS_17__class_type_infoEPKvRNS1_15__upcast_resultE
00732160 T __ZNK10__cxxabiv120__si_class_type_info11__do_upcastEPKNS_17__class_type_infoEPKvRNS1_15__upcast_resultE
007321c0 t .text$_ZNK10__cxxabiv120__si_class_type_info12__do_dyncastEiNS_17__class_type_info10__sub_kindEPKS1_PKvS4_S6_RNS1_16__dyncast_resultE
007321c0 T __ZNK10__cxxabiv120__si_class_type_info12__do_dyncastEiNS_17__class_type_info10__sub_kindEPKS1_PKvS4_S6_RNS1_16__dyncast_resultE
007322c0 t .text$_ZNK10__cxxabiv120__si_class_type_info20__do_find_public_srcEiPKvPKNS_17__class_type_infoES2_
007322c0 T __ZNK10__cxxabiv120__si_class_type_info20__do_find_public_srcEiPKvPKNS_17__class_type_infoES2_
00732340 t .text$_ZNK10__cxxabiv121__vmi_class_type_info11__do_upcastEPKNS_17__class_type_infoEPKvRNS1_15__upcast_resultE
00732340 T __ZNK10__cxxabiv121__vmi_class_type_info11__do_upcastEPKNS_17__class_type_infoEPKvRNS1_15__upcast_resultE
007325c0 t .text$_ZNK10__cxxabiv121__vmi_class_type_info12__do_dyncastEiNS_17__class_type_info10__sub_kindEPKS1_PKvS4_S6_RNS1_16__dyncast_resultE
007325c0 T __ZNK10__cxxabiv121__vmi_class_type_info12__do_dyncastEiNS_17__class_type_info10__sub_kindEPKS1_PKvS4_S6_RNS1_16__dyncast_resultE
00732d50 t .text$_ZNK10__cxxabiv121__vmi_class_type_info20__do_find_public_srcEiPKvPKNS_17__class_type_infoES2_
00732d50 T __ZNK10__cxxabiv121__vmi_class_type_info20__do_find_public_srcEiPKvPKNS_17__class_type_infoES2_
00732e30 t .text$_ZNK12_GLOBAL__N_117io_error_category4nameEv
00732e30 t __ZNK12_GLOBAL__N_117io_error_category4nameEv
00732e40 t .text$_ZNK12_GLOBAL__N_117io_error_category7messageB5cxx11Ei
00732e40 t __ZNK12_GLOBAL__N_117io_error_category7messageB5cxx11Ei
00732ed0 t .text$_ZNK12_GLOBAL__N_121system_error_category10equivalentEiRKSt15error_condition
00732ed0 t __ZNK12_GLOBAL__N_121system_error_category10equivalentEiRKSt15error_condition
00732f10 t .text$_ZNK12_GLOBAL__N_121system_error_category23default_error_conditionEi
00732f10 t __ZNK12_GLOBAL__N_121system_error_category23default_error_conditionEi
00733310 t .text$_ZNK12_GLOBAL__N_121system_error_category4nameEv
00733310 t __ZNK12_GLOBAL__N_121system_error_category4nameEv
00733320 t .text$_ZNK12_GLOBAL__N_121system_error_category7messageB5cxx11Ei
00733320 t __ZNK12_GLOBAL__N_121system_error_category7messageB5cxx11Ei
00733400 t .text$_ZNK12_GLOBAL__N_122generic_error_category10equivalentEiRKSt15error_condition
00733400 t __ZNK12_GLOBAL__N_122generic_error_category10equivalentEiRKSt15error_condition
00733420 t .text$_ZNK12_GLOBAL__N_122generic_error_category4nameEv
00733420 t __ZNK12_GLOBAL__N_122generic_error_category4nameEv
00733430 t .text$_ZNK12_GLOBAL__N_122generic_error_category7messageB5cxx11Ei
00733430 t __ZNK12_GLOBAL__N_122generic_error_category7messageB5cxx11Ei
007334a0 t .text$_ZNK9__gnu_cxx24__concurrence_lock_error4whatEv
007334a0 T __ZNK9__gnu_cxx24__concurrence_lock_error4whatEv
007334b0 t .text$_ZNK9__gnu_cxx24__concurrence_wait_error4whatEv
007334b0 T __ZNK9__gnu_cxx24__concurrence_wait_error4whatEv
007334c0 t .text$_ZNK9__gnu_cxx26__concurrence_unlock_error4whatEv
007334c0 T __ZNK9__gnu_cxx26__concurrence_unlock_error4whatEv
007334d0 t .text$_ZNK9__gnu_cxx29__concurrence_broadcast_error4whatEv
007334d0 T __ZNK9__gnu_cxx29__concurrence_broadcast_error4whatEv
007334e0 t .text$_ZNKSbIwSt11char_traitsIwESaIwEE11_M_disjunctEPKw
007334e0 T __ZNKSbIwSt11char_traitsIwESaIwEE11_M_disjunctEPKw
00733500 t .text$_ZNKSbIwSt11char_traitsIwESaIwEE12find_last_ofEPKwj
00733500 T __ZNKSbIwSt11char_traitsIwESaIwEE12find_last_ofEPKwj
00733540 t .text$_ZNKSbIwSt11char_traitsIwESaIwEE12find_last_ofEPKwjj
00733540 T __ZNKSbIwSt11char_traitsIwESaIwEE12find_last_ofEPKwjj
007335c0 t .text$_ZNKSbIwSt11char_traitsIwESaIwEE12find_last_ofERKS2_j
007335c0 T __ZNKSbIwSt11char_traitsIwESaIwEE12find_last_ofERKS2_j
007335f0 t .text$_ZNKSbIwSt11char_traitsIwESaIwEE12find_last_ofEwj
007335f0 T __ZNKSbIwSt11char_traitsIwESaIwEE12find_last_ofEwj
00733600 t .text$_ZNKSbIwSt11char_traitsIwESaIwEE13find_first_ofEPKwj
00733600 T __ZNKSbIwSt11char_traitsIwESaIwEE13find_first_ofEPKwj
00733640 t .text$_ZNKSbIwSt11char_traitsIwESaIwEE13find_first_ofEPKwjj
00733640 T __ZNKSbIwSt11char_traitsIwESaIwEE13find_first_ofEPKwjj
007336b0 t .text$_ZNKSbIwSt11char_traitsIwESaIwEE13find_first_ofERKS2_j
007336b0 T __ZNKSbIwSt11char_traitsIwESaIwEE13find_first_ofERKS2_j
007336e0 t .text$_ZNKSbIwSt11char_traitsIwESaIwEE13find_first_ofEwj
007336e0 T __ZNKSbIwSt11char_traitsIwESaIwEE13find_first_ofEwj
007336f0 t .text$_ZNKSbIwSt11char_traitsIwESaIwEE13get_allocatorEv
007336f0 T __ZNKSbIwSt11char_traitsIwESaIwEE13get_allocatorEv
00733700 t .text$_ZNKSbIwSt11char_traitsIwESaIwEE15_M_check_lengthEjjPKc
00733700 T __ZNKSbIwSt11char_traitsIwESaIwEE15_M_check_lengthEjjPKc
00733730 t .text$_ZNKSbIwSt11char_traitsIwESaIwEE16find_last_not_ofEPKwj
00733730 T __ZNKSbIwSt11char_traitsIwESaIwEE16find_last_not_ofEPKwj
00733770 t .text$_ZNKSbIwSt11char_traitsIwESaIwEE16find_last_not_ofEPKwjj
00733770 T __ZNKSbIwSt11char_traitsIwESaIwEE16find_last_not_ofEPKwjj
007337f0 t .text$_ZNKSbIwSt11char_traitsIwESaIwEE16find_last_not_ofERKS2_j
007337f0 T __ZNKSbIwSt11char_traitsIwESaIwEE16find_last_not_ofERKS2_j
00733820 t .text$_ZNKSbIwSt11char_traitsIwESaIwEE16find_last_not_ofEwj
00733820 T __ZNKSbIwSt11char_traitsIwESaIwEE16find_last_not_ofEwj
00733860 t .text$_ZNKSbIwSt11char_traitsIwESaIwEE17find_first_not_ofEPKwj
00733860 T __ZNKSbIwSt11char_traitsIwESaIwEE17find_first_not_ofEPKwj
007338a0 t .text$_ZNKSbIwSt11char_traitsIwESaIwEE17find_first_not_ofEPKwjj
007338a0 T __ZNKSbIwSt11char_traitsIwESaIwEE17find_first_not_ofEPKwjj
00733920 t .text$_ZNKSbIwSt11char_traitsIwESaIwEE17find_first_not_ofERKS2_j
00733920 T __ZNKSbIwSt11char_traitsIwESaIwEE17find_first_not_ofERKS2_j
00733950 t .text$_ZNKSbIwSt11char_traitsIwESaIwEE17find_first_not_ofEwj
00733950 T __ZNKSbIwSt11char_traitsIwESaIwEE17find_first_not_ofEwj
007339a0 t .text$_ZNKSbIwSt11char_traitsIwESaIwEE2atEj
007339a0 T __ZNKSbIwSt11char_traitsIwESaIwEE2atEj
007339d0 t .text$_ZNKSbIwSt11char_traitsIwESaIwEE3endEv
007339d0 T __ZNKSbIwSt11char_traitsIwESaIwEE3endEv
007339e0 t .text$_ZNKSbIwSt11char_traitsIwESaIwEE4_Rep12_M_is_leakedEv
007339e0 T __ZNKSbIwSt11char_traitsIwESaIwEE4_Rep12_M_is_leakedEv
007339f0 t .text$_ZNKSbIwSt11char_traitsIwESaIwEE4_Rep12_M_is_sharedEv
007339f0 T __ZNKSbIwSt11char_traitsIwESaIwEE4_Rep12_M_is_sharedEv
00733a00 t .text$_ZNKSbIwSt11char_traitsIwESaIwEE4backEv
00733a00 T __ZNKSbIwSt11char_traitsIwESaIwEE4backEv
00733a10 t .text$_ZNKSbIwSt11char_traitsIwESaIwEE4cendEv
00733a10 T __ZNKSbIwSt11char_traitsIwESaIwEE4cendEv
00733a20 t .text$_ZNKSbIwSt11char_traitsIwESaIwEE4copyEPwjj
00733a20 T __ZNKSbIwSt11char_traitsIwESaIwEE4copyEPwjj
00733aa0 t .text$_ZNKSbIwSt11char_traitsIwESaIwEE4dataEv
00733aa0 T __ZNKSbIwSt11char_traitsIwESaIwEE4dataEv
00733ab0 t .text$_ZNKSbIwSt11char_traitsIwESaIwEE4findEPKwj
00733ab0 T __ZNKSbIwSt11char_traitsIwESaIwEE4findEPKwj
00733af0 t .text$_ZNKSbIwSt11char_traitsIwESaIwEE4findEPKwjj
00733af0 T __ZNKSbIwSt11char_traitsIwESaIwEE4findEPKwjj
00733bd0 t .text$_ZNKSbIwSt11char_traitsIwESaIwEE4findERKS2_j
00733bd0 T __ZNKSbIwSt11char_traitsIwESaIwEE4findERKS2_j
00733c00 t .text$_ZNKSbIwSt11char_traitsIwESaIwEE4findEwj
00733c00 T __ZNKSbIwSt11char_traitsIwESaIwEE4findEwj
00733c60 t .text$_ZNKSbIwSt11char_traitsIwESaIwEE4rendEv
00733c60 T __ZNKSbIwSt11char_traitsIwESaIwEE4rendEv
00733c70 t .text$_ZNKSbIwSt11char_traitsIwESaIwEE4sizeEv
00733c70 T __ZNKSbIwSt11char_traitsIwESaIwEE4sizeEv
00733c80 t .text$_ZNKSbIwSt11char_traitsIwESaIwEE5beginEv
00733c80 T __ZNKSbIwSt11char_traitsIwESaIwEE5beginEv
00733c90 t .text$_ZNKSbIwSt11char_traitsIwESaIwEE5c_strEv
00733c90 T __ZNKSbIwSt11char_traitsIwESaIwEE5c_strEv
00733ca0 t .text$_ZNKSbIwSt11char_traitsIwESaIwEE5crendEv
00733ca0 T __ZNKSbIwSt11char_traitsIwESaIwEE5crendEv
00733cb0 t .text$_ZNKSbIwSt11char_traitsIwESaIwEE5emptyEv
00733cb0 T __ZNKSbIwSt11char_traitsIwESaIwEE5emptyEv
00733cc0 t .text$_ZNKSbIwSt11char_traitsIwESaIwEE5frontEv
00733cc0 T __ZNKSbIwSt11char_traitsIwESaIwEE5frontEv
00733cd0 t .text$_ZNKSbIwSt11char_traitsIwESaIwEE5rfindEPKwj
00733cd0 T __ZNKSbIwSt11char_traitsIwESaIwEE5rfindEPKwj
00733d20 t .text$_ZNKSbIwSt11char_traitsIwESaIwEE5rfindEPKwjj
00733d20 T __ZNKSbIwSt11char_traitsIwESaIwEE5rfindEPKwjj
00733dc0 t .text$_ZNKSbIwSt11char_traitsIwESaIwEE5rfindERKS2_j
00733dc0 T __ZNKSbIwSt11char_traitsIwESaIwEE5rfindERKS2_j
00733df0 t .text$_ZNKSbIwSt11char_traitsIwESaIwEE5rfindEwj
00733df0 T __ZNKSbIwSt11char_traitsIwESaIwEE5rfindEwj
00733e40 t .text$_ZNKSbIwSt11char_traitsIwESaIwEE6_M_repEv
00733e40 T __ZNKSbIwSt11char_traitsIwESaIwEE6_M_repEv
00733e50 t .text$_ZNKSbIwSt11char_traitsIwESaIwEE6cbeginEv
00733e50 T __ZNKSbIwSt11char_traitsIwESaIwEE6cbeginEv
00733e60 t .text$_ZNKSbIwSt11char_traitsIwESaIwEE6lengthEv
00733e60 T __ZNKSbIwSt11char_traitsIwESaIwEE6lengthEv
00733e70 t .text$_ZNKSbIwSt11char_traitsIwESaIwEE6rbeginEv
00733e70 T __ZNKSbIwSt11char_traitsIwESaIwEE6rbeginEv
00733e90 t .text$_ZNKSbIwSt11char_traitsIwESaIwEE6substrEjj
00733e90 T __ZNKSbIwSt11char_traitsIwESaIwEE6substrEjj
00733ef0 t .text$_ZNKSbIwSt11char_traitsIwESaIwEE7_M_dataEv
00733ef0 T __ZNKSbIwSt11char_traitsIwESaIwEE7_M_dataEv
00733f00 t .text$_ZNKSbIwSt11char_traitsIwESaIwEE7_M_iendEv
00733f00 T __ZNKSbIwSt11char_traitsIwESaIwEE7_M_iendEv
00733f20 t .text$_ZNKSbIwSt11char_traitsIwESaIwEE7compareEPKw
00733f20 T __ZNKSbIwSt11char_traitsIwESaIwEE7compareEPKw
00733fc0 t .text$_ZNKSbIwSt11char_traitsIwESaIwEE7compareERKS2_
00733fc0 T __ZNKSbIwSt11char_traitsIwESaIwEE7compareERKS2_
00734020 t .text$_ZNKSbIwSt11char_traitsIwESaIwEE7compareEjjPKw
00734020 T __ZNKSbIwSt11char_traitsIwESaIwEE7compareEjjPKw
00734100 t .text$_ZNKSbIwSt11char_traitsIwESaIwEE7compareEjjPKwj
00734100 T __ZNKSbIwSt11char_traitsIwESaIwEE7compareEjjPKwj
007341c0 t .text$_ZNKSbIwSt11char_traitsIwESaIwEE7compareEjjRKS2_
007341c0 T __ZNKSbIwSt11char_traitsIwESaIwEE7compareEjjRKS2_
00734260 t .text$_ZNKSbIwSt11char_traitsIwESaIwEE7compareEjjRKS2_jj
00734260 T __ZNKSbIwSt11char_traitsIwESaIwEE7compareEjjRKS2_jj
00734340 t .text$_ZNKSbIwSt11char_traitsIwESaIwEE7crbeginEv
00734340 T __ZNKSbIwSt11char_traitsIwESaIwEE7crbeginEv
00734360 t .text$_ZNKSbIwSt11char_traitsIwESaIwEE8_M_checkEjPKc
00734360 T __ZNKSbIwSt11char_traitsIwESaIwEE8_M_checkEjPKc
007343a0 t .text$_ZNKSbIwSt11char_traitsIwESaIwEE8_M_limitEjj
007343a0 T __ZNKSbIwSt11char_traitsIwESaIwEE8_M_limitEjj
007343c0 t .text$_ZNKSbIwSt11char_traitsIwESaIwEE8capacityEv
007343c0 T __ZNKSbIwSt11char_traitsIwESaIwEE8capacityEv
007343d0 t .text$_ZNKSbIwSt11char_traitsIwESaIwEE8max_sizeEv
007343d0 T __ZNKSbIwSt11char_traitsIwESaIwEE8max_sizeEv
007343e0 t .text$_ZNKSbIwSt11char_traitsIwESaIwEE9_M_ibeginEv
007343e0 T __ZNKSbIwSt11char_traitsIwESaIwEE9_M_ibeginEv
007343f0 t .text$_ZNKSbIwSt11char_traitsIwESaIwEEixEj
007343f0 T __ZNKSbIwSt11char_traitsIwESaIwEEixEj
00734400 t .text$_ZNKSi6gcountEv
00734400 T __ZNKSi6gcountEv
00734410 t .text$_ZNKSi6sentrycvbEv
00734410 T __ZNKSi6sentrycvbEv
00734420 t .text$_ZNKSo6sentrycvbEv
00734420 T __ZNKSo6sentrycvbEv
00734430 t .text$_ZNKSs11_M_disjunctEPKc
00734430 T __ZNKSs11_M_disjunctEPKc
00734450 t .text$_ZNKSs12find_last_ofEPKcj
00734450 T __ZNKSs12find_last_ofEPKcj
00734490 t .text$_ZNKSs12find_last_ofEPKcjj
00734490 T __ZNKSs12find_last_ofEPKcjj
00734510 t .text$_ZNKSs12find_last_ofERKSsj
00734510 T __ZNKSs12find_last_ofERKSsj
00734540 t .text$_ZNKSs12find_last_ofEcj
00734540 T __ZNKSs12find_last_ofEcj
00734550 t .text$_ZNKSs13find_first_ofEPKcj
00734550 T __ZNKSs13find_first_ofEPKcj
00734590 t .text$_ZNKSs13find_first_ofEPKcjj
00734590 T __ZNKSs13find_first_ofEPKcjj
00734600 t .text$_ZNKSs13find_first_ofERKSsj
00734600 T __ZNKSs13find_first_ofERKSsj
00734630 t .text$_ZNKSs13find_first_ofEcj
00734630 T __ZNKSs13find_first_ofEcj
00734640 t .text$_ZNKSs13get_allocatorEv
00734640 T __ZNKSs13get_allocatorEv
00734650 t .text$_ZNKSs15_M_check_lengthEjjPKc
00734650 T __ZNKSs15_M_check_lengthEjjPKc
00734680 t .text$_ZNKSs16find_last_not_ofEPKcj
00734680 T __ZNKSs16find_last_not_ofEPKcj
007346c0 t .text$_ZNKSs16find_last_not_ofEPKcjj
007346c0 T __ZNKSs16find_last_not_ofEPKcjj
00734730 t .text$_ZNKSs16find_last_not_ofERKSsj
00734730 T __ZNKSs16find_last_not_ofERKSsj
00734760 t .text$_ZNKSs16find_last_not_ofEcj
00734760 T __ZNKSs16find_last_not_ofEcj
007347a0 t .text$_ZNKSs17find_first_not_ofEPKcj
007347a0 T __ZNKSs17find_first_not_ofEPKcj
007347e0 t .text$_ZNKSs17find_first_not_ofEPKcjj
007347e0 T __ZNKSs17find_first_not_ofEPKcjj
00734850 t .text$_ZNKSs17find_first_not_ofERKSsj
00734850 T __ZNKSs17find_first_not_ofERKSsj
00734880 t .text$_ZNKSs17find_first_not_ofEcj
00734880 T __ZNKSs17find_first_not_ofEcj
007348c0 t .text$_ZNKSs2atEj
007348c0 T __ZNKSs2atEj
007348f0 t .text$_ZNKSs3endEv
007348f0 T __ZNKSs3endEv
00734900 t .text$_ZNKSs4_Rep12_M_is_leakedEv
00734900 T __ZNKSs4_Rep12_M_is_leakedEv
00734910 t .text$_ZNKSs4_Rep12_M_is_sharedEv
00734910 T __ZNKSs4_Rep12_M_is_sharedEv
00734920 t .text$_ZNKSs4backEv
00734920 T __ZNKSs4backEv
00734930 t .text$_ZNKSs4cendEv
00734930 T __ZNKSs4cendEv
00734940 t .text$_ZNKSs4copyEPcjj
00734940 T __ZNKSs4copyEPcjj
007349c0 t .text$_ZNKSs4dataEv
007349c0 T __ZNKSs4dataEv
007349d0 t .text$_ZNKSs4findEPKcj
007349d0 T __ZNKSs4findEPKcj
00734a10 t .text$_ZNKSs4findEPKcjj
00734a10 T __ZNKSs4findEPKcjj
00734ad0 t .text$_ZNKSs4findERKSsj
00734ad0 T __ZNKSs4findERKSsj
00734b00 t .text$_ZNKSs4findEcj
00734b00 T __ZNKSs4findEcj
00734b50 t .text$_ZNKSs4rendEv
00734b50 T __ZNKSs4rendEv
00734b60 t .text$_ZNKSs4sizeEv
00734b60 T __ZNKSs4sizeEv
00734b70 t .text$_ZNKSs5beginEv
00734b70 T __ZNKSs5beginEv
00734b80 t .text$_ZNKSs5c_strEv
00734b80 T __ZNKSs5c_strEv
00734b90 t .text$_ZNKSs5crendEv
00734b90 T __ZNKSs5crendEv
00734ba0 t .text$_ZNKSs5emptyEv
00734ba0 T __ZNKSs5emptyEv
00734bb0 t .text$_ZNKSs5frontEv
00734bb0 T __ZNKSs5frontEv
00734bc0 t .text$_ZNKSs5rfindEPKcj
00734bc0 T __ZNKSs5rfindEPKcj
00734c00 t .text$_ZNKSs5rfindEPKcjj
00734c00 T __ZNKSs5rfindEPKcjj
00734c70 t .text$_ZNKSs5rfindERKSsj
00734c70 T __ZNKSs5rfindERKSsj
00734ca0 t .text$_ZNKSs5rfindEcj
00734ca0 T __ZNKSs5rfindEcj
00734cf0 t .text$_ZNKSs6_M_repEv
00734cf0 T __ZNKSs6_M_repEv
00734d00 t .text$_ZNKSs6cbeginEv
00734d00 T __ZNKSs6cbeginEv
00734d10 t .text$_ZNKSs6lengthEv
00734d10 T __ZNKSs6lengthEv
00734d20 t .text$_ZNKSs6rbeginEv
00734d20 T __ZNKSs6rbeginEv
00734d30 t .text$_ZNKSs6substrEjj
00734d30 T __ZNKSs6substrEjj
00734d90 t .text$_ZNKSs7_M_dataEv
00734d90 T __ZNKSs7_M_dataEv
00734da0 t .text$_ZNKSs7_M_iendEv
00734da0 T __ZNKSs7_M_iendEv
00734db0 t .text$_ZNKSs7compareEPKc
00734db0 T __ZNKSs7compareEPKc
00734e00 t .text$_ZNKSs7compareERKSs
00734e00 T __ZNKSs7compareERKSs
00734e40 t .text$_ZNKSs7compareEjjPKc
00734e40 T __ZNKSs7compareEjjPKc
00734ec0 t .text$_ZNKSs7compareEjjPKcj
00734ec0 T __ZNKSs7compareEjjPKcj
00734f30 t .text$_ZNKSs7compareEjjRKSs
00734f30 T __ZNKSs7compareEjjRKSs
00734fb0 t .text$_ZNKSs7compareEjjRKSsjj
00734fb0 T __ZNKSs7compareEjjRKSsjj
00735060 t .text$_ZNKSs7crbeginEv
00735060 T __ZNKSs7crbeginEv
00735070 t .text$_ZNKSs8_M_checkEjPKc
00735070 T __ZNKSs8_M_checkEjPKc
007350b0 t .text$_ZNKSs8_M_limitEjj
007350b0 T __ZNKSs8_M_limitEjj
007350d0 t .text$_ZNKSs8capacityEv
007350d0 T __ZNKSs8capacityEv
007350e0 t .text$_ZNKSs8max_sizeEv
007350e0 T __ZNKSs8max_sizeEv
007350f0 t .text$_ZNKSs9_M_ibeginEv
007350f0 T __ZNKSs9_M_ibeginEv
00735100 t .text$_ZNKSsixEj
00735100 T __ZNKSsixEj
00735110 t .text$_ZNKSt10bad_typeid4whatEv
00735110 T __ZNKSt10bad_typeid4whatEv
00735120 t .text$_ZNKSt10error_code23default_error_conditionEv
00735120 T __ZNKSt10error_code23default_error_conditionEv
00735140 t .text$_ZNKSt10moneypunctIcLb0EE10neg_formatEv
00735140 T __ZNKSt10moneypunctIcLb0EE10neg_formatEv
00735160 t .text$_ZNKSt10moneypunctIcLb0EE10pos_formatEv
00735160 T __ZNKSt10moneypunctIcLb0EE10pos_formatEv
00735180 t .text$_ZNKSt10moneypunctIcLb0EE11curr_symbolEv
00735180 T __ZNKSt10moneypunctIcLb0EE11curr_symbolEv
007351f0 t .text$_ZNKSt10moneypunctIcLb0EE11do_groupingEv
007351f0 T __ZNKSt10moneypunctIcLb0EE11do_groupingEv
00735230 t .text$_ZNKSt10moneypunctIcLb0EE11frac_digitsEv
00735230 T __ZNKSt10moneypunctIcLb0EE11frac_digitsEv
00735250 t .text$_ZNKSt10moneypunctIcLb0EE13decimal_pointEv
00735250 T __ZNKSt10moneypunctIcLb0EE13decimal_pointEv
00735270 t .text$_ZNKSt10moneypunctIcLb0EE13do_neg_formatEv
00735270 T __ZNKSt10moneypunctIcLb0EE13do_neg_formatEv
00735280 t .text$_ZNKSt10moneypunctIcLb0EE13do_pos_formatEv
00735280 T __ZNKSt10moneypunctIcLb0EE13do_pos_formatEv
00735290 t .text$_ZNKSt10moneypunctIcLb0EE13negative_signEv
00735290 T __ZNKSt10moneypunctIcLb0EE13negative_signEv
00735300 t .text$_ZNKSt10moneypunctIcLb0EE13positive_signEv
00735300 T __ZNKSt10moneypunctIcLb0EE13positive_signEv
00735370 t .text$_ZNKSt10moneypunctIcLb0EE13thousands_sepEv
00735370 T __ZNKSt10moneypunctIcLb0EE13thousands_sepEv
00735390 t .text$_ZNKSt10moneypunctIcLb0EE14do_curr_symbolEv
00735390 T __ZNKSt10moneypunctIcLb0EE14do_curr_symbolEv
007353d0 t .text$_ZNKSt10moneypunctIcLb0EE14do_frac_digitsEv
007353d0 T __ZNKSt10moneypunctIcLb0EE14do_frac_digitsEv
007353e0 t .text$_ZNKSt10moneypunctIcLb0EE16do_decimal_pointEv
007353e0 T __ZNKSt10moneypunctIcLb0EE16do_decimal_pointEv
007353f0 t .text$_ZNKSt10moneypunctIcLb0EE16do_negative_signEv
007353f0 T __ZNKSt10moneypunctIcLb0EE16do_negative_signEv
00735430 t .text$_ZNKSt10moneypunctIcLb0EE16do_positive_signEv
00735430 T __ZNKSt10moneypunctIcLb0EE16do_positive_signEv
00735470 t .text$_ZNKSt10moneypunctIcLb0EE16do_thousands_sepEv
00735470 T __ZNKSt10moneypunctIcLb0EE16do_thousands_sepEv
00735480 t .text$_ZNKSt10moneypunctIcLb0EE8groupingEv
00735480 T __ZNKSt10moneypunctIcLb0EE8groupingEv
007354f0 t .text$_ZNKSt10moneypunctIcLb1EE10neg_formatEv
007354f0 T __ZNKSt10moneypunctIcLb1EE10neg_formatEv
00735510 t .text$_ZNKSt10moneypunctIcLb1EE10pos_formatEv
00735510 T __ZNKSt10moneypunctIcLb1EE10pos_formatEv
00735530 t .text$_ZNKSt10moneypunctIcLb1EE11curr_symbolEv
00735530 T __ZNKSt10moneypunctIcLb1EE11curr_symbolEv
007355a0 t .text$_ZNKSt10moneypunctIcLb1EE11do_groupingEv
007355a0 T __ZNKSt10moneypunctIcLb1EE11do_groupingEv
007355e0 t .text$_ZNKSt10moneypunctIcLb1EE11frac_digitsEv
007355e0 T __ZNKSt10moneypunctIcLb1EE11frac_digitsEv
00735600 t .text$_ZNKSt10moneypunctIcLb1EE13decimal_pointEv
00735600 T __ZNKSt10moneypunctIcLb1EE13decimal_pointEv
00735620 t .text$_ZNKSt10moneypunctIcLb1EE13do_neg_formatEv
00735620 T __ZNKSt10moneypunctIcLb1EE13do_neg_formatEv
00735630 t .text$_ZNKSt10moneypunctIcLb1EE13do_pos_formatEv
00735630 T __ZNKSt10moneypunctIcLb1EE13do_pos_formatEv
00735640 t .text$_ZNKSt10moneypunctIcLb1EE13negative_signEv
00735640 T __ZNKSt10moneypunctIcLb1EE13negative_signEv
007356b0 t .text$_ZNKSt10moneypunctIcLb1EE13positive_signEv
007356b0 T __ZNKSt10moneypunctIcLb1EE13positive_signEv
00735720 t .text$_ZNKSt10moneypunctIcLb1EE13thousands_sepEv
00735720 T __ZNKSt10moneypunctIcLb1EE13thousands_sepEv
00735740 t .text$_ZNKSt10moneypunctIcLb1EE14do_curr_symbolEv
00735740 T __ZNKSt10moneypunctIcLb1EE14do_curr_symbolEv
00735780 t .text$_ZNKSt10moneypunctIcLb1EE14do_frac_digitsEv
00735780 T __ZNKSt10moneypunctIcLb1EE14do_frac_digitsEv
00735790 t .text$_ZNKSt10moneypunctIcLb1EE16do_decimal_pointEv
00735790 T __ZNKSt10moneypunctIcLb1EE16do_decimal_pointEv
007357a0 t .text$_ZNKSt10moneypunctIcLb1EE16do_negative_signEv
007357a0 T __ZNKSt10moneypunctIcLb1EE16do_negative_signEv
007357e0 t .text$_ZNKSt10moneypunctIcLb1EE16do_positive_signEv
007357e0 T __ZNKSt10moneypunctIcLb1EE16do_positive_signEv
00735820 t .text$_ZNKSt10moneypunctIcLb1EE16do_thousands_sepEv
00735820 T __ZNKSt10moneypunctIcLb1EE16do_thousands_sepEv
00735830 t .text$_ZNKSt10moneypunctIcLb1EE8groupingEv
00735830 T __ZNKSt10moneypunctIcLb1EE8groupingEv
007358a0 t .text$_ZNKSt10moneypunctIwLb0EE10neg_formatEv
007358a0 T __ZNKSt10moneypunctIwLb0EE10neg_formatEv
007358c0 t .text$_ZNKSt10moneypunctIwLb0EE10pos_formatEv
007358c0 T __ZNKSt10moneypunctIwLb0EE10pos_formatEv
007358e0 t .text$_ZNKSt10moneypunctIwLb0EE11curr_symbolEv
007358e0 T __ZNKSt10moneypunctIwLb0EE11curr_symbolEv
00735950 t .text$_ZNKSt10moneypunctIwLb0EE11do_groupingEv
00735950 T __ZNKSt10moneypunctIwLb0EE11do_groupingEv
00735990 t .text$_ZNKSt10moneypunctIwLb0EE11frac_digitsEv
00735990 T __ZNKSt10moneypunctIwLb0EE11frac_digitsEv
007359b0 t .text$_ZNKSt10moneypunctIwLb0EE13decimal_pointEv
007359b0 T __ZNKSt10moneypunctIwLb0EE13decimal_pointEv
007359d0 t .text$_ZNKSt10moneypunctIwLb0EE13do_neg_formatEv
007359d0 T __ZNKSt10moneypunctIwLb0EE13do_neg_formatEv
007359e0 t .text$_ZNKSt10moneypunctIwLb0EE13do_pos_formatEv
007359e0 T __ZNKSt10moneypunctIwLb0EE13do_pos_formatEv
007359f0 t .text$_ZNKSt10moneypunctIwLb0EE13negative_signEv
007359f0 T __ZNKSt10moneypunctIwLb0EE13negative_signEv
00735a60 t .text$_ZNKSt10moneypunctIwLb0EE13positive_signEv
00735a60 T __ZNKSt10moneypunctIwLb0EE13positive_signEv
00735ad0 t .text$_ZNKSt10moneypunctIwLb0EE13thousands_sepEv
00735ad0 T __ZNKSt10moneypunctIwLb0EE13thousands_sepEv
00735af0 t .text$_ZNKSt10moneypunctIwLb0EE14do_curr_symbolEv
00735af0 T __ZNKSt10moneypunctIwLb0EE14do_curr_symbolEv
00735b30 t .text$_ZNKSt10moneypunctIwLb0EE14do_frac_digitsEv
00735b30 T __ZNKSt10moneypunctIwLb0EE14do_frac_digitsEv
00735b40 t .text$_ZNKSt10moneypunctIwLb0EE16do_decimal_pointEv
00735b40 T __ZNKSt10moneypunctIwLb0EE16do_decimal_pointEv
00735b50 t .text$_ZNKSt10moneypunctIwLb0EE16do_negative_signEv
00735b50 T __ZNKSt10moneypunctIwLb0EE16do_negative_signEv
00735b90 t .text$_ZNKSt10moneypunctIwLb0EE16do_positive_signEv
00735b90 T __ZNKSt10moneypunctIwLb0EE16do_positive_signEv
00735bd0 t .text$_ZNKSt10moneypunctIwLb0EE16do_thousands_sepEv
00735bd0 T __ZNKSt10moneypunctIwLb0EE16do_thousands_sepEv
00735be0 t .text$_ZNKSt10moneypunctIwLb0EE8groupingEv
00735be0 T __ZNKSt10moneypunctIwLb0EE8groupingEv
00735c50 t .text$_ZNKSt10moneypunctIwLb1EE10neg_formatEv
00735c50 T __ZNKSt10moneypunctIwLb1EE10neg_formatEv
00735c70 t .text$_ZNKSt10moneypunctIwLb1EE10pos_formatEv
00735c70 T __ZNKSt10moneypunctIwLb1EE10pos_formatEv
00735c90 t .text$_ZNKSt10moneypunctIwLb1EE11curr_symbolEv
00735c90 T __ZNKSt10moneypunctIwLb1EE11curr_symbolEv
00735d00 t .text$_ZNKSt10moneypunctIwLb1EE11do_groupingEv
00735d00 T __ZNKSt10moneypunctIwLb1EE11do_groupingEv
00735d40 t .text$_ZNKSt10moneypunctIwLb1EE11frac_digitsEv
00735d40 T __ZNKSt10moneypunctIwLb1EE11frac_digitsEv
00735d60 t .text$_ZNKSt10moneypunctIwLb1EE13decimal_pointEv
00735d60 T __ZNKSt10moneypunctIwLb1EE13decimal_pointEv
00735d80 t .text$_ZNKSt10moneypunctIwLb1EE13do_neg_formatEv
00735d80 T __ZNKSt10moneypunctIwLb1EE13do_neg_formatEv
00735d90 t .text$_ZNKSt10moneypunctIwLb1EE13do_pos_formatEv
00735d90 T __ZNKSt10moneypunctIwLb1EE13do_pos_formatEv
00735da0 t .text$_ZNKSt10moneypunctIwLb1EE13negative_signEv
00735da0 T __ZNKSt10moneypunctIwLb1EE13negative_signEv
00735e10 t .text$_ZNKSt10moneypunctIwLb1EE13positive_signEv
00735e10 T __ZNKSt10moneypunctIwLb1EE13positive_signEv
00735e80 t .text$_ZNKSt10moneypunctIwLb1EE13thousands_sepEv
00735e80 T __ZNKSt10moneypunctIwLb1EE13thousands_sepEv
00735ea0 t .text$_ZNKSt10moneypunctIwLb1EE14do_curr_symbolEv
00735ea0 T __ZNKSt10moneypunctIwLb1EE14do_curr_symbolEv
00735ee0 t .text$_ZNKSt10moneypunctIwLb1EE14do_frac_digitsEv
00735ee0 T __ZNKSt10moneypunctIwLb1EE14do_frac_digitsEv
00735ef0 t .text$_ZNKSt10moneypunctIwLb1EE16do_decimal_pointEv
00735ef0 T __ZNKSt10moneypunctIwLb1EE16do_decimal_pointEv
00735f00 t .text$_ZNKSt10moneypunctIwLb1EE16do_negative_signEv
00735f00 T __ZNKSt10moneypunctIwLb1EE16do_negative_signEv
00735f40 t .text$_ZNKSt10moneypunctIwLb1EE16do_positive_signEv
00735f40 T __ZNKSt10moneypunctIwLb1EE16do_positive_signEv
00735f80 t .text$_ZNKSt10moneypunctIwLb1EE16do_thousands_sepEv
00735f80 T __ZNKSt10moneypunctIwLb1EE16do_thousands_sepEv
00735f90 t .text$_ZNKSt10moneypunctIwLb1EE8groupingEv
00735f90 T __ZNKSt10moneypunctIwLb1EE8groupingEv
00736000 t .text$_ZNKSt11__timepunctIcE15_M_am_pm_formatEPKc
00736000 T __ZNKSt11__timepunctIcE15_M_am_pm_formatEPKc
00736010 t .text$_ZNKSt11__timepunctIcE15_M_am_pm_formatEPPKc
00736010 T __ZNKSt11__timepunctIcE15_M_am_pm_formatEPPKc
00736020 t .text$_ZNKSt11__timepunctIcE15_M_date_formatsEPPKc
00736020 T __ZNKSt11__timepunctIcE15_M_date_formatsEPPKc
00736040 t .text$_ZNKSt11__timepunctIcE15_M_time_formatsEPPKc
00736040 T __ZNKSt11__timepunctIcE15_M_time_formatsEPPKc
00736060 t .text$_ZNKSt11__timepunctIcE19_M_days_abbreviatedEPPKc
00736060 T __ZNKSt11__timepunctIcE19_M_days_abbreviatedEPPKc
007360a0 t .text$_ZNKSt11__timepunctIcE20_M_date_time_formatsEPPKc
007360a0 T __ZNKSt11__timepunctIcE20_M_date_time_formatsEPPKc
007360c0 t .text$_ZNKSt11__timepunctIcE21_M_months_abbreviatedEPPKc
007360c0 T __ZNKSt11__timepunctIcE21_M_months_abbreviatedEPPKc
00736140 t .text$_ZNKSt11__timepunctIcE6_M_putEPcjPKcPK2tm
00736140 T __ZNKSt11__timepunctIcE6_M_putEPcjPKcPK2tm
007361f0 t .text$_ZNKSt11__timepunctIcE7_M_daysEPPKc
007361f0 T __ZNKSt11__timepunctIcE7_M_daysEPPKc
00736230 t .text$_ZNKSt11__timepunctIcE8_M_am_pmEPPKc
00736230 T __ZNKSt11__timepunctIcE8_M_am_pmEPPKc
00736250 t .text$_ZNKSt11__timepunctIcE9_M_monthsEPPKc
00736250 T __ZNKSt11__timepunctIcE9_M_monthsEPPKc
007362b0 t .text$_ZNKSt11__timepunctIwE15_M_am_pm_formatEPKw
007362b0 T __ZNKSt11__timepunctIwE15_M_am_pm_formatEPKw
007362c0 t .text$_ZNKSt11__timepunctIwE15_M_am_pm_formatEPPKw
007362c0 T __ZNKSt11__timepunctIwE15_M_am_pm_formatEPPKw
007362d0 t .text$_ZNKSt11__timepunctIwE15_M_date_formatsEPPKw
007362d0 T __ZNKSt11__timepunctIwE15_M_date_formatsEPPKw
007362f0 t .text$_ZNKSt11__timepunctIwE15_M_time_formatsEPPKw
007362f0 T __ZNKSt11__timepunctIwE15_M_time_formatsEPPKw
00736310 t .text$_ZNKSt11__timepunctIwE19_M_days_abbreviatedEPPKw
00736310 T __ZNKSt11__timepunctIwE19_M_days_abbreviatedEPPKw
00736350 t .text$_ZNKSt11__timepunctIwE20_M_date_time_formatsEPPKw
00736350 T __ZNKSt11__timepunctIwE20_M_date_time_formatsEPPKw
00736370 t .text$_ZNKSt11__timepunctIwE21_M_months_abbreviatedEPPKw
00736370 T __ZNKSt11__timepunctIwE21_M_months_abbreviatedEPPKw
007363f0 t .text$_ZNKSt11__timepunctIwE6_M_putEPwjPKwPK2tm
007363f0 T __ZNKSt11__timepunctIwE6_M_putEPwjPKwPK2tm
007364b0 t .text$_ZNKSt11__timepunctIwE7_M_daysEPPKw
007364b0 T __ZNKSt11__timepunctIwE7_M_daysEPPKw
007364f0 t .text$_ZNKSt11__timepunctIwE8_M_am_pmEPPKw
007364f0 T __ZNKSt11__timepunctIwE8_M_am_pmEPPKw
00736510 t .text$_ZNKSt11__timepunctIwE9_M_monthsEPPKw
00736510 T __ZNKSt11__timepunctIwE9_M_monthsEPPKw
00736570 t .text$_ZNKSt11__use_cacheISt16__numpunct_cacheIcEEclERKSt6locale.isra.0
00736570 t __ZNKSt11__use_cacheISt16__numpunct_cacheIcEEclERKSt6locale.isra.0
00736630 t .text$_ZNKSt11__use_cacheISt16__numpunct_cacheIwEEclERKSt6locale.isra.0
00736630 t __ZNKSt11__use_cacheISt16__numpunct_cacheIwEEclERKSt6locale.isra.0
007366f0 t .text$_ZNKSt11logic_error4whatEv
007366f0 T __ZNKSt11logic_error4whatEv
007366f0 T __ZNKSt13runtime_error4whatEv
00736700 t .text$_ZNKSt12__basic_fileIcE13native_handleEv
00736700 T __ZNKSt12__basic_fileIcE13native_handleEv
00736730 t .text$_ZNKSt12__basic_fileIcE7is_openEv
00736730 T __ZNKSt12__basic_fileIcE7is_openEv
00736740 t .text$_ZNKSt13__facet_shims12_GLOBAL__N_112collate_shimIcE10do_compareEPKcS4_S4_S4_
00736740 t __ZNKSt13__facet_shims12_GLOBAL__N_112collate_shimIcE10do_compareEPKcS4_S4_S4_
00736780 t .text$_ZNKSt13__facet_shims12_GLOBAL__N_112collate_shimIcE10do_compareEPKcS4_S4_S4_
00736780 t __ZNKSt13__facet_shims12_GLOBAL__N_112collate_shimIcE10do_compareEPKcS4_S4_S4_
007367c0 t .text$_ZNKSt13__facet_shims12_GLOBAL__N_112collate_shimIcE12do_transformEPKcS4_
007367c0 t __ZNKSt13__facet_shims12_GLOBAL__N_112collate_shimIcE12do_transformEPKcS4_
00736840 t .text$_ZNKSt13__facet_shims12_GLOBAL__N_112collate_shimIcE12do_transformEPKcS4_
00736840 t __ZNKSt13__facet_shims12_GLOBAL__N_112collate_shimIcE12do_transformEPKcS4_
007368d0 t .text$_ZNKSt13__facet_shims12_GLOBAL__N_112collate_shimIwE10do_compareEPKwS4_S4_S4_
007368d0 t __ZNKSt13__facet_shims12_GLOBAL__N_112collate_shimIwE10do_compareEPKwS4_S4_S4_
00736910 t .text$_ZNKSt13__facet_shims12_GLOBAL__N_112collate_shimIwE10do_compareEPKwS4_S4_S4_
00736910 t __ZNKSt13__facet_shims12_GLOBAL__N_112collate_shimIwE10do_compareEPKwS4_S4_S4_
00736950 t .text$_ZNKSt13__facet_shims12_GLOBAL__N_112collate_shimIwE12do_transformEPKwS4_
00736950 t __ZNKSt13__facet_shims12_GLOBAL__N_112collate_shimIwE12do_transformEPKwS4_
007369d0 t .text$_ZNKSt13__facet_shims12_GLOBAL__N_112collate_shimIwE12do_transformEPKwS4_
007369d0 t __ZNKSt13__facet_shims12_GLOBAL__N_112collate_shimIwE12do_transformEPKwS4_
00736a60 t .text$_ZNKSt13__facet_shims12_GLOBAL__N_113messages_shimIcE6do_getEiiiRKNSt7__cxx1112basic_stringIcSt11char_traitsIcESaIcEEE
00736a60 t __ZNKSt13__facet_shims12_GLOBAL__N_113messages_shimIcE6do_getEiiiRKNSt7__cxx1112basic_stringIcSt11char_traitsIcESaIcEEE
00736b10 t .text$_ZNKSt13__facet_shims12_GLOBAL__N_113messages_shimIcE6do_getEiiiRKSs
00736b10 t __ZNKSt13__facet_shims12_GLOBAL__N_113messages_shimIcE6do_getEiiiRKSs
00736bb0 t .text$_ZNKSt13__facet_shims12_GLOBAL__N_113messages_shimIcE7do_openERKNSt7__cxx1112basic_stringIcSt11char_traitsIcESaIcEEERKSt6locale
00736bb0 t __ZNKSt13__facet_shims12_GLOBAL__N_113messages_shimIcE7do_openERKNSt7__cxx1112basic_stringIcSt11char_traitsIcESaIcEEERKSt6locale
00736bf0 t .text$_ZNKSt13__facet_shims12_GLOBAL__N_113messages_shimIcE7do_openERKSsRKSt6locale
00736bf0 t __ZNKSt13__facet_shims12_GLOBAL__N_113messages_shimIcE7do_openERKSsRKSt6locale
00736c30 t .text$_ZNKSt13__facet_shims12_GLOBAL__N_113messages_shimIcE8do_closeEi
00736c30 t __ZNKSt13__facet_shims12_GLOBAL__N_113messages_shimIcE8do_closeEi
00736c60 t .text$_ZNKSt13__facet_shims12_GLOBAL__N_113messages_shimIcE8do_closeEi
00736c60 t __ZNKSt13__facet_shims12_GLOBAL__N_113messages_shimIcE8do_closeEi
00736c90 t .text$_ZNKSt13__facet_shims12_GLOBAL__N_113messages_shimIwE6do_getEiiiRKNSt7__cxx1112basic_stringIwSt11char_traitsIwESaIwEEE
00736c90 t __ZNKSt13__facet_shims12_GLOBAL__N_113messages_shimIwE6do_getEiiiRKNSt7__cxx1112basic_stringIwSt11char_traitsIwESaIwEEE
00736d40 t .text$_ZNKSt13__facet_shims12_GLOBAL__N_113messages_shimIwE6do_getEiiiRKSbIwSt11char_traitsIwESaIwEE
00736d40 t __ZNKSt13__facet_shims12_GLOBAL__N_113messages_shimIwE6do_getEiiiRKSbIwSt11char_traitsIwESaIwEE
00736de0 t .text$_ZNKSt13__facet_shims12_GLOBAL__N_113messages_shimIwE7do_openERKNSt7__cxx1112basic_stringIcSt11char_traitsIcESaIcEEERKSt6locale
00736de0 t __ZNKSt13__facet_shims12_GLOBAL__N_113messages_shimIwE7do_openERKNSt7__cxx1112basic_stringIcSt11char_traitsIcESaIcEEERKSt6locale
00736e20 t .text$_ZNKSt13__facet_shims12_GLOBAL__N_113messages_shimIwE7do_openERKSsRKSt6locale
00736e20 t __ZNKSt13__facet_shims12_GLOBAL__N_113messages_shimIwE7do_openERKSsRKSt6locale
00736e60 t .text$_ZNKSt13__facet_shims12_GLOBAL__N_113messages_shimIwE8do_closeEi
00736e60 t __ZNKSt13__facet_shims12_GLOBAL__N_113messages_shimIwE8do_closeEi
00736e90 t .text$_ZNKSt13__facet_shims12_GLOBAL__N_113messages_shimIwE8do_closeEi
00736e90 t __ZNKSt13__facet_shims12_GLOBAL__N_113messages_shimIwE8do_closeEi
00736ec0 t .text$_ZNKSt13__facet_shims12_GLOBAL__N_113time_get_shimIcE11do_get_dateESt19istreambuf_iteratorIcSt11char_traitsIcEES6_RSt8ios_baseRSt12_Ios_IostateP2tm
00736ec0 t __ZNKSt13__facet_shims12_GLOBAL__N_113time_get_shimIcE11do_get_dateESt19istreambuf_iteratorIcSt11char_traitsIcEES6_RSt8ios_baseRSt12_Ios_IostateP2tm
00736f20 t .text$_ZNKSt13__facet_shims12_GLOBAL__N_113time_get_shimIcE11do_get_dateESt19istreambuf_iteratorIcSt11char_traitsIcEES6_RSt8ios_baseRSt12_Ios_IostateP2tm
00736f20 t __ZNKSt13__facet_shims12_GLOBAL__N_113time_get_shimIcE11do_get_dateESt19istreambuf_iteratorIcSt11char_traitsIcEES6_RSt8ios_baseRSt12_Ios_IostateP2tm
00736f80 t .text$_ZNKSt13__facet_shims12_GLOBAL__N_113time_get_shimIcE11do_get_timeESt19istreambuf_iteratorIcSt11char_traitsIcEES6_RSt8ios_baseRSt12_Ios_IostateP2tm
00736f80 t __ZNKSt13__facet_shims12_GLOBAL__N_113time_get_shimIcE11do_get_timeESt19istreambuf_iteratorIcSt11char_traitsIcEES6_RSt8ios_baseRSt12_Ios_IostateP2tm
00736fe0 t .text$_ZNKSt13__facet_shims12_GLOBAL__N_113time_get_shimIcE11do_get_timeESt19istreambuf_iteratorIcSt11char_traitsIcEES6_RSt8ios_baseRSt12_Ios_IostateP2tm
00736fe0 t __ZNKSt13__facet_shims12_GLOBAL__N_113time_get_shimIcE11do_get_timeESt19istreambuf_iteratorIcSt11char_traitsIcEES6_RSt8ios_baseRSt12_Ios_IostateP2tm
00737040 t .text$_ZNKSt13__facet_shims12_GLOBAL__N_113time_get_shimIcE11do_get_yearESt19istreambuf_iteratorIcSt11char_traitsIcEES6_RSt8ios_baseRSt12_Ios_IostateP2tm
00737040 t __ZNKSt13__facet_shims12_GLOBAL__N_113time_get_shimIcE11do_get_yearESt19istreambuf_iteratorIcSt11char_traitsIcEES6_RSt8ios_baseRSt12_Ios_IostateP2tm
007370a0 t .text$_ZNKSt13__facet_shims12_GLOBAL__N_113time_get_shimIcE11do_get_yearESt19istreambuf_iteratorIcSt11char_traitsIcEES6_RSt8ios_baseRSt12_Ios_IostateP2tm
007370a0 t __ZNKSt13__facet_shims12_GLOBAL__N_113time_get_shimIcE11do_get_yearESt19istreambuf_iteratorIcSt11char_traitsIcEES6_RSt8ios_baseRSt12_Ios_IostateP2tm
00737100 t .text$_ZNKSt13__facet_shims12_GLOBAL__N_113time_get_shimIcE13do_date_orderEv
00737100 t __ZNKSt13__facet_shims12_GLOBAL__N_113time_get_shimIcE13do_date_orderEv
00737120 t .text$_ZNKSt13__facet_shims12_GLOBAL__N_113time_get_shimIcE13do_date_orderEv
00737120 t __ZNKSt13__facet_shims12_GLOBAL__N_113time_get_shimIcE13do_date_orderEv
00737140 t .text$_ZNKSt13__facet_shims12_GLOBAL__N_113time_get_shimIcE14do_get_weekdayESt19istreambuf_iteratorIcSt11char_traitsIcEES6_RSt8ios_baseRSt12_Ios_IostateP2tm
00737140 t __ZNKSt13__facet_shims12_GLOBAL__N_113time_get_shimIcE14do_get_weekdayESt19istreambuf_iteratorIcSt11char_traitsIcEES6_RSt8ios_baseRSt12_Ios_IostateP2tm
007371a0 t .text$_ZNKSt13__facet_shims12_GLOBAL__N_113time_get_shimIcE14do_get_weekdayESt19istreambuf_iteratorIcSt11char_traitsIcEES6_RSt8ios_baseRSt12_Ios_IostateP2tm
007371a0 t __ZNKSt13__facet_shims12_GLOBAL__N_113time_get_shimIcE14do_get_weekdayESt19istreambuf_iteratorIcSt11char_traitsIcEES6_RSt8ios_baseRSt12_Ios_IostateP2tm
00737200 t .text$_ZNKSt13__facet_shims12_GLOBAL__N_113time_get_shimIcE16do_get_monthnameESt19istreambuf_iteratorIcSt11char_traitsIcEES6_RSt8ios_baseRSt12_Ios_IostateP2tm
00737200 t __ZNKSt13__facet_shims12_GLOBAL__N_113time_get_shimIcE16do_get_monthnameESt19istreambuf_iteratorIcSt11char_traitsIcEES6_RSt8ios_baseRSt12_Ios_IostateP2tm
00737260 t .text$_ZNKSt13__facet_shims12_GLOBAL__N_113time_get_shimIcE16do_get_monthnameESt19istreambuf_iteratorIcSt11char_traitsIcEES6_RSt8ios_baseRSt12_Ios_IostateP2tm
00737260 t __ZNKSt13__facet_shims12_GLOBAL__N_113time_get_shimIcE16do_get_monthnameESt19istreambuf_iteratorIcSt11char_traitsIcEES6_RSt8ios_baseRSt12_Ios_IostateP2tm
007372c0 t .text$_ZNKSt13__facet_shims12_GLOBAL__N_113time_get_shimIwE11do_get_dateESt19istreambuf_iteratorIwSt11char_traitsIwEES6_RSt8ios_baseRSt12_Ios_IostateP2tm
007372c0 t __ZNKSt13__facet_shims12_GLOBAL__N_113time_get_shimIwE11do_get_dateESt19istreambuf_iteratorIwSt11char_traitsIwEES6_RSt8ios_baseRSt12_Ios_IostateP2tm
00737320 t .text$_ZNKSt13__facet_shims12_GLOBAL__N_113time_get_shimIwE11do_get_dateESt19istreambuf_iteratorIwSt11char_traitsIwEES6_RSt8ios_baseRSt12_Ios_IostateP2tm
00737320 t __ZNKSt13__facet_shims12_GLOBAL__N_113time_get_shimIwE11do_get_dateESt19istreambuf_iteratorIwSt11char_traitsIwEES6_RSt8ios_baseRSt12_Ios_IostateP2tm
00737380 t .text$_ZNKSt13__facet_shims12_GLOBAL__N_113time_get_shimIwE11do_get_timeESt19istreambuf_iteratorIwSt11char_traitsIwEES6_RSt8ios_baseRSt12_Ios_IostateP2tm
00737380 t __ZNKSt13__facet_shims12_GLOBAL__N_113time_get_shimIwE11do_get_timeESt19istreambuf_iteratorIwSt11char_traitsIwEES6_RSt8ios_baseRSt12_Ios_IostateP2tm
007373e0 t .text$_ZNKSt13__facet_shims12_GLOBAL__N_113time_get_shimIwE11do_get_timeESt19istreambuf_iteratorIwSt11char_traitsIwEES6_RSt8ios_baseRSt12_Ios_IostateP2tm
007373e0 t __ZNKSt13__facet_shims12_GLOBAL__N_113time_get_shimIwE11do_get_timeESt19istreambuf_iteratorIwSt11char_traitsIwEES6_RSt8ios_baseRSt12_Ios_IostateP2tm
00737440 t .text$_ZNKSt13__facet_shims12_GLOBAL__N_113time_get_shimIwE11do_get_yearESt19istreambuf_iteratorIwSt11char_traitsIwEES6_RSt8ios_baseRSt12_Ios_IostateP2tm
00737440 t __ZNKSt13__facet_shims12_GLOBAL__N_113time_get_shimIwE11do_get_yearESt19istreambuf_iteratorIwSt11char_traitsIwEES6_RSt8ios_baseRSt12_Ios_IostateP2tm
007374a0 t .text$_ZNKSt13__facet_shims12_GLOBAL__N_113time_get_shimIwE11do_get_yearESt19istreambuf_iteratorIwSt11char_traitsIwEES6_RSt8ios_baseRSt12_Ios_IostateP2tm
007374a0 t __ZNKSt13__facet_shims12_GLOBAL__N_113time_get_shimIwE11do_get_yearESt19istreambuf_iteratorIwSt11char_traitsIwEES6_RSt8ios_baseRSt12_Ios_IostateP2tm
00737500 t .text$_ZNKSt13__facet_shims12_GLOBAL__N_113time_get_shimIwE13do_date_orderEv
00737500 t __ZNKSt13__facet_shims12_GLOBAL__N_113time_get_shimIwE13do_date_orderEv
00737520 t .text$_ZNKSt13__facet_shims12_GLOBAL__N_113time_get_shimIwE13do_date_orderEv
00737520 t __ZNKSt13__facet_shims12_GLOBAL__N_113time_get_shimIwE13do_date_orderEv
00737540 t .text$_ZNKSt13__facet_shims12_GLOBAL__N_113time_get_shimIwE14do_get_weekdayESt19istreambuf_iteratorIwSt11char_traitsIwEES6_RSt8ios_baseRSt12_Ios_IostateP2tm
00737540 t __ZNKSt13__facet_shims12_GLOBAL__N_113time_get_shimIwE14do_get_weekdayESt19istreambuf_iteratorIwSt11char_traitsIwEES6_RSt8ios_baseRSt12_Ios_IostateP2tm
007375a0 t .text$_ZNKSt13__facet_shims12_GLOBAL__N_113time_get_shimIwE14do_get_weekdayESt19istreambuf_iteratorIwSt11char_traitsIwEES6_RSt8ios_baseRSt12_Ios_IostateP2tm
007375a0 t __ZNKSt13__facet_shims12_GLOBAL__N_113time_get_shimIwE14do_get_weekdayESt19istreambuf_iteratorIwSt11char_traitsIwEES6_RSt8ios_baseRSt12_Ios_IostateP2tm
00737600 t .text$_ZNKSt13__facet_shims12_GLOBAL__N_113time_get_shimIwE16do_get_monthnameESt19istreambuf_iteratorIwSt11char_traitsIwEES6_RSt8ios_baseRSt12_Ios_IostateP2tm
00737600 t __ZNKSt13__facet_shims12_GLOBAL__N_113time_get_shimIwE16do_get_monthnameESt19istreambuf_iteratorIwSt11char_traitsIwEES6_RSt8ios_baseRSt12_Ios_IostateP2tm
00737660 t .text$_ZNKSt13__facet_shims12_GLOBAL__N_113time_get_shimIwE16do_get_monthnameESt19istreambuf_iteratorIwSt11char_traitsIwEES6_RSt8ios_baseRSt12_Ios_IostateP2tm
00737660 t __ZNKSt13__facet_shims12_GLOBAL__N_113time_get_shimIwE16do_get_monthnameESt19istreambuf_iteratorIwSt11char_traitsIwEES6_RSt8ios_baseRSt12_Ios_IostateP2tm
007376c0 t .text$_ZNKSt13__facet_shims12_GLOBAL__N_114money_get_shimIcE6do_getESt19istreambuf_iteratorIcSt11char_traitsIcEES6_bRSt8ios_baseRSt12_Ios_IostateRNSt7__cxx1112basic_stringIcS5_SaIcEEE
007376c0 t __ZNKSt13__facet_shims12_GLOBAL__N_114money_get_shimIcE6do_getESt19istreambuf_iteratorIcSt11char_traitsIcEES6_bRSt8ios_baseRSt12_Ios_IostateRNSt7__cxx1112basic_stringIcS5_SaIcEEE
007378e0 t .text$_ZNKSt13__facet_shims12_GLOBAL__N_114money_get_shimIcE6do_getESt19istreambuf_iteratorIcSt11char_traitsIcEES6_bRSt8ios_baseRSt12_Ios_IostateRSs
007378e0 t __ZNKSt13__facet_shims12_GLOBAL__N_114money_get_shimIcE6do_getESt19istreambuf_iteratorIcSt11char_traitsIcEES6_bRSt8ios_baseRSt12_Ios_IostateRSs
007379f0 t .text$_ZNKSt13__facet_shims12_GLOBAL__N_114money_get_shimIcE6do_getESt19istreambuf_iteratorIcSt11char_traitsIcEES6_bRSt8ios_baseRSt12_Ios_IostateRe
007379f0 t __ZNKSt13__facet_shims12_GLOBAL__N_114money_get_shimIcE6do_getESt19istreambuf_iteratorIcSt11char_traitsIcEES6_bRSt8ios_baseRSt12_Ios_IostateRe
00737aa0 t .text$_ZNKSt13__facet_shims12_GLOBAL__N_114money_get_shimIcE6do_getESt19istreambuf_iteratorIcSt11char_traitsIcEES6_bRSt8ios_baseRSt12_Ios_IostateRe
00737aa0 t __ZNKSt13__facet_shims12_GLOBAL__N_114money_get_shimIcE6do_getESt19istreambuf_iteratorIcSt11char_traitsIcEES6_bRSt8ios_baseRSt12_Ios_IostateRe
00737b50 t .text$_ZNKSt13__facet_shims12_GLOBAL__N_114money_get_shimIwE6do_getESt19istreambuf_iteratorIwSt11char_traitsIwEES6_bRSt8ios_baseRSt12_Ios_IostateRNSt7__cxx1112basic_stringIwS5_SaIwEEE
00737b50 t __ZNKSt13__facet_shims12_GLOBAL__N_114money_get_shimIwE6do_getESt19istreambuf_iteratorIwSt11char_traitsIwEES6_bRSt8ios_baseRSt12_Ios_IostateRNSt7__cxx1112basic_stringIwS5_SaIwEEE
00737d30 t .text$_ZNKSt13__facet_shims12_GLOBAL__N_114money_get_shimIwE6do_getESt19istreambuf_iteratorIwSt11char_traitsIwEES6_bRSt8ios_baseRSt12_Ios_IostateRSbIwS5_SaIwEE
00737d30 t __ZNKSt13__facet_shims12_GLOBAL__N_114money_get_shimIwE6do_getESt19istreambuf_iteratorIwSt11char_traitsIwEES6_bRSt8ios_baseRSt12_Ios_IostateRSbIwS5_SaIwEE
00737e60 t .text$_ZNKSt13__facet_shims12_GLOBAL__N_114money_get_shimIwE6do_getESt19istreambuf_iteratorIwSt11char_traitsIwEES6_bRSt8ios_baseRSt12_Ios_IostateRe
00737e60 t __ZNKSt13__facet_shims12_GLOBAL__N_114money_get_shimIwE6do_getESt19istreambuf_iteratorIwSt11char_traitsIwEES6_bRSt8ios_baseRSt12_Ios_IostateRe
00737f20 t .text$_ZNKSt13__facet_shims12_GLOBAL__N_114money_get_shimIwE6do_getESt19istreambuf_iteratorIwSt11char_traitsIwEES6_bRSt8ios_baseRSt12_Ios_IostateRe
00737f20 t __ZNKSt13__facet_shims12_GLOBAL__N_114money_get_shimIwE6do_getESt19istreambuf_iteratorIwSt11char_traitsIwEES6_bRSt8ios_baseRSt12_Ios_IostateRe
00737fe0 t .text$_ZNKSt13__facet_shims12_GLOBAL__N_114money_put_shimIcE6do_putESt19ostreambuf_iteratorIcSt11char_traitsIcEEbRSt8ios_basecRKNSt7__cxx1112basic_stringIcS5_SaIcEEE
00737fe0 t __ZNKSt13__facet_shims12_GLOBAL__N_114money_put_shimIcE6do_putESt19ostreambuf_iteratorIcSt11char_traitsIcEEbRSt8ios_basecRKNSt7__cxx1112basic_stringIcS5_SaIcEEE
00738090 t .text$_ZNKSt13__facet_shims12_GLOBAL__N_114money_put_shimIcE6do_putESt19ostreambuf_iteratorIcSt11char_traitsIcEEbRSt8ios_basecRKSs
00738090 t __ZNKSt13__facet_shims12_GLOBAL__N_114money_put_shimIcE6do_putESt19ostreambuf_iteratorIcSt11char_traitsIcEEbRSt8ios_basecRKSs
00738170 t .text$_ZNKSt13__facet_shims12_GLOBAL__N_114money_put_shimIcE6do_putESt19ostreambuf_iteratorIcSt11char_traitsIcEEbRSt8ios_basece
00738170 t __ZNKSt13__facet_shims12_GLOBAL__N_114money_put_shimIcE6do_putESt19ostreambuf_iteratorIcSt11char_traitsIcEEbRSt8ios_basece
007381d0 t .text$_ZNKSt13__facet_shims12_GLOBAL__N_114money_put_shimIcE6do_putESt19ostreambuf_iteratorIcSt11char_traitsIcEEbRSt8ios_basece
007381d0 t __ZNKSt13__facet_shims12_GLOBAL__N_114money_put_shimIcE6do_putESt19ostreambuf_iteratorIcSt11char_traitsIcEEbRSt8ios_basece
00738230 t .text$_ZNKSt13__facet_shims12_GLOBAL__N_114money_put_shimIwE6do_putESt19ostreambuf_iteratorIwSt11char_traitsIwEEbRSt8ios_basewRKNSt7__cxx1112basic_stringIwS5_SaIwEEE
00738230 t __ZNKSt13__facet_shims12_GLOBAL__N_114money_put_shimIwE6do_putESt19ostreambuf_iteratorIwSt11char_traitsIwEEbRSt8ios_basewRKNSt7__cxx1112basic_stringIwS5_SaIwEEE
007382e0 t .text$_ZNKSt13__facet_shims12_GLOBAL__N_114money_put_shimIwE6do_putESt19ostreambuf_iteratorIwSt11char_traitsIwEEbRSt8ios_basewRKSbIwS5_SaIwEE
007382e0 t __ZNKSt13__facet_shims12_GLOBAL__N_114money_put_shimIwE6do_putESt19ostreambuf_iteratorIwSt11char_traitsIwEEbRSt8ios_basewRKSbIwS5_SaIwEE
007383c0 t .text$_ZNKSt13__facet_shims12_GLOBAL__N_114money_put_shimIwE6do_putESt19ostreambuf_iteratorIwSt11char_traitsIwEEbRSt8ios_basewe
007383c0 t __ZNKSt13__facet_shims12_GLOBAL__N_114money_put_shimIwE6do_putESt19ostreambuf_iteratorIwSt11char_traitsIwEEbRSt8ios_basewe
00738420 t .text$_ZNKSt13__facet_shims12_GLOBAL__N_114money_put_shimIwE6do_putESt19ostreambuf_iteratorIwSt11char_traitsIwEEbRSt8ios_basewe
00738420 t __ZNKSt13__facet_shims12_GLOBAL__N_114money_put_shimIwE6do_putESt19ostreambuf_iteratorIwSt11char_traitsIwEEbRSt8ios_basewe
00738480 t .text$_ZNKSt13bad_exception4whatEv
00738480 T __ZGTtNKSt13bad_exception4whatEv
00738480 T __ZNKSt13bad_exception4whatEv
00738490 t .text$_ZNKSt13basic_filebufIcSt11char_traitsIcEE7is_openEv
00738490 T __ZNKSt13basic_filebufIcSt11char_traitsIcEE7is_openEv
007384a0 t .text$_ZNKSt13basic_filebufIwSt11char_traitsIwEE7is_openEv
007384a0 T __ZNKSt13basic_filebufIwSt11char_traitsIwEE7is_openEv
007384b0 t .text$_ZNKSt13basic_fstreamIcSt11char_traitsIcEE5rdbufEv
007384b0 T __ZNKSt13basic_fstreamIcSt11char_traitsIcEE5rdbufEv
007384c0 t .text$_ZNKSt13basic_fstreamIcSt11char_traitsIcEE7is_openEv
007384c0 T __ZNKSt13basic_fstreamIcSt11char_traitsIcEE7is_openEv
007384d0 t .text$_ZNKSt13basic_fstreamIwSt11char_traitsIwEE5rdbufEv
007384d0 T __ZNKSt13basic_fstreamIwSt11char_traitsIwEE5rdbufEv
007384e0 t .text$_ZNKSt13basic_fstreamIwSt11char_traitsIwEE7is_openEv
007384e0 T __ZNKSt13basic_fstreamIwSt11char_traitsIwEE7is_openEv
007384f0 t .text$_ZNKSt13basic_istreamIwSt11char_traitsIwEE6gcountEv
007384f0 T __ZNKSt13basic_istreamIwSt11char_traitsIwEE6gcountEv
00738500 t .text$_ZNKSt13basic_istreamIwSt11char_traitsIwEE6sentrycvbEv
00738500 T __ZNKSt13basic_istreamIwSt11char_traitsIwEE6sentrycvbEv
00738510 t .text$_ZNKSt13basic_ostreamIwSt11char_traitsIwEE6sentrycvbEv
00738510 T __ZNKSt13basic_ostreamIwSt11char_traitsIwEE6sentrycvbEv
00738520 t .text$_ZNKSt13random_device13_M_getentropyEv
00738520 T __ZNKSt13random_device13_M_getentropyEv
00738560 t .text$_ZNKSt14basic_ifstreamIcSt11char_traitsIcEE5rdbufEv
00738560 T __ZNKSt14basic_ifstreamIcSt11char_traitsIcEE5rdbufEv
00738570 t .text$_ZNKSt14basic_ifstreamIcSt11char_traitsIcEE7is_openEv
00738570 T __ZNKSt14basic_ifstreamIcSt11char_traitsIcEE7is_openEv
00738580 t .text$_ZNKSt14basic_ifstreamIwSt11char_traitsIwEE5rdbufEv
00738580 T __ZNKSt14basic_ifstreamIwSt11char_traitsIwEE5rdbufEv
00738590 t .text$_ZNKSt14basic_ifstreamIwSt11char_traitsIwEE7is_openEv
00738590 T __ZNKSt14basic_ifstreamIwSt11char_traitsIwEE7is_openEv
007385a0 t .text$_ZNKSt14basic_ofstreamIcSt11char_traitsIcEE5rdbufEv
007385a0 T __ZNKSt14basic_ofstreamIcSt11char_traitsIcEE5rdbufEv
007385b0 t .text$_ZNKSt14basic_ofstreamIcSt11char_traitsIcEE7is_openEv
007385b0 T __ZNKSt14basic_ofstreamIcSt11char_traitsIcEE7is_openEv
007385c0 t .text$_ZNKSt14basic_ofstreamIwSt11char_traitsIwEE5rdbufEv
007385c0 T __ZNKSt14basic_ofstreamIwSt11char_traitsIwEE5rdbufEv
007385d0 t .text$_ZNKSt14basic_ofstreamIwSt11char_traitsIwEE7is_openEv
007385d0 T __ZNKSt14basic_ofstreamIwSt11char_traitsIwEE7is_openEv
007385e0 t .text$_ZNKSt15basic_streambufIcSt11char_traitsIcEE4gptrEv
007385e0 T __ZNKSt15basic_streambufIcSt11char_traitsIcEE4gptrEv
007385f0 t .text$_ZNKSt15basic_streambufIcSt11char_traitsIcEE4pptrEv
007385f0 T __ZNKSt15basic_streambufIcSt11char_traitsIcEE4pptrEv
00738600 t .text$_ZNKSt15basic_streambufIcSt11char_traitsIcEE5ebackEv
00738600 T __ZNKSt15basic_streambufIcSt11char_traitsIcEE5ebackEv
00738610 t .text$_ZNKSt15basic_streambufIcSt11char_traitsIcEE5egptrEv
00738610 T __ZNKSt15basic_streambufIcSt11char_traitsIcEE5egptrEv
00738620 t .text$_ZNKSt15basic_streambufIcSt11char_traitsIcEE5epptrEv
00738620 T __ZNKSt15basic_streambufIcSt11char_traitsIcEE5epptrEv
00738630 t .text$_ZNKSt15basic_streambufIcSt11char_traitsIcEE5pbaseEv
00738630 T __ZNKSt15basic_streambufIcSt11char_traitsIcEE5pbaseEv
00738640 t .text$_ZNKSt15basic_streambufIcSt11char_traitsIcEE6getlocEv
00738640 T __ZNKSt15basic_streambufIcSt11char_traitsIcEE6getlocEv
00738670 t .text$_ZNKSt15basic_streambufIwSt11char_traitsIwEE4gptrEv
00738670 T __ZNKSt15basic_streambufIwSt11char_traitsIwEE4gptrEv
00738680 t .text$_ZNKSt15basic_streambufIwSt11char_traitsIwEE4pptrEv
00738680 T __ZNKSt15basic_streambufIwSt11char_traitsIwEE4pptrEv
00738690 t .text$_ZNKSt15basic_streambufIwSt11char_traitsIwEE5ebackEv
00738690 T __ZNKSt15basic_streambufIwSt11char_traitsIwEE5ebackEv
007386a0 t .text$_ZNKSt15basic_streambufIwSt11char_traitsIwEE5egptrEv
007386a0 T __ZNKSt15basic_streambufIwSt11char_traitsIwEE5egptrEv
007386b0 t .text$_ZNKSt15basic_streambufIwSt11char_traitsIwEE5epptrEv
007386b0 T __ZNKSt15basic_streambufIwSt11char_traitsIwEE5epptrEv
007386c0 t .text$_ZNKSt15basic_streambufIwSt11char_traitsIwEE5pbaseEv
007386c0 T __ZNKSt15basic_streambufIwSt11char_traitsIwEE5pbaseEv
007386d0 t .text$_ZNKSt15basic_streambufIwSt11char_traitsIwEE6getlocEv
007386d0 T __ZNKSt15basic_streambufIwSt11char_traitsIwEE6getlocEv
00738700 t .text$_ZNKSt19__codecvt_utf8_baseIDiE13do_max_lengthEv
00738700 T __ZNKSt19__codecvt_utf8_baseIDiE13do_max_lengthEv
00738720 t .text$_ZNKSt19__codecvt_utf8_baseIDiE5do_inER9_MbstatetPKcS4_RS4_PDiS6_RS6_
00738720 T __ZNKSt19__codecvt_utf8_baseIDiE5do_inER9_MbstatetPKcS4_RS4_PDiS6_RS6_
007387d0 t .text$_ZNKSt19__codecvt_utf8_baseIDiE6do_outER9_MbstatetPKDiS4_RS4_PcS6_RS6_
007387d0 T __ZNKSt19__codecvt_utf8_baseIDiE6do_outER9_MbstatetPKDiS4_RS4_PcS6_RS6_
00738880 t .text$_ZNKSt19__codecvt_utf8_baseIDiE9do_lengthER9_MbstatetPKcS4_j
00738880 T __ZNKSt19__codecvt_utf8_baseIDiE9do_lengthER9_MbstatetPKcS4_j
00738910 t .text$_ZNKSt19__codecvt_utf8_baseIDsE13do_max_lengthEv
00738910 T __ZNKSt19__codecvt_utf8_baseIDsE13do_max_lengthEv
00738930 t .text$_ZNKSt19__codecvt_utf8_baseIDsE5do_inER9_MbstatetPKcS4_RS4_PDsS6_RS6_
00738930 T __ZNKSt19__codecvt_utf8_baseIDsE5do_inER9_MbstatetPKcS4_RS4_PDsS6_RS6_
007389a0 t .text$_ZNKSt19__codecvt_utf8_baseIDsE6do_outER9_MbstatetPKDsS4_RS4_PcS6_RS6_
007389a0 T __ZNKSt19__codecvt_utf8_baseIDsE6do_outER9_MbstatetPKDsS4_RS4_PcS6_RS6_
00738a10 t .text$_ZNKSt19__codecvt_utf8_baseIDsE9do_lengthER9_MbstatetPKcS4_j
00738a10 T __ZNKSt19__codecvt_utf8_baseIDsE9do_lengthER9_MbstatetPKcS4_j
00738ab0 t .text$_ZNKSt19__codecvt_utf8_baseIwE13do_max_lengthEv
00738ab0 T __ZNKSt19__codecvt_utf8_baseIwE13do_max_lengthEv
00738ad0 t .text$_ZNKSt19__codecvt_utf8_baseIwE5do_inER9_MbstatetPKcS4_RS4_PwS6_RS6_
00738ad0 T __ZNKSt19__codecvt_utf8_baseIwE5do_inER9_MbstatetPKcS4_RS4_PwS6_RS6_
00738b30 t .text$_ZNKSt19__codecvt_utf8_baseIwE6do_outER9_MbstatetPKwS4_RS4_PcS6_RS6_
00738b30 T __ZNKSt19__codecvt_utf8_baseIwE6do_outER9_MbstatetPKwS4_RS4_PcS6_RS6_
00738ba0 t .text$_ZNKSt19__codecvt_utf8_baseIwE9do_lengthER9_MbstatetPKcS4_j
00738ba0 T __ZNKSt19__codecvt_utf8_baseIwE9do_lengthER9_MbstatetPKcS4_j
00738c40 t .text$_ZNKSt19__iosfail_type_info11__do_upcastEPKN10__cxxabiv117__class_type_infoEPPv
00738c40 T __ZNKSt19__iosfail_type_info11__do_upcastEPKN10__cxxabiv117__class_type_infoEPPv
00738c90 t .text$_ZNKSt19istreambuf_iteratorIcSt11char_traitsIcEE5equalERKS2_
00738c90 T __ZNKSt19istreambuf_iteratorIcSt11char_traitsIcEE5equalERKS2_
00738d30 t .text$_ZNKSt19istreambuf_iteratorIcSt11char_traitsIcEE6_M_getEv
00738d30 T __ZNKSt19istreambuf_iteratorIcSt11char_traitsIcEE6_M_getEv
00738d70 t .text$_ZNKSt19istreambuf_iteratorIwSt11char_traitsIwEE5equalERKS2_
00738d70 T __ZNKSt19istreambuf_iteratorIwSt11char_traitsIwEE5equalERKS2_
00738e10 t .text$_ZNKSt19istreambuf_iteratorIwSt11char_traitsIwEE6_M_getEv
00738e10 T __ZNKSt19istreambuf_iteratorIwSt11char_traitsIwEE6_M_getEv
00738e70 t .text$_ZNKSt20__codecvt_utf16_baseIDiE13do_max_lengthEv
00738e70 T __ZNKSt20__codecvt_utf16_baseIDiE13do_max_lengthEv
00738e90 t .text$_ZNKSt20__codecvt_utf16_baseIDiE5do_inER9_MbstatetPKcS4_RS4_PDiS6_RS6_
00738e90 T __ZNKSt20__codecvt_utf16_baseIDiE5do_inER9_MbstatetPKcS4_RS4_PDiS6_RS6_
00738fc0 t .text$_ZNKSt20__codecvt_utf16_baseIDiE6do_outER9_MbstatetPKDiS4_RS4_PcS6_RS6_
00738fc0 T __ZNKSt20__codecvt_utf16_baseIDiE6do_outER9_MbstatetPKDiS4_RS4_PcS6_RS6_
00739100 t .text$_ZNKSt20__codecvt_utf16_baseIDiE9do_lengthER9_MbstatetPKcS4_j
00739100 T __ZNKSt20__codecvt_utf16_baseIDiE9do_lengthER9_MbstatetPKcS4_j
00739230 t .text$_ZNKSt20__codecvt_utf16_baseIDsE13do_max_lengthEv
00739230 T __ZNKSt20__codecvt_utf16_baseIDsE13do_max_lengthEv
00739250 t .text$_ZNKSt20__codecvt_utf16_baseIDsE5do_inER9_MbstatetPKcS4_RS4_PDsS6_RS6_
00739250 T __ZNKSt20__codecvt_utf16_baseIDsE5do_inER9_MbstatetPKcS4_RS4_PDsS6_RS6_
007392b0 t .text$_ZNKSt20__codecvt_utf16_baseIDsE6do_outER9_MbstatetPKDsS4_RS4_PcS6_RS6_
007392b0 T __ZNKSt20__codecvt_utf16_baseIDsE6do_outER9_MbstatetPKDsS4_RS4_PcS6_RS6_
00739380 t .text$_ZNKSt20__codecvt_utf16_baseIDsE9do_lengthER9_MbstatetPKcS4_j
00739380 T __ZNKSt20__codecvt_utf16_baseIDsE9do_lengthER9_MbstatetPKcS4_j
00739430 t .text$_ZNKSt20__codecvt_utf16_baseIwE13do_max_lengthEv
00739430 T __ZNKSt20__codecvt_utf16_baseIwE13do_max_lengthEv
00739450 t .text$_ZNKSt20__codecvt_utf16_baseIwE5do_inER9_MbstatetPKcS4_RS4_PwS6_RS6_
00739450 T __ZNKSt20__codecvt_utf16_baseIwE5do_inER9_MbstatetPKcS4_RS4_PwS6_RS6_
007394b0 t .text$_ZNKSt20__codecvt_utf16_baseIwE6do_outER9_MbstatetPKwS4_RS4_PcS6_RS6_
007394b0 T __ZNKSt20__codecvt_utf16_baseIwE6do_outER9_MbstatetPKwS4_RS4_PcS6_RS6_
00739580 t .text$_ZNKSt20__codecvt_utf16_baseIwE9do_lengthER9_MbstatetPKcS4_j
00739580 T __ZNKSt20__codecvt_utf16_baseIwE9do_lengthER9_MbstatetPKcS4_j
00739630 t .text$_ZNKSt20bad_array_new_length4whatEv
00739630 T __ZNKSt20bad_array_new_length4whatEv
00739640 t .text$_ZNKSt25__codecvt_utf8_utf16_baseIDiE13do_max_lengthEv
00739640 T __ZNKSt25__codecvt_utf8_utf16_baseIDiE13do_max_lengthEv
00739660 t .text$_ZNKSt25__codecvt_utf8_utf16_baseIDiE5do_inER9_MbstatetPKcS4_RS4_PDiS6_RS6_
00739660 T __ZNKSt25__codecvt_utf8_utf16_baseIDiE5do_inER9_MbstatetPKcS4_RS4_PDiS6_RS6_
00739780 t .text$_ZNKSt25__codecvt_utf8_utf16_baseIDiE6do_outER9_MbstatetPKDiS4_RS4_PcS6_RS6_
00739780 T __ZNKSt25__codecvt_utf8_utf16_baseIDiE6do_outER9_MbstatetPKDiS4_RS4_PcS6_RS6_
00739880 t .text$_ZNKSt25__codecvt_utf8_utf16_baseIDiE9do_lengthER9_MbstatetPKcS4_j
00739880 T __ZNKSt25__codecvt_utf8_utf16_baseIDiE9do_lengthER9_MbstatetPKcS4_j
007398b0 t .text$_ZNKSt25__codecvt_utf8_utf16_baseIDsE13do_max_lengthEv
007398b0 T __ZNKSt25__codecvt_utf8_utf16_baseIDsE13do_max_lengthEv
007398d0 t .text$_ZNKSt25__codecvt_utf8_utf16_baseIDsE5do_inER9_MbstatetPKcS4_RS4_PDsS6_RS6_
007398d0 T __ZNKSt25__codecvt_utf8_utf16_baseIDsE5do_inER9_MbstatetPKcS4_RS4_PDsS6_RS6_
00739930 t .text$_ZNKSt25__codecvt_utf8_utf16_baseIDsE6do_outER9_MbstatetPKDsS4_RS4_PcS6_RS6_
00739930 T __ZNKSt25__codecvt_utf8_utf16_baseIDsE6do_outER9_MbstatetPKDsS4_RS4_PcS6_RS6_
00739990 t .text$_ZNKSt25__codecvt_utf8_utf16_baseIDsE9do_lengthER9_MbstatetPKcS4_j
00739990 T __ZNKSt25__codecvt_utf8_utf16_baseIDsE9do_lengthER9_MbstatetPKcS4_j
007399c0 t .text$_ZNKSt25__codecvt_utf8_utf16_baseIwE13do_max_lengthEv
007399c0 T __ZNKSt25__codecvt_utf8_utf16_baseIwE13do_max_lengthEv
007399e0 t .text$_ZNKSt25__codecvt_utf8_utf16_baseIwE5do_inER9_MbstatetPKcS4_RS4_PwS6_RS6_
007399e0 T __ZNKSt25__codecvt_utf8_utf16_baseIwE5do_inER9_MbstatetPKcS4_RS4_PwS6_RS6_
00739b00 t .text$_ZNKSt25__codecvt_utf8_utf16_baseIwE6do_outER9_MbstatetPKwS4_RS4_PcS6_RS6_
00739b00 T __ZNKSt25__codecvt_utf8_utf16_baseIwE6do_outER9_MbstatetPKwS4_RS4_PcS6_RS6_
00739c00 t .text$_ZNKSt25__codecvt_utf8_utf16_baseIwE9do_lengthER9_MbstatetPKcS4_j
00739c00 T __ZNKSt25__codecvt_utf8_utf16_baseIwE9do_lengthER9_MbstatetPKcS4_j
00739c30 t .text$_ZNKSt3_V214error_category10_M_messageB5cxx11Ei
00739c30 T __ZNKSt3_V214error_category10_M_messageB5cxx11Ei
00739c90 t .text$_ZNKSt3_V214error_category10equivalentERKSt10error_codei
00739c90 T __ZNKSt3_V214error_category10equivalentERKSt10error_codei
00739cb0 t .text$_ZNKSt3_V214error_category10equivalentEiRKSt15error_condition
00739cb0 T __ZNKSt3_V214error_category10equivalentEiRKSt15error_condition
00739cf0 t .text$_ZNKSt3_V214error_category23default_error_conditionEi
00739cf0 T __ZNKSt3_V214error_category23default_error_conditionEi
00739d00 t .text$_ZNKSt5ctypeIcE10do_tolowerEPcPKc
00739d00 T __ZNKSt5ctypeIcE10do_tolowerEPcPKc
00739dc0 t .text$_ZNKSt5ctypeIcE10do_tolowerEc
00739dc0 T __ZNKSt5ctypeIcE10do_tolowerEc
00739e00 t .text$_ZNKSt5ctypeIcE10do_toupperEPcPKc
00739e00 T __ZNKSt5ctypeIcE10do_toupperEPcPKc
00739ec0 t .text$_ZNKSt5ctypeIcE10do_toupperEc
00739ec0 T __ZNKSt5ctypeIcE10do_toupperEc
00739ee0 t .text$_ZNKSt5ctypeIcE13_M_widen_initEv
00739ee0 T __ZNKSt5ctypeIcE13_M_widen_initEv
00739fa0 t .text$_ZNKSt5ctypeIcE14_M_narrow_initEv
00739fa0 T __ZNKSt5ctypeIcE14_M_narrow_initEv
0073a0c0 t .text$_ZNKSt5ctypeIcE5widenEPKcS2_Pc.isra.0
0073a0c0 t __ZNKSt5ctypeIcE5widenEPKcS2_Pc.isra.0
0073a150 t .text$_ZNKSt5ctypeIcE5widenEc.part.0
0073a150 t __ZNKSt5ctypeIcE5widenEc.part.0
0073a190 t .text$_ZNKSt5ctypeIcE6narrowEcc
0073a190 T __ZNKSt5ctypeIcE6narrowEcc
0073a210 t .text$_ZNKSt5ctypeIcE8do_widenEPKcS2_Pc
0073a210 T __ZNKSt5ctypeIcE8do_widenEPKcS2_Pc
0073a250 t .text$_ZNKSt5ctypeIcE8do_widenEc
0073a250 T __ZNKSt5ctypeIcE8do_widenEc
0073a260 t .text$_ZNKSt5ctypeIcE9do_narrowEPKcS2_cPc
0073a260 T __ZNKSt5ctypeIcE9do_narrowEPKcS2_cPc
0073a2a0 t .text$_ZNKSt5ctypeIcE9do_narrowEcc
0073a2a0 T __ZNKSt5ctypeIcE9do_narrowEcc
0073a2b0 t .text$_ZNKSt5ctypeIwE10do_scan_isEtPKwS2_
0073a2b0 T __ZNKSt5ctypeIwE10do_scan_isEtPKwS2_
0073a390 t .text$_ZNKSt5ctypeIwE10do_tolowerEPwPKw
0073a390 T __ZNKSt5ctypeIwE10do_tolowerEPwPKw
0073a3e0 t .text$_ZNKSt5ctypeIwE10do_tolowerEw
0073a3e0 T __ZNKSt5ctypeIwE10do_tolowerEw
0073a400 t .text$_ZNKSt5ctypeIwE10do_toupperEPwPKw
0073a400 T __ZNKSt5ctypeIwE10do_toupperEPwPKw
0073a450 t .text$_ZNKSt5ctypeIwE10do_toupperEw
0073a450 T __ZNKSt5ctypeIwE10do_toupperEw
0073a470 t .text$_ZNKSt5ctypeIwE11do_scan_notEtPKwS2_
0073a470 T __ZNKSt5ctypeIwE11do_scan_notEtPKwS2_
0073a550 t .text$_ZNKSt5ctypeIwE19_M_convert_to_wmaskEt
0073a550 T __ZNKSt5ctypeIwE19_M_convert_to_wmaskEt
0073a6a0 t .text$_ZNKSt5ctypeIwE5do_isEPKwS2_Pt
0073a6a0 T __ZNKSt5ctypeIwE5do_isEPKwS2_Pt
0073a730 t .text$_ZNKSt5ctypeIwE5do_isEtw
0073a730 T __ZNKSt5ctypeIwE5do_isEtw
0073a7a0 t .text$_ZNKSt5ctypeIwE8do_widenEPKcS2_Pw
0073a7a0 T __ZNKSt5ctypeIwE8do_widenEPKcS2_Pw
0073a7e0 t .text$_ZNKSt5ctypeIwE8do_widenEc
0073a7e0 T __ZNKSt5ctypeIwE8do_widenEc
0073a800 t .text$_ZNKSt5ctypeIwE9do_narrowEPKwS2_cPc
0073a800 T __ZNKSt5ctypeIwE9do_narrowEPKwS2_cPc
0073a8e0 t .text$_ZNKSt5ctypeIwE9do_narrowEwc
0073a8e0 T __ZNKSt5ctypeIwE9do_narrowEwc
0073a920 t .text$_ZNKSt6locale2id5_M_idEv
0073a920 T __ZNKSt6locale2id5_M_idEv
0073a950 t .text$_ZNKSt6locale4nameB5cxx11Ev
0073a950 T __ZNKSt6locale4nameB5cxx11Ev
0073acb0 t .text$_ZNKSt6locale4nameEv
0073acb0 T __ZNKSt6locale4nameEv
0073af10 t .text$_ZNKSt6locale5facet11_M_cow_shimEPKNS_2idE
0073af10 T __ZNKSt6locale5facet11_M_cow_shimEPKNS_2idE
0073b780 t .text$_ZNKSt6locale5facet11_M_sso_shimEPKNS_2idE
0073b780 T __ZNKSt6locale5facet11_M_sso_shimEPKNS_2idE
0073bff0 t .text$_ZNKSt6locale5facet19_M_remove_referenceEv
0073bff0 T __ZNKSt6locale5facet19_M_remove_referenceEv
0073c010 t .text$_ZNKSt6localeeqERKS_
0073c010 T __ZNKSt6localeeqERKS_
0073c120 t .text$_ZNKSt7__cxx1110moneypunctIcLb0EE10neg_formatEv
0073c120 T __ZNKSt7__cxx1110moneypunctIcLb0EE10neg_formatEv
0073c140 t .text$_ZNKSt7__cxx1110moneypunctIcLb0EE10pos_formatEv
0073c140 T __ZNKSt7__cxx1110moneypunctIcLb0EE10pos_formatEv
0073c160 t .text$_ZNKSt7__cxx1110moneypunctIcLb0EE11curr_symbolEv
0073c160 T __ZNKSt7__cxx1110moneypunctIcLb0EE11curr_symbolEv
0073c1d0 t .text$_ZNKSt7__cxx1110moneypunctIcLb0EE11do_groupingEv
0073c1d0 T __ZNKSt7__cxx1110moneypunctIcLb0EE11do_groupingEv
0073c220 t .text$_ZNKSt7__cxx1110moneypunctIcLb0EE11frac_digitsEv
0073c220 T __ZNKSt7__cxx1110moneypunctIcLb0EE11frac_digitsEv
0073c240 t .text$_ZNKSt7__cxx1110moneypunctIcLb0EE13decimal_pointEv
0073c240 T __ZNKSt7__cxx1110moneypunctIcLb0EE13decimal_pointEv
0073c260 t .text$_ZNKSt7__cxx1110moneypunctIcLb0EE13do_neg_formatEv
0073c260 T __ZNKSt7__cxx1110moneypunctIcLb0EE13do_neg_formatEv
0073c270 t .text$_ZNKSt7__cxx1110moneypunctIcLb0EE13do_pos_formatEv
0073c270 T __ZNKSt7__cxx1110moneypunctIcLb0EE13do_pos_formatEv
0073c280 t .text$_ZNKSt7__cxx1110moneypunctIcLb0EE13negative_signEv
0073c280 T __ZNKSt7__cxx1110moneypunctIcLb0EE13negative_signEv
0073c2f0 t .text$_ZNKSt7__cxx1110moneypunctIcLb0EE13positive_signEv
0073c2f0 T __ZNKSt7__cxx1110moneypunctIcLb0EE13positive_signEv
0073c360 t .text$_ZNKSt7__cxx1110moneypunctIcLb0EE13thousands_sepEv
0073c360 T __ZNKSt7__cxx1110moneypunctIcLb0EE13thousands_sepEv
0073c380 t .text$_ZNKSt7__cxx1110moneypunctIcLb0EE14do_curr_symbolEv
0073c380 T __ZNKSt7__cxx1110moneypunctIcLb0EE14do_curr_symbolEv
0073c3d0 t .text$_ZNKSt7__cxx1110moneypunctIcLb0EE14do_frac_digitsEv
0073c3d0 T __ZNKSt7__cxx1110moneypunctIcLb0EE14do_frac_digitsEv
0073c3e0 t .text$_ZNKSt7__cxx1110moneypunctIcLb0EE16do_decimal_pointEv
0073c3e0 T __ZNKSt7__cxx1110moneypunctIcLb0EE16do_decimal_pointEv
0073c3f0 t .text$_ZNKSt7__cxx1110moneypunctIcLb0EE16do_negative_signEv
0073c3f0 T __ZNKSt7__cxx1110moneypunctIcLb0EE16do_negative_signEv
0073c440 t .text$_ZNKSt7__cxx1110moneypunctIcLb0EE16do_positive_signEv
0073c440 T __ZNKSt7__cxx1110moneypunctIcLb0EE16do_positive_signEv
0073c490 t .text$_ZNKSt7__cxx1110moneypunctIcLb0EE16do_thousands_sepEv
0073c490 T __ZNKSt7__cxx1110moneypunctIcLb0EE16do_thousands_sepEv
0073c4a0 t .text$_ZNKSt7__cxx1110moneypunctIcLb0EE8groupingEv
0073c4a0 T __ZNKSt7__cxx1110moneypunctIcLb0EE8groupingEv
0073c510 t .text$_ZNKSt7__cxx1110moneypunctIcLb1EE10neg_formatEv
0073c510 T __ZNKSt7__cxx1110moneypunctIcLb1EE10neg_formatEv
0073c530 t .text$_ZNKSt7__cxx1110moneypunctIcLb1EE10pos_formatEv
0073c530 T __ZNKSt7__cxx1110moneypunctIcLb1EE10pos_formatEv
0073c550 t .text$_ZNKSt7__cxx1110moneypunctIcLb1EE11curr_symbolEv
0073c550 T __ZNKSt7__cxx1110moneypunctIcLb1EE11curr_symbolEv
0073c5c0 t .text$_ZNKSt7__cxx1110moneypunctIcLb1EE11do_groupingEv
0073c5c0 T __ZNKSt7__cxx1110moneypunctIcLb1EE11do_groupingEv
0073c610 t .text$_ZNKSt7__cxx1110moneypunctIcLb1EE11frac_digitsEv
0073c610 T __ZNKSt7__cxx1110moneypunctIcLb1EE11frac_digitsEv
0073c630 t .text$_ZNKSt7__cxx1110moneypunctIcLb1EE13decimal_pointEv
0073c630 T __ZNKSt7__cxx1110moneypunctIcLb1EE13decimal_pointEv
0073c650 t .text$_ZNKSt7__cxx1110moneypunctIcLb1EE13do_neg_formatEv
0073c650 T __ZNKSt7__cxx1110moneypunctIcLb1EE13do_neg_formatEv
0073c660 t .text$_ZNKSt7__cxx1110moneypunctIcLb1EE13do_pos_formatEv
0073c660 T __ZNKSt7__cxx1110moneypunctIcLb1EE13do_pos_formatEv
0073c670 t .text$_ZNKSt7__cxx1110moneypunctIcLb1EE13negative_signEv
0073c670 T __ZNKSt7__cxx1110moneypunctIcLb1EE13negative_signEv
0073c6e0 t .text$_ZNKSt7__cxx1110moneypunctIcLb1EE13positive_signEv
0073c6e0 T __ZNKSt7__cxx1110moneypunctIcLb1EE13positive_signEv
0073c750 t .text$_ZNKSt7__cxx1110moneypunctIcLb1EE13thousands_sepEv
0073c750 T __ZNKSt7__cxx1110moneypunctIcLb1EE13thousands_sepEv
0073c770 t .text$_ZNKSt7__cxx1110moneypunctIcLb1EE14do_curr_symbolEv
0073c770 T __ZNKSt7__cxx1110moneypunctIcLb1EE14do_curr_symbolEv
0073c7c0 t .text$_ZNKSt7__cxx1110moneypunctIcLb1EE14do_frac_digitsEv
0073c7c0 T __ZNKSt7__cxx1110moneypunctIcLb1EE14do_frac_digitsEv
0073c7d0 t .text$_ZNKSt7__cxx1110moneypunctIcLb1EE16do_decimal_pointEv
0073c7d0 T __ZNKSt7__cxx1110moneypunctIcLb1EE16do_decimal_pointEv
0073c7e0 t .text$_ZNKSt7__cxx1110moneypunctIcLb1EE16do_negative_signEv
0073c7e0 T __ZNKSt7__cxx1110moneypunctIcLb1EE16do_negative_signEv
0073c830 t .text$_ZNKSt7__cxx1110moneypunctIcLb1EE16do_positive_signEv
0073c830 T __ZNKSt7__cxx1110moneypunctIcLb1EE16do_positive_signEv
0073c880 t .text$_ZNKSt7__cxx1110moneypunctIcLb1EE16do_thousands_sepEv
0073c880 T __ZNKSt7__cxx1110moneypunctIcLb1EE16do_thousands_sepEv
0073c890 t .text$_ZNKSt7__cxx1110moneypunctIcLb1EE8groupingEv
0073c890 T __ZNKSt7__cxx1110moneypunctIcLb1EE8groupingEv
0073c900 t .text$_ZNKSt7__cxx1110moneypunctIwLb0EE10neg_formatEv
0073c900 T __ZNKSt7__cxx1110moneypunctIwLb0EE10neg_formatEv
0073c920 t .text$_ZNKSt7__cxx1110moneypunctIwLb0EE10pos_formatEv
0073c920 T __ZNKSt7__cxx1110moneypunctIwLb0EE10pos_formatEv
0073c940 t .text$_ZNKSt7__cxx1110moneypunctIwLb0EE11curr_symbolEv
0073c940 T __ZNKSt7__cxx1110moneypunctIwLb0EE11curr_symbolEv
0073c9b0 t .text$_ZNKSt7__cxx1110moneypunctIwLb0EE11do_groupingEv
0073c9b0 T __ZNKSt7__cxx1110moneypunctIwLb0EE11do_groupingEv
0073ca60 t .text$_ZNKSt7__cxx1110moneypunctIwLb0EE11frac_digitsEv
0073ca60 T __ZNKSt7__cxx1110moneypunctIwLb0EE11frac_digitsEv
0073ca80 t .text$_ZNKSt7__cxx1110moneypunctIwLb0EE13decimal_pointEv
0073ca80 T __ZNKSt7__cxx1110moneypunctIwLb0EE13decimal_pointEv
0073caa0 t .text$_ZNKSt7__cxx1110moneypunctIwLb0EE13do_neg_formatEv
0073caa0 T __ZNKSt7__cxx1110moneypunctIwLb0EE13do_neg_formatEv
0073cab0 t .text$_ZNKSt7__cxx1110moneypunctIwLb0EE13do_pos_formatEv
0073cab0 T __ZNKSt7__cxx1110moneypunctIwLb0EE13do_pos_formatEv
0073cac0 t .text$_ZNKSt7__cxx1110moneypunctIwLb0EE13negative_signEv
0073cac0 T __ZNKSt7__cxx1110moneypunctIwLb0EE13negative_signEv
0073cb30 t .text$_ZNKSt7__cxx1110moneypunctIwLb0EE13positive_signEv
0073cb30 T __ZNKSt7__cxx1110moneypunctIwLb0EE13positive_signEv
0073cba0 t .text$_ZNKSt7__cxx1110moneypunctIwLb0EE13thousands_sepEv
0073cba0 T __ZNKSt7__cxx1110moneypunctIwLb0EE13thousands_sepEv
0073cbc0 t .text$_ZNKSt7__cxx1110moneypunctIwLb0EE14do_curr_symbolEv
0073cbc0 T __ZNKSt7__cxx1110moneypunctIwLb0EE14do_curr_symbolEv
0073cc10 t .text$_ZNKSt7__cxx1110moneypunctIwLb0EE14do_frac_digitsEv
0073cc10 T __ZNKSt7__cxx1110moneypunctIwLb0EE14do_frac_digitsEv
0073cc20 t .text$_ZNKSt7__cxx1110moneypunctIwLb0EE16do_decimal_pointEv
0073cc20 T __ZNKSt7__cxx1110moneypunctIwLb0EE16do_decimal_pointEv
0073cc30 t .text$_ZNKSt7__cxx1110moneypunctIwLb0EE16do_negative_signEv
0073cc30 T __ZNKSt7__cxx1110moneypunctIwLb0EE16do_negative_signEv
0073cc80 t .text$_ZNKSt7__cxx1110moneypunctIwLb0EE16do_positive_signEv
0073cc80 T __ZNKSt7__cxx1110moneypunctIwLb0EE16do_positive_signEv
0073ccd0 t .text$_ZNKSt7__cxx1110moneypunctIwLb0EE16do_thousands_sepEv
0073ccd0 T __ZNKSt7__cxx1110moneypunctIwLb0EE16do_thousands_sepEv
0073cce0 t .text$_ZNKSt7__cxx1110moneypunctIwLb0EE8groupingEv
0073cce0 T __ZNKSt7__cxx1110moneypunctIwLb0EE8groupingEv
0073cdc0 t .text$_ZNKSt7__cxx1110moneypunctIwLb1EE10neg_formatEv
0073cdc0 T __ZNKSt7__cxx1110moneypunctIwLb1EE10neg_formatEv
0073cde0 t .text$_ZNKSt7__cxx1110moneypunctIwLb1EE10pos_formatEv
0073cde0 T __ZNKSt7__cxx1110moneypunctIwLb1EE10pos_formatEv
0073ce00 t .text$_ZNKSt7__cxx1110moneypunctIwLb1EE11curr_symbolEv
0073ce00 T __ZNKSt7__cxx1110moneypunctIwLb1EE11curr_symbolEv
0073ce70 t .text$_ZNKSt7__cxx1110moneypunctIwLb1EE11do_groupingEv
0073ce70 T __ZNKSt7__cxx1110moneypunctIwLb1EE11do_groupingEv
0073cf20 t .text$_ZNKSt7__cxx1110moneypunctIwLb1EE11frac_digitsEv
0073cf20 T __ZNKSt7__cxx1110moneypunctIwLb1EE11frac_digitsEv
0073cf40 t .text$_ZNKSt7__cxx1110moneypunctIwLb1EE13decimal_pointEv
0073cf40 T __ZNKSt7__cxx1110moneypunctIwLb1EE13decimal_pointEv
0073cf60 t .text$_ZNKSt7__cxx1110moneypunctIwLb1EE13do_neg_formatEv
0073cf60 T __ZNKSt7__cxx1110moneypunctIwLb1EE13do_neg_formatEv
0073cf70 t .text$_ZNKSt7__cxx1110moneypunctIwLb1EE13do_pos_formatEv
0073cf70 T __ZNKSt7__cxx1110moneypunctIwLb1EE13do_pos_formatEv
0073cf80 t .text$_ZNKSt7__cxx1110moneypunctIwLb1EE13negative_signEv
0073cf80 T __ZNKSt7__cxx1110moneypunctIwLb1EE13negative_signEv
0073cff0 t .text$_ZNKSt7__cxx1110moneypunctIwLb1EE13positive_signEv
0073cff0 T __ZNKSt7__cxx1110moneypunctIwLb1EE13positive_signEv
0073d060 t .text$_ZNKSt7__cxx1110moneypunctIwLb1EE13thousands_sepEv
0073d060 T __ZNKSt7__cxx1110moneypunctIwLb1EE13thousands_sepEv
0073d080 t .text$_ZNKSt7__cxx1110moneypunctIwLb1EE14do_curr_symbolEv
0073d080 T __ZNKSt7__cxx1110moneypunctIwLb1EE14do_curr_symbolEv
0073d0d0 t .text$_ZNKSt7__cxx1110moneypunctIwLb1EE14do_frac_digitsEv
0073d0d0 T __ZNKSt7__cxx1110moneypunctIwLb1EE14do_frac_digitsEv
0073d0e0 t .text$_ZNKSt7__cxx1110moneypunctIwLb1EE16do_decimal_pointEv
0073d0e0 T __ZNKSt7__cxx1110moneypunctIwLb1EE16do_decimal_pointEv
0073d0f0 t .text$_ZNKSt7__cxx1110moneypunctIwLb1EE16do_negative_signEv
0073d0f0 T __ZNKSt7__cxx1110moneypunctIwLb1EE16do_negative_signEv
0073d140 t .text$_ZNKSt7__cxx1110moneypunctIwLb1EE16do_positive_signEv
0073d140 T __ZNKSt7__cxx1110moneypunctIwLb1EE16do_positive_signEv
0073d190 t .text$_ZNKSt7__cxx1110moneypunctIwLb1EE16do_thousands_sepEv
0073d190 T __ZNKSt7__cxx1110moneypunctIwLb1EE16do_thousands_sepEv
0073d1a0 t .text$_ZNKSt7__cxx1110moneypunctIwLb1EE8groupingEv
0073d1a0 T __ZNKSt7__cxx1110moneypunctIwLb1EE8groupingEv
0073d280 t .text$_ZNKSt7__cxx1112basic_stringIcSt11char_traitsIcESaIcEE11_M_disjunctEPKc
0073d280 T __ZNKSt7__cxx1112basic_stringIcSt11char_traitsIcESaIcEE11_M_disjunctEPKc
0073d2a0 t .text$_ZNKSt7__cxx1112basic_stringIcSt11char_traitsIcESaIcEE11_M_is_localEv
0073d2a0 T __ZNKSt7__cxx1112basic_stringIcSt11char_traitsIcESaIcEE11_M_is_localEv
0073d2b0 t .text$_ZNKSt7__cxx1112basic_stringIcSt11char_traitsIcESaIcEE12find_last_ofEPKcj
0073d2b0 T __ZNKSt7__cxx1112basic_stringIcSt11char_traitsIcESaIcEE12find_last_ofEPKcj
0073d2f0 t .text$_ZNKSt7__cxx1112basic_stringIcSt11char_traitsIcESaIcEE12find_last_ofEPKcjj
0073d2f0 T __ZNKSt7__cxx1112basic_stringIcSt11char_traitsIcESaIcEE12find_last_ofEPKcjj
0073d370 t .text$_ZNKSt7__cxx1112basic_stringIcSt11char_traitsIcESaIcEE12find_last_ofERKS4_j
0073d370 T __ZNKSt7__cxx1112basic_stringIcSt11char_traitsIcESaIcEE12find_last_ofERKS4_j
0073d3a0 t .text$_ZNKSt7__cxx1112basic_stringIcSt11char_traitsIcESaIcEE12find_last_ofEcj
0073d3a0 T __ZNKSt7__cxx1112basic_stringIcSt11char_traitsIcESaIcEE12find_last_ofEcj
0073d3b0 t .text$_ZNKSt7__cxx1112basic_stringIcSt11char_traitsIcESaIcEE13_M_local_dataEv
0073d3b0 T __ZNKSt7__cxx1112basic_stringIcSt11char_traitsIcESaIcEE13_M_local_dataEv
0073d3c0 t .text$_ZNKSt7__cxx1112basic_stringIcSt11char_traitsIcESaIcEE13find_first_ofEPKcj
0073d3c0 T __ZNKSt7__cxx1112basic_stringIcSt11char_traitsIcESaIcEE13find_first_ofEPKcj
0073d400 t .text$_ZNKSt7__cxx1112basic_stringIcSt11char_traitsIcESaIcEE13find_first_ofEPKcjj
0073d400 T __ZNKSt7__cxx1112basic_stringIcSt11char_traitsIcESaIcEE13find_first_ofEPKcjj
0073d470 t .text$_ZNKSt7__cxx1112basic_stringIcSt11char_traitsIcESaIcEE13find_first_ofERKS4_j
0073d470 T __ZNKSt7__cxx1112basic_stringIcSt11char_traitsIcESaIcEE13find_first_ofERKS4_j
0073d4a0 t .text$_ZNKSt7__cxx1112basic_stringIcSt11char_traitsIcESaIcEE13find_first_ofEcj
0073d4a0 T __ZNKSt7__cxx1112basic_stringIcSt11char_traitsIcESaIcEE13find_first_ofEcj
0073d4b0 t .text$_ZNKSt7__cxx1112basic_stringIcSt11char_traitsIcESaIcEE13get_allocatorEv
0073d4b0 T __ZNKSt7__cxx1112basic_stringIcSt11char_traitsIcESaIcEE13get_allocatorEv
0073d4c0 t .text$_ZNKSt7__cxx1112basic_stringIcSt11char_traitsIcESaIcEE15_M_check_lengthEjjPKc
0073d4c0 T __ZNKSt7__cxx1112basic_stringIcSt11char_traitsIcESaIcEE15_M_check_lengthEjjPKc
0073d4f0 t .text$_ZNKSt7__cxx1112basic_stringIcSt11char_traitsIcESaIcEE16_M_get_allocatorEv
0073d4f0 T __ZNKSt7__cxx1112basic_stringIcSt11char_traitsIcESaIcEE16_M_get_allocatorEv
0073d500 t .text$_ZNKSt7__cxx1112basic_stringIcSt11char_traitsIcESaIcEE16find_last_not_ofEPKcj
0073d500 T __ZNKSt7__cxx1112basic_stringIcSt11char_traitsIcESaIcEE16find_last_not_ofEPKcj
0073d540 t .text$_ZNKSt7__cxx1112basic_stringIcSt11char_traitsIcESaIcEE16find_last_not_ofEPKcjj
0073d540 T __ZNKSt7__cxx1112basic_stringIcSt11char_traitsIcESaIcEE16find_last_not_ofEPKcjj
0073d5c0 t .text$_ZNKSt7__cxx1112basic_stringIcSt11char_traitsIcESaIcEE16find_last_not_ofERKS4_j
0073d5c0 T __ZNKSt7__cxx1112basic_stringIcSt11char_traitsIcESaIcEE16find_last_not_ofERKS4_j
0073d5f0 t .text$_ZNKSt7__cxx1112basic_stringIcSt11char_traitsIcESaIcEE16find_last_not_ofEcj
0073d5f0 T __ZNKSt7__cxx1112basic_stringIcSt11char_traitsIcESaIcEE16find_last_not_ofEcj
0073d630 t .text$_ZNKSt7__cxx1112basic_stringIcSt11char_traitsIcESaIcEE17find_first_not_ofEPKcj
0073d630 T __ZNKSt7__cxx1112basic_stringIcSt11char_traitsIcESaIcEE17find_first_not_ofEPKcj
0073d670 t .text$_ZNKSt7__cxx1112basic_stringIcSt11char_traitsIcESaIcEE17find_first_not_ofEPKcjj
0073d670 T __ZNKSt7__cxx1112basic_stringIcSt11char_traitsIcESaIcEE17find_first_not_ofEPKcjj
0073d6f0 t .text$_ZNKSt7__cxx1112basic_stringIcSt11char_traitsIcESaIcEE17find_first_not_ofERKS4_j
0073d6f0 T __ZNKSt7__cxx1112basic_stringIcSt11char_traitsIcESaIcEE17find_first_not_ofERKS4_j
0073d720 t .text$_ZNKSt7__cxx1112basic_stringIcSt11char_traitsIcESaIcEE17find_first_not_ofEcj
0073d720 T __ZNKSt7__cxx1112basic_stringIcSt11char_traitsIcESaIcEE17find_first_not_ofEcj
0073d750 t .text$_ZNKSt7__cxx1112basic_stringIcSt11char_traitsIcESaIcEE2atEj
0073d750 T __ZNKSt7__cxx1112basic_stringIcSt11char_traitsIcESaIcEE2atEj
0073d780 t .text$_ZNKSt7__cxx1112basic_stringIcSt11char_traitsIcESaIcEE3endEv
0073d780 T __ZNKSt7__cxx1112basic_stringIcSt11char_traitsIcESaIcEE3endEv
0073d790 t .text$_ZNKSt7__cxx1112basic_stringIcSt11char_traitsIcESaIcEE4backEv
0073d790 T __ZNKSt7__cxx1112basic_stringIcSt11char_traitsIcESaIcEE4backEv
0073d7a0 t .text$_ZNKSt7__cxx1112basic_stringIcSt11char_traitsIcESaIcEE4cendEv
0073d7a0 T __ZNKSt7__cxx1112basic_stringIcSt11char_traitsIcESaIcEE4cendEv
0073d7b0 t .text$_ZNKSt7__cxx1112basic_stringIcSt11char_traitsIcESaIcEE4copyEPcjj
0073d7b0 T __ZNKSt7__cxx1112basic_stringIcSt11char_traitsIcESaIcEE4copyEPcjj
0073d830 t .text$_ZNKSt7__cxx1112basic_stringIcSt11char_traitsIcESaIcEE4dataEv
0073d830 T __ZNKSt7__cxx1112basic_stringIcSt11char_traitsIcESaIcEE4dataEv
0073d840 t .text$_ZNKSt7__cxx1112basic_stringIcSt11char_traitsIcESaIcEE4findEPKcj
0073d840 T __ZNKSt7__cxx1112basic_stringIcSt11char_traitsIcESaIcEE4findEPKcj
0073d880 t .text$_ZNKSt7__cxx1112basic_stringIcSt11char_traitsIcESaIcEE4findEPKcjj
0073d880 T __ZNKSt7__cxx1112basic_stringIcSt11char_traitsIcESaIcEE4findEPKcjj
0073d940 t .text$_ZNKSt7__cxx1112basic_stringIcSt11char_traitsIcESaIcEE4findERKS4_j
0073d940 T __ZNKSt7__cxx1112basic_stringIcSt11char_traitsIcESaIcEE4findERKS4_j
0073d970 t .text$_ZNKSt7__cxx1112basic_stringIcSt11char_traitsIcESaIcEE4findEcj
0073d970 T __ZNKSt7__cxx1112basic_stringIcSt11char_traitsIcESaIcEE4findEcj
0073d9c0 t .text$_ZNKSt7__cxx1112basic_stringIcSt11char_traitsIcESaIcEE4rendEv
0073d9c0 T __ZNKSt7__cxx1112basic_stringIcSt11char_traitsIcESaIcEE4rendEv
0073d9d0 t .text$_ZNKSt7__cxx1112basic_stringIcSt11char_traitsIcESaIcEE4sizeEv
0073d9d0 T __ZNKSt7__cxx1112basic_stringIcSt11char_traitsIcESaIcEE4sizeEv
0073d9e0 t .text$_ZNKSt7__cxx1112basic_stringIcSt11char_traitsIcESaIcEE5beginEv
0073d9e0 T __ZNKSt7__cxx1112basic_stringIcSt11char_traitsIcESaIcEE5beginEv
0073d9f0 t .text$_ZNKSt7__cxx1112basic_stringIcSt11char_traitsIcESaIcEE5c_strEv
0073d9f0 T __ZNKSt7__cxx1112basic_stringIcSt11char_traitsIcESaIcEE5c_strEv
0073da00 t .text$_ZNKSt7__cxx1112basic_stringIcSt11char_traitsIcESaIcEE5crendEv
0073da00 T __ZNKSt7__cxx1112basic_stringIcSt11char_traitsIcESaIcEE5crendEv
0073da10 t .text$_ZNKSt7__cxx1112basic_stringIcSt11char_traitsIcESaIcEE5emptyEv
0073da10 T __ZNKSt7__cxx1112basic_stringIcSt11char_traitsIcESaIcEE5emptyEv
0073da20 t .text$_ZNKSt7__cxx1112basic_stringIcSt11char_traitsIcESaIcEE5frontEv
0073da20 T __ZNKSt7__cxx1112basic_stringIcSt11char_traitsIcESaIcEE5frontEv
0073da30 t .text$_ZNKSt7__cxx1112basic_stringIcSt11char_traitsIcESaIcEE5rfindEPKcj
0073da30 T __ZNKSt7__cxx1112basic_stringIcSt11char_traitsIcESaIcEE5rfindEPKcj
0073da70 t .text$_ZNKSt7__cxx1112basic_stringIcSt11char_traitsIcESaIcEE5rfindEPKcjj
0073da70 T __ZNKSt7__cxx1112basic_stringIcSt11char_traitsIcESaIcEE5rfindEPKcjj
0073daf0 t .text$_ZNKSt7__cxx1112basic_stringIcSt11char_traitsIcESaIcEE5rfindERKS4_j
0073daf0 T __ZNKSt7__cxx1112basic_stringIcSt11char_traitsIcESaIcEE5rfindERKS4_j
0073db20 t .text$_ZNKSt7__cxx1112basic_stringIcSt11char_traitsIcESaIcEE5rfindEcj
0073db20 T __ZNKSt7__cxx1112basic_stringIcSt11char_traitsIcESaIcEE5rfindEcj
0073db70 t .text$_ZNKSt7__cxx1112basic_stringIcSt11char_traitsIcESaIcEE6cbeginEv
0073db70 T __ZNKSt7__cxx1112basic_stringIcSt11char_traitsIcESaIcEE6cbeginEv
0073db80 t .text$_ZNKSt7__cxx1112basic_stringIcSt11char_traitsIcESaIcEE6lengthEv
0073db80 T __ZNKSt7__cxx1112basic_stringIcSt11char_traitsIcESaIcEE6lengthEv
0073db90 t .text$_ZNKSt7__cxx1112basic_stringIcSt11char_traitsIcESaIcEE6rbeginEv
0073db90 T __ZNKSt7__cxx1112basic_stringIcSt11char_traitsIcESaIcEE6rbeginEv
0073dba0 t .text$_ZNKSt7__cxx1112basic_stringIcSt11char_traitsIcESaIcEE6substrEjj
0073dba0 T __ZNKSt7__cxx1112basic_stringIcSt11char_traitsIcESaIcEE6substrEjj
0073dc10 t .text$_ZNKSt7__cxx1112basic_stringIcSt11char_traitsIcESaIcEE7_M_dataEv
0073dc10 T __ZNKSt7__cxx1112basic_stringIcSt11char_traitsIcESaIcEE7_M_dataEv
0073dc20 t .text$_ZNKSt7__cxx1112basic_stringIcSt11char_traitsIcESaIcEE7compareEPKc
0073dc20 T __ZNKSt7__cxx1112basic_stringIcSt11char_traitsIcESaIcEE7compareEPKc
0073dc70 t .text$_ZNKSt7__cxx1112basic_stringIcSt11char_traitsIcESaIcEE7compareERKS4_
0073dc70 T __ZNKSt7__cxx1112basic_stringIcSt11char_traitsIcESaIcEE7compareERKS4_
0073dcb0 t .text$_ZNKSt7__cxx1112basic_stringIcSt11char_traitsIcESaIcEE7compareEjjPKc
0073dcb0 T __ZNKSt7__cxx1112basic_stringIcSt11char_traitsIcESaIcEE7compareEjjPKc
0073dd30 t .text$_ZNKSt7__cxx1112basic_stringIcSt11char_traitsIcESaIcEE7compareEjjPKcj
0073dd30 T __ZNKSt7__cxx1112basic_stringIcSt11char_traitsIcESaIcEE7compareEjjPKcj
0073dda0 t .text$_ZNKSt7__cxx1112basic_stringIcSt11char_traitsIcESaIcEE7compareEjjRKS4_
0073dda0 T __ZNKSt7__cxx1112basic_stringIcSt11char_traitsIcESaIcEE7compareEjjRKS4_
0073de10 t .text$_ZNKSt7__cxx1112basic_stringIcSt11char_traitsIcESaIcEE7compareEjjRKS4_jj
0073de10 T __ZNKSt7__cxx1112basic_stringIcSt11char_traitsIcESaIcEE7compareEjjRKS4_jj
0073dec0 t .text$_ZNKSt7__cxx1112basic_stringIcSt11char_traitsIcESaIcEE7crbeginEv
0073dec0 T __ZNKSt7__cxx1112basic_stringIcSt11char_traitsIcESaIcEE7crbeginEv
0073ded0 t .text$_ZNKSt7__cxx1112basic_stringIcSt11char_traitsIcESaIcEE8_M_checkEjPKc
0073ded0 T __ZNKSt7__cxx1112basic_stringIcSt11char_traitsIcESaIcEE8_M_checkEjPKc
0073df00 t .text$_ZNKSt7__cxx1112basic_stringIcSt11char_traitsIcESaIcEE8_M_limitEjj
0073df00 T __ZNKSt7__cxx1112basic_stringIcSt11char_traitsIcESaIcEE8_M_limitEjj
0073df20 t .text$_ZNKSt7__cxx1112basic_stringIcSt11char_traitsIcESaIcEE8capacityEv
0073df20 T __ZNKSt7__cxx1112basic_stringIcSt11char_traitsIcESaIcEE8capacityEv
0073df40 t .text$_ZNKSt7__cxx1112basic_stringIcSt11char_traitsIcESaIcEE8max_sizeEv
0073df40 T __ZNKSt7__cxx1112basic_stringIcSt11char_traitsIcESaIcEE8max_sizeEv
0073df50 t .text$_ZNKSt7__cxx1112basic_stringIcSt11char_traitsIcESaIcEEixEj
0073df50 T __ZNKSt7__cxx1112basic_stringIcSt11char_traitsIcESaIcEEixEj
0073df60 t .text$_ZNKSt7__cxx1112basic_stringIwSt11char_traitsIwESaIwEE11_M_disjunctEPKw
0073df60 T __ZNKSt7__cxx1112basic_stringIwSt11char_traitsIwESaIwEE11_M_disjunctEPKw
0073df90 t .text$_ZNKSt7__cxx1112basic_stringIwSt11char_traitsIwESaIwEE11_M_is_localEv
0073df90 T __ZNKSt7__cxx1112basic_stringIwSt11char_traitsIwESaIwEE11_M_is_localEv
0073dfa0 t .text$_ZNKSt7__cxx1112basic_stringIwSt11char_traitsIwESaIwEE12find_last_ofEPKwj
0073dfa0 T __ZNKSt7__cxx1112basic_stringIwSt11char_traitsIwESaIwEE12find_last_ofEPKwj
0073dfe0 t .text$_ZNKSt7__cxx1112basic_stringIwSt11char_traitsIwESaIwEE12find_last_ofEPKwjj
0073dfe0 T __ZNKSt7__cxx1112basic_stringIwSt11char_traitsIwESaIwEE12find_last_ofEPKwjj
0073e060 t .text$_ZNKSt7__cxx1112basic_stringIwSt11char_traitsIwESaIwEE12find_last_ofERKS4_j
0073e060 T __ZNKSt7__cxx1112basic_stringIwSt11char_traitsIwESaIwEE12find_last_ofERKS4_j
0073e090 t .text$_ZNKSt7__cxx1112basic_stringIwSt11char_traitsIwESaIwEE12find_last_ofEwj
0073e090 T __ZNKSt7__cxx1112basic_stringIwSt11char_traitsIwESaIwEE12find_last_ofEwj
0073e0a0 t .text$_ZNKSt7__cxx1112basic_stringIwSt11char_traitsIwESaIwEE13_M_local_dataEv
0073e0a0 T __ZNKSt7__cxx1112basic_stringIwSt11char_traitsIwESaIwEE13_M_local_dataEv
0073e0b0 t .text$_ZNKSt7__cxx1112basic_stringIwSt11char_traitsIwESaIwEE13find_first_ofEPKwj
0073e0b0 T __ZNKSt7__cxx1112basic_stringIwSt11char_traitsIwESaIwEE13find_first_ofEPKwj
0073e0f0 t .text$_ZNKSt7__cxx1112basic_stringIwSt11char_traitsIwESaIwEE13find_first_ofEPKwjj
0073e0f0 T __ZNKSt7__cxx1112basic_stringIwSt11char_traitsIwESaIwEE13find_first_ofEPKwjj
0073e150 t .text$_ZNKSt7__cxx1112basic_stringIwSt11char_traitsIwESaIwEE13find_first_ofERKS4_j
0073e150 T __ZNKSt7__cxx1112basic_stringIwSt11char_traitsIwESaIwEE13find_first_ofERKS4_j
0073e180 t .text$_ZNKSt7__cxx1112basic_stringIwSt11char_traitsIwESaIwEE13find_first_ofEwj
0073e180 T __ZNKSt7__cxx1112basic_stringIwSt11char_traitsIwESaIwEE13find_first_ofEwj
0073e190 t .text$_ZNKSt7__cxx1112basic_stringIwSt11char_traitsIwESaIwEE13get_allocatorEv
0073e190 T __ZNKSt7__cxx1112basic_stringIwSt11char_traitsIwESaIwEE13get_allocatorEv
0073e1a0 t .text$_ZNKSt7__cxx1112basic_stringIwSt11char_traitsIwESaIwEE15_M_check_lengthEjjPKc
0073e1a0 T __ZNKSt7__cxx1112basic_stringIwSt11char_traitsIwESaIwEE15_M_check_lengthEjjPKc
0073e1d0 t .text$_ZNKSt7__cxx1112basic_stringIwSt11char_traitsIwESaIwEE16_M_get_allocatorEv
0073e1d0 T __ZNKSt7__cxx1112basic_stringIwSt11char_traitsIwESaIwEE16_M_get_allocatorEv
0073e1e0 t .text$_ZNKSt7__cxx1112basic_stringIwSt11char_traitsIwESaIwEE16find_last_not_ofEPKwj
0073e1e0 T __ZNKSt7__cxx1112basic_stringIwSt11char_traitsIwESaIwEE16find_last_not_ofEPKwj
0073e220 t .text$_ZNKSt7__cxx1112basic_stringIwSt11char_traitsIwESaIwEE16find_last_not_ofEPKwjj
0073e220 T __ZNKSt7__cxx1112basic_stringIwSt11char_traitsIwESaIwEE16find_last_not_ofEPKwjj
0073e2a0 t .text$_ZNKSt7__cxx1112basic_stringIwSt11char_traitsIwESaIwEE16find_last_not_ofERKS4_j
0073e2a0 T __ZNKSt7__cxx1112basic_stringIwSt11char_traitsIwESaIwEE16find_last_not_ofERKS4_j
0073e2d0 t .text$_ZNKSt7__cxx1112basic_stringIwSt11char_traitsIwESaIwEE16find_last_not_ofEwj
0073e2d0 T __ZNKSt7__cxx1112basic_stringIwSt11char_traitsIwESaIwEE16find_last_not_ofEwj
0073e310 t .text$_ZNKSt7__cxx1112basic_stringIwSt11char_traitsIwESaIwEE17find_first_not_ofEPKwj
0073e310 T __ZNKSt7__cxx1112basic_stringIwSt11char_traitsIwESaIwEE17find_first_not_ofEPKwj
0073e350 t .text$_ZNKSt7__cxx1112basic_stringIwSt11char_traitsIwESaIwEE17find_first_not_ofEPKwjj
0073e350 T __ZNKSt7__cxx1112basic_stringIwSt11char_traitsIwESaIwEE17find_first_not_ofEPKwjj
0073e3c0 t .text$_ZNKSt7__cxx1112basic_stringIwSt11char_traitsIwESaIwEE17find_first_not_ofERKS4_j
0073e3c0 T __ZNKSt7__cxx1112basic_stringIwSt11char_traitsIwESaIwEE17find_first_not_ofERKS4_j
0073e3f0 t .text$_ZNKSt7__cxx1112basic_stringIwSt11char_traitsIwESaIwEE17find_first_not_ofEwj
0073e3f0 T __ZNKSt7__cxx1112basic_stringIwSt11char_traitsIwESaIwEE17find_first_not_ofEwj
0073e420 t .text$_ZNKSt7__cxx1112basic_stringIwSt11char_traitsIwESaIwEE2atEj
0073e420 T __ZNKSt7__cxx1112basic_stringIwSt11char_traitsIwESaIwEE2atEj
0073e450 t .text$_ZNKSt7__cxx1112basic_stringIwSt11char_traitsIwESaIwEE3endEv
0073e450 T __ZNKSt7__cxx1112basic_stringIwSt11char_traitsIwESaIwEE3endEv
0073e460 t .text$_ZNKSt7__cxx1112basic_stringIwSt11char_traitsIwESaIwEE4backEv
0073e460 T __ZNKSt7__cxx1112basic_stringIwSt11char_traitsIwESaIwEE4backEv
0073e470 t .text$_ZNKSt7__cxx1112basic_stringIwSt11char_traitsIwESaIwEE4cendEv
0073e470 T __ZNKSt7__cxx1112basic_stringIwSt11char_traitsIwESaIwEE4cendEv
0073e480 t .text$_ZNKSt7__cxx1112basic_stringIwSt11char_traitsIwESaIwEE4copyEPwjj
0073e480 T __ZNKSt7__cxx1112basic_stringIwSt11char_traitsIwESaIwEE4copyEPwjj
0073e510 t .text$_ZNKSt7__cxx1112basic_stringIwSt11char_traitsIwESaIwEE4dataEv
0073e510 T __ZNKSt7__cxx1112basic_stringIwSt11char_traitsIwESaIwEE4dataEv
0073e520 t .text$_ZNKSt7__cxx1112basic_stringIwSt11char_traitsIwESaIwEE4findEPKwj
0073e520 T __ZNKSt7__cxx1112basic_stringIwSt11char_traitsIwESaIwEE4findEPKwj
0073e560 t .text$_ZNKSt7__cxx1112basic_stringIwSt11char_traitsIwESaIwEE4findEPKwjj
0073e560 T __ZNKSt7__cxx1112basic_stringIwSt11char_traitsIwESaIwEE4findEPKwjj
0073e650 t .text$_ZNKSt7__cxx1112basic_stringIwSt11char_traitsIwESaIwEE4findERKS4_j
0073e650 T __ZNKSt7__cxx1112basic_stringIwSt11char_traitsIwESaIwEE4findERKS4_j
0073e680 t .text$_ZNKSt7__cxx1112basic_stringIwSt11char_traitsIwESaIwEE4findEwj
0073e680 T __ZNKSt7__cxx1112basic_stringIwSt11char_traitsIwESaIwEE4findEwj
0073e6e0 t .text$_ZNKSt7__cxx1112basic_stringIwSt11char_traitsIwESaIwEE4rendEv
0073e6e0 T __ZNKSt7__cxx1112basic_stringIwSt11char_traitsIwESaIwEE4rendEv
0073e6f0 t .text$_ZNKSt7__cxx1112basic_stringIwSt11char_traitsIwESaIwEE4sizeEv
0073e6f0 T __ZNKSt7__cxx1112basic_stringIwSt11char_traitsIwESaIwEE4sizeEv
0073e700 t .text$_ZNKSt7__cxx1112basic_stringIwSt11char_traitsIwESaIwEE5beginEv
0073e700 T __ZNKSt7__cxx1112basic_stringIwSt11char_traitsIwESaIwEE5beginEv
0073e710 t .text$_ZNKSt7__cxx1112basic_stringIwSt11char_traitsIwESaIwEE5c_strEv
0073e710 T __ZNKSt7__cxx1112basic_stringIwSt11char_traitsIwESaIwEE5c_strEv
0073e720 t .text$_ZNKSt7__cxx1112basic_stringIwSt11char_traitsIwESaIwEE5crendEv
0073e720 T __ZNKSt7__cxx1112basic_stringIwSt11char_traitsIwESaIwEE5crendEv
0073e730 t .text$_ZNKSt7__cxx1112basic_stringIwSt11char_traitsIwESaIwEE5emptyEv
0073e730 T __ZNKSt7__cxx1112basic_stringIwSt11char_traitsIwESaIwEE5emptyEv
0073e740 t .text$_ZNKSt7__cxx1112basic_stringIwSt11char_traitsIwESaIwEE5frontEv
0073e740 T __ZNKSt7__cxx1112basic_stringIwSt11char_traitsIwESaIwEE5frontEv
0073e750 t .text$_ZNKSt7__cxx1112basic_stringIwSt11char_traitsIwESaIwEE5rfindEPKwj
0073e750 T __ZNKSt7__cxx1112basic_stringIwSt11char_traitsIwESaIwEE5rfindEPKwj
0073e7a0 t .text$_ZNKSt7__cxx1112basic_stringIwSt11char_traitsIwESaIwEE5rfindEPKwjj
0073e7a0 T __ZNKSt7__cxx1112basic_stringIwSt11char_traitsIwESaIwEE5rfindEPKwjj
0073e840 t .text$_ZNKSt7__cxx1112basic_stringIwSt11char_traitsIwESaIwEE5rfindERKS4_j
0073e840 T __ZNKSt7__cxx1112basic_stringIwSt11char_traitsIwESaIwEE5rfindERKS4_j
0073e870 t .text$_ZNKSt7__cxx1112basic_stringIwSt11char_traitsIwESaIwEE5rfindEwj
0073e870 T __ZNKSt7__cxx1112basic_stringIwSt11char_traitsIwESaIwEE5rfindEwj
0073e8c0 t .text$_ZNKSt7__cxx1112basic_stringIwSt11char_traitsIwESaIwEE6cbeginEv
0073e8c0 T __ZNKSt7__cxx1112basic_stringIwSt11char_traitsIwESaIwEE6cbeginEv
0073e8d0 t .text$_ZNKSt7__cxx1112basic_stringIwSt11char_traitsIwESaIwEE6lengthEv
0073e8d0 T __ZNKSt7__cxx1112basic_stringIwSt11char_traitsIwESaIwEE6lengthEv
0073e8e0 t .text$_ZNKSt7__cxx1112basic_stringIwSt11char_traitsIwESaIwEE6rbeginEv
0073e8e0 T __ZNKSt7__cxx1112basic_stringIwSt11char_traitsIwESaIwEE6rbeginEv
0073e900 t .text$_ZNKSt7__cxx1112basic_stringIwSt11char_traitsIwESaIwEE6substrEjj
0073e900 T __ZNKSt7__cxx1112basic_stringIwSt11char_traitsIwESaIwEE6substrEjj
0073e970 t .text$_ZNKSt7__cxx1112basic_stringIwSt11char_traitsIwESaIwEE7_M_dataEv
0073e970 T __ZNKSt7__cxx1112basic_stringIwSt11char_traitsIwESaIwEE7_M_dataEv
0073e980 t .text$_ZNKSt7__cxx1112basic_stringIwSt11char_traitsIwESaIwEE7compareEPKw
0073e980 T __ZNKSt7__cxx1112basic_stringIwSt11char_traitsIwESaIwEE7compareEPKw
0073ea20 t .text$_ZNKSt7__cxx1112basic_stringIwSt11char_traitsIwESaIwEE7compareERKS4_
0073ea20 T __ZNKSt7__cxx1112basic_stringIwSt11char_traitsIwESaIwEE7compareERKS4_
0073eac0 t .text$_ZNKSt7__cxx1112basic_stringIwSt11char_traitsIwESaIwEE7compareEjjPKw
0073eac0 T __ZNKSt7__cxx1112basic_stringIwSt11char_traitsIwESaIwEE7compareEjjPKw
0073eba0 t .text$_ZNKSt7__cxx1112basic_stringIwSt11char_traitsIwESaIwEE7compareEjjPKwj
0073eba0 T __ZNKSt7__cxx1112basic_stringIwSt11char_traitsIwESaIwEE7compareEjjPKwj
0073ec60 t .text$_ZNKSt7__cxx1112basic_stringIwSt11char_traitsIwESaIwEE7compareEjjRKS4_
0073ec60 T __ZNKSt7__cxx1112basic_stringIwSt11char_traitsIwESaIwEE7compareEjjRKS4_
0073ed40 t .text$_ZNKSt7__cxx1112basic_stringIwSt11char_traitsIwESaIwEE7compareEjjRKS4_jj
0073ed40 T __ZNKSt7__cxx1112basic_stringIwSt11char_traitsIwESaIwEE7compareEjjRKS4_jj
0073ee60 t .text$_ZNKSt7__cxx1112basic_stringIwSt11char_traitsIwESaIwEE7crbeginEv
0073ee60 T __ZNKSt7__cxx1112basic_stringIwSt11char_traitsIwESaIwEE7crbeginEv
0073ee80 t .text$_ZNKSt7__cxx1112basic_stringIwSt11char_traitsIwESaIwEE8_M_checkEjPKc
0073ee80 T __ZNKSt7__cxx1112basic_stringIwSt11char_traitsIwESaIwEE8_M_checkEjPKc
0073eeb0 t .text$_ZNKSt7__cxx1112basic_stringIwSt11char_traitsIwESaIwEE8_M_limitEjj
0073eeb0 T __ZNKSt7__cxx1112basic_stringIwSt11char_traitsIwESaIwEE8_M_limitEjj
0073eed0 t .text$_ZNKSt7__cxx1112basic_stringIwSt11char_traitsIwESaIwEE8capacityEv
0073eed0 T __ZNKSt7__cxx1112basic_stringIwSt11char_traitsIwESaIwEE8capacityEv
0073eef0 t .text$_ZNKSt7__cxx1112basic_stringIwSt11char_traitsIwESaIwEE8max_sizeEv
0073eef0 T __ZNKSt7__cxx1112basic_stringIwSt11char_traitsIwESaIwEE8max_sizeEv
0073ef00 t .text$_ZNKSt7__cxx1112basic_stringIwSt11char_traitsIwESaIwEEixEj
0073ef00 T __ZNKSt7__cxx1112basic_stringIwSt11char_traitsIwESaIwEEixEj
0073ef10 t .text$_ZNKSt7__cxx117collateIcE10_M_compareEPKcS3_
0073ef10 T __ZNKSt7__cxx117collateIcE10_M_compareEPKcS3_
0073ef40 t .text$_ZNKSt7__cxx117collateIcE10do_compareEPKcS3_S3_S3_
0073ef40 T __ZNKSt7__cxx117collateIcE10do_compareEPKcS3_S3_S3_
0073f060 t .text$_ZNKSt7__cxx117collateIcE12_M_transformEPcPKcj
0073f060 T __ZNKSt7__cxx117collateIcE12_M_transformEPcPKcj
0073f090 t .text$_ZNKSt7__cxx117collateIcE12do_transformEPKcS3_
0073f090 T __ZNKSt7__cxx117collateIcE12do_transformEPKcS3_
0073f340 t .text$_ZNKSt7__cxx117collateIcE4hashEPKcS3_
0073f340 T __ZNKSt7__cxx117collateIcE4hashEPKcS3_
0073f350 t .text$_ZNKSt7__cxx117collateIcE7compareEPKcS3_S3_S3_
0073f350 T __ZNKSt7__cxx117collateIcE7compareEPKcS3_S3_S3_
0073f360 t .text$_ZNKSt7__cxx117collateIcE7do_hashEPKcS3_
0073f360 T __ZNKSt7__cxx117collateIcE7do_hashEPKcS3_
0073f390 t .text$_ZNKSt7__cxx117collateIcE9transformEPKcS3_
0073f390 T __ZNKSt7__cxx117collateIcE9transformEPKcS3_
0073f3c0 t .text$_ZNKSt7__cxx117collateIwE10_M_compareEPKwS3_
0073f3c0 T __ZNKSt7__cxx117collateIwE10_M_compareEPKwS3_
0073f3f0 t .text$_ZNKSt7__cxx117collateIwE10do_compareEPKwS3_S3_S3_
0073f3f0 T __ZNKSt7__cxx117collateIwE10do_compareEPKwS3_S3_S3_
0073f510 t .text$_ZNKSt7__cxx117collateIwE12_M_transformEPwPKwj
0073f510 T __ZNKSt7__cxx117collateIwE12_M_transformEPwPKwj
0073f540 t .text$_ZNKSt7__cxx117collateIwE12do_transformEPKwS3_
0073f540 T __ZNKSt7__cxx117collateIwE12do_transformEPKwS3_
0073f820 t .text$_ZNKSt7__cxx117collateIwE4hashEPKwS3_
0073f820 T __ZNKSt7__cxx117collateIwE4hashEPKwS3_
0073f830 t .text$_ZNKSt7__cxx117collateIwE7compareEPKwS3_S3_S3_
0073f830 T __ZNKSt7__cxx117collateIwE7compareEPKwS3_S3_S3_
0073f840 t .text$_ZNKSt7__cxx117collateIwE7do_hashEPKwS3_
0073f840 T __ZNKSt7__cxx117collateIwE7do_hashEPKwS3_
0073f870 t .text$_ZNKSt7__cxx117collateIwE9transformEPKwS3_
0073f870 T __ZNKSt7__cxx117collateIwE9transformEPKwS3_
0073f8a0 t .text$_ZNKSt7__cxx118messagesIcE18_M_convert_to_charERKNS_12basic_stringIcSt11char_traitsIcESaIcEEE
0073f8a0 T __ZNKSt7__cxx118messagesIcE18_M_convert_to_charERKNS_12basic_stringIcSt11char_traitsIcESaIcEEE
0073f8b0 t .text$_ZNKSt7__cxx118messagesIcE20_M_convert_from_charEPc
0073f8b0 T __ZNKSt7__cxx118messagesIcE20_M_convert_from_charEPc
0073f8d0 t .text$_ZNKSt7__cxx118messagesIcE3getEiiiRKNS_12basic_stringIcSt11char_traitsIcESaIcEEE
0073f8d0 T __ZNKSt7__cxx118messagesIcE3getEiiiRKNS_12basic_stringIcSt11char_traitsIcESaIcEEE
0073f910 t .text$_ZNKSt7__cxx118messagesIcE4openERKNS_12basic_stringIcSt11char_traitsIcESaIcEEERKSt6locale
0073f910 T __ZNKSt7__cxx118messagesIcE4openERKNS_12basic_stringIcSt11char_traitsIcESaIcEEERKSt6locale
0073f920 t .text$_ZNKSt7__cxx118messagesIcE4openERKNS_12basic_stringIcSt11char_traitsIcESaIcEEERKSt6localePKc
0073f920 T __ZNKSt7__cxx118messagesIcE4openERKNS_12basic_stringIcSt11char_traitsIcESaIcEEERKSt6localePKc
0073f940 t .text$_ZNKSt7__cxx118messagesIcE5closeEi
0073f940 T __ZNKSt7__cxx118messagesIcE5closeEi
0073f950 t .text$_ZNKSt7__cxx118messagesIcE6do_getEiiiRKNS_12basic_stringIcSt11char_traitsIcESaIcEEE
0073f950 T __ZNKSt7__cxx118messagesIcE6do_getEiiiRKNS_12basic_stringIcSt11char_traitsIcESaIcEEE
0073fa10 t .text$_ZNKSt7__cxx118messagesIcE7do_openERKNS_12basic_stringIcSt11char_traitsIcESaIcEEERKSt6locale
0073fa10 T __ZNKSt7__cxx118messagesIcE7do_openERKNS_12basic_stringIcSt11char_traitsIcESaIcEEERKSt6locale
0073fa20 t .text$_ZNKSt7__cxx118messagesIcE8do_closeEi
0073fa20 T __ZNKSt7__cxx118messagesIcE8do_closeEi
0073fa30 t .text$_ZNKSt7__cxx118messagesIwE18_M_convert_to_charERKNS_12basic_stringIwSt11char_traitsIwESaIwEEE
0073fa30 T __ZNKSt7__cxx118messagesIwE18_M_convert_to_charERKNS_12basic_stringIwSt11char_traitsIwESaIwEEE
0073fa40 t .text$_ZNKSt7__cxx118messagesIwE20_M_convert_from_charEPc
0073fa40 T __ZNKSt7__cxx118messagesIwE20_M_convert_from_charEPc
0073fa60 t .text$_ZNKSt7__cxx118messagesIwE3getEiiiRKNS_12basic_stringIwSt11char_traitsIwESaIwEEE
0073fa60 T __ZNKSt7__cxx118messagesIwE3getEiiiRKNS_12basic_stringIwSt11char_traitsIwESaIwEEE
0073faa0 t .text$_ZNKSt7__cxx118messagesIwE4openERKNS_12basic_stringIcSt11char_traitsIcESaIcEEERKSt6locale
0073faa0 T __ZNKSt7__cxx118messagesIwE4openERKNS_12basic_stringIcSt11char_traitsIcESaIcEEERKSt6locale
0073fab0 t .text$_ZNKSt7__cxx118messagesIwE4openERKNS_12basic_stringIcSt11char_traitsIcESaIcEEERKSt6localePKc
0073fab0 T __ZNKSt7__cxx118messagesIwE4openERKNS_12basic_stringIcSt11char_traitsIcESaIcEEERKSt6localePKc
0073fad0 t .text$_ZNKSt7__cxx118messagesIwE5closeEi
0073fad0 T __ZNKSt7__cxx118messagesIwE5closeEi
0073fae0 t .text$_ZNKSt7__cxx118messagesIwE6do_getEiiiRKNS_12basic_stringIwSt11char_traitsIwESaIwEEE
0073fae0 T __ZNKSt7__cxx118messagesIwE6do_getEiiiRKNS_12basic_stringIwSt11char_traitsIwESaIwEEE
0073fb90 t .text$_ZNKSt7__cxx118messagesIwE7do_openERKNS_12basic_stringIcSt11char_traitsIcESaIcEEERKSt6locale
0073fb90 T __ZNKSt7__cxx118messagesIwE7do_openERKNS_12basic_stringIcSt11char_traitsIcESaIcEEERKSt6locale
0073fba0 t .text$_ZNKSt7__cxx118messagesIwE8do_closeEi
0073fba0 T __ZNKSt7__cxx118messagesIwE8do_closeEi
0073fbb0 t .text$_ZNKSt7__cxx118numpunctIcE11do_groupingEv
0073fbb0 T __ZNKSt7__cxx118numpunctIcE11do_groupingEv
0073fc00 t .text$_ZNKSt7__cxx118numpunctIcE11do_truenameEv
0073fc00 T __ZNKSt7__cxx118numpunctIcE11do_truenameEv
0073fc50 t .text$_ZNKSt7__cxx118numpunctIcE12do_falsenameEv
0073fc50 T __ZNKSt7__cxx118numpunctIcE12do_falsenameEv
0073fca0 t .text$_ZNKSt7__cxx118numpunctIcE13decimal_pointEv
0073fca0 T __ZNKSt7__cxx118numpunctIcE13decimal_pointEv
0073fcc0 t .text$_ZNKSt7__cxx118numpunctIcE13thousands_sepEv
0073fcc0 T __ZNKSt7__cxx118numpunctIcE13thousands_sepEv
0073fce0 t .text$_ZNKSt7__cxx118numpunctIcE16do_decimal_pointEv
0073fce0 T __ZNKSt7__cxx118numpunctIcE16do_decimal_pointEv
0073fcf0 t .text$_ZNKSt7__cxx118numpunctIcE16do_thousands_sepEv
0073fcf0 T __ZNKSt7__cxx118numpunctIcE16do_thousands_sepEv
0073fd00 t .text$_ZNKSt7__cxx118numpunctIcE8groupingEv
0073fd00 T __ZNKSt7__cxx118numpunctIcE8groupingEv
0073fd70 t .text$_ZNKSt7__cxx118numpunctIcE8truenameEv
0073fd70 T __ZNKSt7__cxx118numpunctIcE8truenameEv
0073fde0 t .text$_ZNKSt7__cxx118numpunctIcE9falsenameEv
0073fde0 T __ZNKSt7__cxx118numpunctIcE9falsenameEv
0073fe50 t .text$_ZNKSt7__cxx118numpunctIwE11do_groupingEv
0073fe50 T __ZNKSt7__cxx118numpunctIwE11do_groupingEv
0073ff00 t .text$_ZNKSt7__cxx118numpunctIwE11do_truenameEv
0073ff00 T __ZNKSt7__cxx118numpunctIwE11do_truenameEv
0073ff50 t .text$_ZNKSt7__cxx118numpunctIwE12do_falsenameEv
0073ff50 T __ZNKSt7__cxx118numpunctIwE12do_falsenameEv
0073ffa0 t .text$_ZNKSt7__cxx118numpunctIwE13decimal_pointEv
0073ffa0 T __ZNKSt7__cxx118numpunctIwE13decimal_pointEv
0073ffc0 t .text$_ZNKSt7__cxx118numpunctIwE13thousands_sepEv
0073ffc0 T __ZNKSt7__cxx118numpunctIwE13thousands_sepEv
0073ffe0 t .text$_ZNKSt7__cxx118numpunctIwE16do_decimal_pointEv
0073ffe0 T __ZNKSt7__cxx118numpunctIwE16do_decimal_pointEv
0073fff0 t .text$_ZNKSt7__cxx118numpunctIwE16do_thousands_sepEv
0073fff0 T __ZNKSt7__cxx118numpunctIwE16do_thousands_sepEv
00740000 t .text$_ZNKSt7__cxx118numpunctIwE8groupingEv
00740000 T __ZNKSt7__cxx118numpunctIwE8groupingEv
007400e0 t .text$_ZNKSt7__cxx118numpunctIwE8truenameEv
007400e0 T __ZNKSt7__cxx118numpunctIwE8truenameEv
00740150 t .text$_ZNKSt7__cxx118numpunctIwE9falsenameEv
00740150 T __ZNKSt7__cxx118numpunctIwE9falsenameEv
007401c0 t .text$_ZNKSt7__cxx118time_getIcSt19istreambuf_iteratorIcSt11char_traitsIcEEE10date_orderEv
007401c0 T __ZNKSt7__cxx118time_getIcSt19istreambuf_iteratorIcSt11char_traitsIcEEE10date_orderEv
007401d0 t .text$_ZNKSt7__cxx118time_getIcSt19istreambuf_iteratorIcSt11char_traitsIcEEE11do_get_dateES4_S4_RSt8ios_baseRSt12_Ios_IostateP2tm
007401d0 T __ZNKSt7__cxx118time_getIcSt19istreambuf_iteratorIcSt11char_traitsIcEEE11do_get_dateES4_S4_RSt8ios_baseRSt12_Ios_IostateP2tm
00740360 t .text$_ZNKSt7__cxx118time_getIcSt19istreambuf_iteratorIcSt11char_traitsIcEEE11do_get_timeES4_S4_RSt8ios_baseRSt12_Ios_IostateP2tm
00740360 T __ZNKSt7__cxx118time_getIcSt19istreambuf_iteratorIcSt11char_traitsIcEEE11do_get_timeES4_S4_RSt8ios_baseRSt12_Ios_IostateP2tm
007404f0 t .text$_ZNKSt7__cxx118time_getIcSt19istreambuf_iteratorIcSt11char_traitsIcEEE11do_get_yearES4_S4_RSt8ios_baseRSt12_Ios_IostateP2tm
007404f0 T __ZNKSt7__cxx118time_getIcSt19istreambuf_iteratorIcSt11char_traitsIcEEE11do_get_yearES4_S4_RSt8ios_baseRSt12_Ios_IostateP2tm
00740d30 t .text$_ZNKSt7__cxx118time_getIcSt19istreambuf_iteratorIcSt11char_traitsIcEEE11get_weekdayES4_S4_RSt8ios_baseRSt12_Ios_IostateP2tm
00740d30 T __ZNKSt7__cxx118time_getIcSt19istreambuf_iteratorIcSt11char_traitsIcEEE11get_weekdayES4_S4_RSt8ios_baseRSt12_Ios_IostateP2tm
00740d40 t .text$_ZNKSt7__cxx118time_getIcSt19istreambuf_iteratorIcSt11char_traitsIcEEE13do_date_orderEv
00740d40 T __ZNKSt7__cxx118time_getIcSt19istreambuf_iteratorIcSt11char_traitsIcEEE13do_date_orderEv
00740d50 t .text$_ZNKSt7__cxx118time_getIcSt19istreambuf_iteratorIcSt11char_traitsIcEEE13get_monthnameES4_S4_RSt8ios_baseRSt12_Ios_IostateP2tm
00740d50 T __ZNKSt7__cxx118time_getIcSt19istreambuf_iteratorIcSt11char_traitsIcEEE13get_monthnameES4_S4_RSt8ios_baseRSt12_Ios_IostateP2tm
00740d60 t .text$_ZNKSt7__cxx118time_getIcSt19istreambuf_iteratorIcSt11char_traitsIcEEE14_M_extract_numES4_S4_RiiijRSt8ios_baseRSt12_Ios_Iostate
00740d60 T __ZNKSt7__cxx118time_getIcSt19istreambuf_iteratorIcSt11char_traitsIcEEE14_M_extract_numES4_S4_RiiijRSt8ios_baseRSt12_Ios_Iostate
00740ff0 t .text$_ZNKSt7__cxx118time_getIcSt19istreambuf_iteratorIcSt11char_traitsIcEEE14do_get_weekdayES4_S4_RSt8ios_baseRSt12_Ios_IostateP2tm
00740ff0 T __ZNKSt7__cxx118time_getIcSt19istreambuf_iteratorIcSt11char_traitsIcEEE14do_get_weekdayES4_S4_RSt8ios_baseRSt12_Ios_IostateP2tm
00741260 t .text$_ZNKSt7__cxx118time_getIcSt19istreambuf_iteratorIcSt11char_traitsIcEEE15_M_extract_nameES4_S4_RiPPKcjRSt8ios_baseRSt12_Ios_Iostate
00741260 T __ZNKSt7__cxx118time_getIcSt19istreambuf_iteratorIcSt11char_traitsIcEEE15_M_extract_nameES4_S4_RiPPKcjRSt8ios_baseRSt12_Ios_Iostate
00741dc0 t .text$_ZNKSt7__cxx118time_getIcSt19istreambuf_iteratorIcSt11char_traitsIcEEE16do_get_monthnameES4_S4_RSt8ios_baseRSt12_Ios_IostateP2tm
00741dc0 T __ZNKSt7__cxx118time_getIcSt19istreambuf_iteratorIcSt11char_traitsIcEEE16do_get_monthnameES4_S4_RSt8ios_baseRSt12_Ios_IostateP2tm
00742160 t .text$_ZNKSt7__cxx118time_getIcSt19istreambuf_iteratorIcSt11char_traitsIcEEE21_M_extract_via_formatES4_S4_RSt8ios_baseRSt12_Ios_IostateP2tmPKc
00742160 T __ZNKSt7__cxx118time_getIcSt19istreambuf_iteratorIcSt11char_traitsIcEEE21_M_extract_via_formatES4_S4_RSt8ios_baseRSt12_Ios_IostateP2tmPKc
007421d0 t .text$_ZNKSt7__cxx118time_getIcSt19istreambuf_iteratorIcSt11char_traitsIcEEE21_M_extract_via_formatES4_S4_RSt8ios_baseRSt12_Ios_IostateP2tmPKcRSt16__time_get_state
007421d0 T __ZNKSt7__cxx118time_getIcSt19istreambuf_iteratorIcSt11char_traitsIcEEE21_M_extract_via_formatES4_S4_RSt8ios_baseRSt12_Ios_IostateP2tmPKcRSt16__time_get_state
007421d0 t __ZNKSt7__cxx118time_getIcSt19istreambuf_iteratorIcSt11char_traitsIcEEE21_M_extract_via_formatES4_S4_RSt8ios_baseRSt12_Ios_IostateP2tmPKcRSt16__time_get_state.localalias
007447e0 t .text$_ZNKSt7__cxx118time_getIcSt19istreambuf_iteratorIcSt11char_traitsIcEEE24_M_extract_wday_or_monthES4_S4_RiPPKcjRSt8ios_baseRSt12_Ios_Iostate
007447e0 T __ZNKSt7__cxx118time_getIcSt19istreambuf_iteratorIcSt11char_traitsIcEEE24_M_extract_wday_or_monthES4_S4_RiPPKcjRSt8ios_baseRSt12_Ios_Iostate
00744dc0 t .text$_ZNKSt7__cxx118time_getIcSt19istreambuf_iteratorIcSt11char_traitsIcEEE3getES4_S4_RSt8ios_baseRSt12_Ios_IostateP2tmPKcSD_
00744dc0 T __ZNKSt7__cxx118time_getIcSt19istreambuf_iteratorIcSt11char_traitsIcEEE3getES4_S4_RSt8ios_baseRSt12_Ios_IostateP2tmPKcSD_
00745a20 t .text$_ZNKSt7__cxx118time_getIcSt19istreambuf_iteratorIcSt11char_traitsIcEEE3getES4_S4_RSt8ios_baseRSt12_Ios_IostateP2tmcc
00745a20 T __ZNKSt7__cxx118time_getIcSt19istreambuf_iteratorIcSt11char_traitsIcEEE3getES4_S4_RSt8ios_baseRSt12_Ios_IostateP2tmcc
00745cc0 t .text$_ZNKSt7__cxx118time_getIcSt19istreambuf_iteratorIcSt11char_traitsIcEEE6do_getES4_S4_RSt8ios_baseRSt12_Ios_IostateP2tmcc
00745cc0 T __ZNKSt7__cxx118time_getIcSt19istreambuf_iteratorIcSt11char_traitsIcEEE6do_getES4_S4_RSt8ios_baseRSt12_Ios_IostateP2tmcc
00745ed0 t .text$_ZNKSt7__cxx118time_getIcSt19istreambuf_iteratorIcSt11char_traitsIcEEE8get_dateES4_S4_RSt8ios_baseRSt12_Ios_IostateP2tm
00745ed0 T __ZNKSt7__cxx118time_getIcSt19istreambuf_iteratorIcSt11char_traitsIcEEE8get_dateES4_S4_RSt8ios_baseRSt12_Ios_IostateP2tm
00745ee0 t .text$_ZNKSt7__cxx118time_getIcSt19istreambuf_iteratorIcSt11char_traitsIcEEE8get_timeES4_S4_RSt8ios_baseRSt12_Ios_IostateP2tm
00745ee0 T __ZNKSt7__cxx118time_getIcSt19istreambuf_iteratorIcSt11char_traitsIcEEE8get_timeES4_S4_RSt8ios_baseRSt12_Ios_IostateP2tm
00745ef0 t .text$_ZNKSt7__cxx118time_getIcSt19istreambuf_iteratorIcSt11char_traitsIcEEE8get_yearES4_S4_RSt8ios_baseRSt12_Ios_IostateP2tm
00745ef0 T __ZNKSt7__cxx118time_getIcSt19istreambuf_iteratorIcSt11char_traitsIcEEE8get_yearES4_S4_RSt8ios_baseRSt12_Ios_IostateP2tm
00745f00 t .text$_ZNKSt7__cxx118time_getIwSt19istreambuf_iteratorIwSt11char_traitsIwEEE10date_orderEv
00745f00 T __ZNKSt7__cxx118time_getIwSt19istreambuf_iteratorIwSt11char_traitsIwEEE10date_orderEv
00745f10 t .text$_ZNKSt7__cxx118time_getIwSt19istreambuf_iteratorIwSt11char_traitsIwEEE11do_get_dateES4_S4_RSt8ios_baseRSt12_Ios_IostateP2tm
00745f10 T __ZNKSt7__cxx118time_getIwSt19istreambuf_iteratorIwSt11char_traitsIwEEE11do_get_dateES4_S4_RSt8ios_baseRSt12_Ios_IostateP2tm
007460c0 t .text$_ZNKSt7__cxx118time_getIwSt19istreambuf_iteratorIwSt11char_traitsIwEEE11do_get_timeES4_S4_RSt8ios_baseRSt12_Ios_IostateP2tm
007460c0 T __ZNKSt7__cxx118time_getIwSt19istreambuf_iteratorIwSt11char_traitsIwEEE11do_get_timeES4_S4_RSt8ios_baseRSt12_Ios_IostateP2tm
00746270 t .text$_ZNKSt7__cxx118time_getIwSt19istreambuf_iteratorIwSt11char_traitsIwEEE11do_get_yearES4_S4_RSt8ios_baseRSt12_Ios_IostateP2tm
00746270 T __ZNKSt7__cxx118time_getIwSt19istreambuf_iteratorIwSt11char_traitsIwEEE11do_get_yearES4_S4_RSt8ios_baseRSt12_Ios_IostateP2tm
007468b0 t .text$_ZNKSt7__cxx118time_getIwSt19istreambuf_iteratorIwSt11char_traitsIwEEE11get_weekdayES4_S4_RSt8ios_baseRSt12_Ios_IostateP2tm
007468b0 T __ZNKSt7__cxx118time_getIwSt19istreambuf_iteratorIwSt11char_traitsIwEEE11get_weekdayES4_S4_RSt8ios_baseRSt12_Ios_IostateP2tm
007468c0 t .text$_ZNKSt7__cxx118time_getIwSt19istreambuf_iteratorIwSt11char_traitsIwEEE13do_date_orderEv
007468c0 T __ZNKSt7__cxx118time_getIwSt19istreambuf_iteratorIwSt11char_traitsIwEEE13do_date_orderEv
007468d0 t .text$_ZNKSt7__cxx118time_getIwSt19istreambuf_iteratorIwSt11char_traitsIwEEE13get_monthnameES4_S4_RSt8ios_baseRSt12_Ios_IostateP2tm
007468d0 T __ZNKSt7__cxx118time_getIwSt19istreambuf_iteratorIwSt11char_traitsIwEEE13get_monthnameES4_S4_RSt8ios_baseRSt12_Ios_IostateP2tm
007468e0 t .text$_ZNKSt7__cxx118time_getIwSt19istreambuf_iteratorIwSt11char_traitsIwEEE14_M_extract_numES4_S4_RiiijRSt8ios_baseRSt12_Ios_Iostate
007468e0 T __ZNKSt7__cxx118time_getIwSt19istreambuf_iteratorIwSt11char_traitsIwEEE14_M_extract_numES4_S4_RiiijRSt8ios_baseRSt12_Ios_Iostate
00746b50 t .text$_ZNKSt7__cxx118time_getIwSt19istreambuf_iteratorIwSt11char_traitsIwEEE14do_get_weekdayES4_S4_RSt8ios_baseRSt12_Ios_IostateP2tm
00746b50 T __ZNKSt7__cxx118time_getIwSt19istreambuf_iteratorIwSt11char_traitsIwEEE14do_get_weekdayES4_S4_RSt8ios_baseRSt12_Ios_IostateP2tm
00746e00 t .text$_ZNKSt7__cxx118time_getIwSt19istreambuf_iteratorIwSt11char_traitsIwEEE15_M_extract_nameES4_S4_RiPPKwjRSt8ios_baseRSt12_Ios_Iostate
00746e00 T __ZNKSt7__cxx118time_getIwSt19istreambuf_iteratorIwSt11char_traitsIwEEE15_M_extract_nameES4_S4_RiPPKwjRSt8ios_baseRSt12_Ios_Iostate
00747960 t .text$_ZNKSt7__cxx118time_getIwSt19istreambuf_iteratorIwSt11char_traitsIwEEE16do_get_monthnameES4_S4_RSt8ios_baseRSt12_Ios_IostateP2tm
00747960 T __ZNKSt7__cxx118time_getIwSt19istreambuf_iteratorIwSt11char_traitsIwEEE16do_get_monthnameES4_S4_RSt8ios_baseRSt12_Ios_IostateP2tm
00747d20 t .text$_ZNKSt7__cxx118time_getIwSt19istreambuf_iteratorIwSt11char_traitsIwEEE21_M_extract_via_formatES4_S4_RSt8ios_baseRSt12_Ios_IostateP2tmPKw
00747d20 T __ZNKSt7__cxx118time_getIwSt19istreambuf_iteratorIwSt11char_traitsIwEEE21_M_extract_via_formatES4_S4_RSt8ios_baseRSt12_Ios_IostateP2tmPKw
00747d90 t .text$_ZNKSt7__cxx118time_getIwSt19istreambuf_iteratorIwSt11char_traitsIwEEE21_M_extract_via_formatES4_S4_RSt8ios_baseRSt12_Ios_IostateP2tmPKwRSt16__time_get_state
00747d90 T __ZNKSt7__cxx118time_getIwSt19istreambuf_iteratorIwSt11char_traitsIwEEE21_M_extract_via_formatES4_S4_RSt8ios_baseRSt12_Ios_IostateP2tmPKwRSt16__time_get_state
00747d90 t __ZNKSt7__cxx118time_getIwSt19istreambuf_iteratorIwSt11char_traitsIwEEE21_M_extract_via_formatES4_S4_RSt8ios_baseRSt12_Ios_IostateP2tmPKwRSt16__time_get_state.localalias
00749fa0 t .text$_ZNKSt7__cxx118time_getIwSt19istreambuf_iteratorIwSt11char_traitsIwEEE24_M_extract_wday_or_monthES4_S4_RiPPKwjRSt8ios_baseRSt12_Ios_Iostate
00749fa0 T __ZNKSt7__cxx118time_getIwSt19istreambuf_iteratorIwSt11char_traitsIwEEE24_M_extract_wday_or_monthES4_S4_RiPPKwjRSt8ios_baseRSt12_Ios_Iostate
0074a560 t .text$_ZNKSt7__cxx118time_getIwSt19istreambuf_iteratorIwSt11char_traitsIwEEE3getES4_S4_RSt8ios_baseRSt12_Ios_IostateP2tmPKwSD_
0074a560 T __ZNKSt7__cxx118time_getIwSt19istreambuf_iteratorIwSt11char_traitsIwEEE3getES4_S4_RSt8ios_baseRSt12_Ios_IostateP2tmPKwSD_
0074afe0 t .text$_ZNKSt7__cxx118time_getIwSt19istreambuf_iteratorIwSt11char_traitsIwEEE3getES4_S4_RSt8ios_baseRSt12_Ios_IostateP2tmcc
0074afe0 T __ZNKSt7__cxx118time_getIwSt19istreambuf_iteratorIwSt11char_traitsIwEEE3getES4_S4_RSt8ios_baseRSt12_Ios_IostateP2tmcc
0074b290 t .text$_ZNKSt7__cxx118time_getIwSt19istreambuf_iteratorIwSt11char_traitsIwEEE6do_getES4_S4_RSt8ios_baseRSt12_Ios_IostateP2tmcc
0074b290 T __ZNKSt7__cxx118time_getIwSt19istreambuf_iteratorIwSt11char_traitsIwEEE6do_getES4_S4_RSt8ios_baseRSt12_Ios_IostateP2tmcc
0074b480 t .text$_ZNKSt7__cxx118time_getIwSt19istreambuf_iteratorIwSt11char_traitsIwEEE8get_dateES4_S4_RSt8ios_baseRSt12_Ios_IostateP2tm
0074b480 T __ZNKSt7__cxx118time_getIwSt19istreambuf_iteratorIwSt11char_traitsIwEEE8get_dateES4_S4_RSt8ios_baseRSt12_Ios_IostateP2tm
0074b490 t .text$_ZNKSt7__cxx118time_getIwSt19istreambuf_iteratorIwSt11char_traitsIwEEE8get_timeES4_S4_RSt8ios_baseRSt12_Ios_IostateP2tm
0074b490 T __ZNKSt7__cxx118time_getIwSt19istreambuf_iteratorIwSt11char_traitsIwEEE8get_timeES4_S4_RSt8ios_baseRSt12_Ios_IostateP2tm
0074b4a0 t .text$_ZNKSt7__cxx118time_getIwSt19istreambuf_iteratorIwSt11char_traitsIwEEE8get_yearES4_S4_RSt8ios_baseRSt12_Ios_IostateP2tm
0074b4a0 T __ZNKSt7__cxx118time_getIwSt19istreambuf_iteratorIwSt11char_traitsIwEEE8get_yearES4_S4_RSt8ios_baseRSt12_Ios_IostateP2tm
0074b4b0 t .text$_ZNKSt7__cxx119money_getIcSt19istreambuf_iteratorIcSt11char_traitsIcEEE10_M_extractILb0EEES4_S4_S4_RSt8ios_baseRSt12_Ios_IostateRNS_12basic_stringIcS3_SaIcEEE
0074b4b0 T __ZNKSt7__cxx119money_getIcSt19istreambuf_iteratorIcSt11char_traitsIcEEE10_M_extractILb0EEES4_S4_S4_RSt8ios_baseRSt12_Ios_IostateRNS_12basic_stringIcS3_SaIcEEE
0074c670 t .text$_ZNKSt7__cxx119money_getIcSt19istreambuf_iteratorIcSt11char_traitsIcEEE10_M_extractILb1EEES4_S4_S4_RSt8ios_baseRSt12_Ios_IostateRNS_12basic_stringIcS3_SaIcEEE
0074c670 T __ZNKSt7__cxx119money_getIcSt19istreambuf_iteratorIcSt11char_traitsIcEEE10_M_extractILb1EEES4_S4_S4_RSt8ios_baseRSt12_Ios_IostateRNS_12basic_stringIcS3_SaIcEEE
0074d830 t .text$_ZNKSt7__cxx119money_getIcSt19istreambuf_iteratorIcSt11char_traitsIcEEE3getES4_S4_bRSt8ios_baseRSt12_Ios_IostateRNS_12basic_stringIcS3_SaIcEEE
0074d830 T __ZNKSt7__cxx119money_getIcSt19istreambuf_iteratorIcSt11char_traitsIcEEE3getES4_S4_bRSt8ios_baseRSt12_Ios_IostateRNS_12basic_stringIcS3_SaIcEEE
0074d840 t .text$_ZNKSt7__cxx119money_getIcSt19istreambuf_iteratorIcSt11char_traitsIcEEE3getES4_S4_bRSt8ios_baseRSt12_Ios_IostateRe
0074d840 T __ZNKSt7__cxx119money_getIcSt19istreambuf_iteratorIcSt11char_traitsIcEEE3getES4_S4_bRSt8ios_baseRSt12_Ios_IostateRe
0074d850 t .text$_ZNKSt7__cxx119money_getIcSt19istreambuf_iteratorIcSt11char_traitsIcEEE6do_getES4_S4_bRSt8ios_baseRSt12_Ios_IostateRNS_12basic_stringIcS3_SaIcEEE
0074d850 T __ZNKSt7__cxx119money_getIcSt19istreambuf_iteratorIcSt11char_traitsIcEEE6do_getES4_S4_bRSt8ios_baseRSt12_Ios_IostateRNS_12basic_stringIcS3_SaIcEEE
0074da10 t .text$_ZNKSt7__cxx119money_getIcSt19istreambuf_iteratorIcSt11char_traitsIcEEE6do_getES4_S4_bRSt8ios_baseRSt12_Ios_IostateRe
0074da10 T __ZNKSt7__cxx119money_getIcSt19istreambuf_iteratorIcSt11char_traitsIcEEE6do_getES4_S4_bRSt8ios_baseRSt12_Ios_IostateRe
0074dae0 t .text$_ZNKSt7__cxx119money_getIwSt19istreambuf_iteratorIwSt11char_traitsIwEEE10_M_extractILb0EEES4_S4_S4_RSt8ios_baseRSt12_Ios_IostateRNS_12basic_stringIcS2_IcESaIcEEE
0074dae0 T __ZNKSt7__cxx119money_getIwSt19istreambuf_iteratorIwSt11char_traitsIwEEE10_M_extractILb0EEES4_S4_S4_RSt8ios_baseRSt12_Ios_IostateRNS_12basic_stringIcS2_IcESaIcEEE
0074ec50 t .text$_ZNKSt7__cxx119money_getIwSt19istreambuf_iteratorIwSt11char_traitsIwEEE10_M_extractILb1EEES4_S4_S4_RSt8ios_baseRSt12_Ios_IostateRNS_12basic_stringIcS2_IcESaIcEEE
0074ec50 T __ZNKSt7__cxx119money_getIwSt19istreambuf_iteratorIwSt11char_traitsIwEEE10_M_extractILb1EEES4_S4_S4_RSt8ios_baseRSt12_Ios_IostateRNS_12basic_stringIcS2_IcESaIcEEE
0074fdc0 t .text$_ZNKSt7__cxx119money_getIwSt19istreambuf_iteratorIwSt11char_traitsIwEEE3getES4_S4_bRSt8ios_baseRSt12_Ios_IostateRNS_12basic_stringIwS3_SaIwEEE
0074fdc0 T __ZNKSt7__cxx119money_getIwSt19istreambuf_iteratorIwSt11char_traitsIwEEE3getES4_S4_bRSt8ios_baseRSt12_Ios_IostateRNS_12basic_stringIwS3_SaIwEEE
0074fdd0 t .text$_ZNKSt7__cxx119money_getIwSt19istreambuf_iteratorIwSt11char_traitsIwEEE3getES4_S4_bRSt8ios_baseRSt12_Ios_IostateRe
0074fdd0 T __ZNKSt7__cxx119money_getIwSt19istreambuf_iteratorIwSt11char_traitsIwEEE3getES4_S4_bRSt8ios_baseRSt12_Ios_IostateRe
0074fde0 t .text$_ZNKSt7__cxx119money_getIwSt19istreambuf_iteratorIwSt11char_traitsIwEEE6do_getES4_S4_bRSt8ios_baseRSt12_Ios_IostateRNS_12basic_stringIwS3_SaIwEEE
0074fde0 T __ZNKSt7__cxx119money_getIwSt19istreambuf_iteratorIwSt11char_traitsIwEEE6do_getES4_S4_bRSt8ios_baseRSt12_Ios_IostateRNS_12basic_stringIwS3_SaIwEEE
0074ff30 t .text$_ZNKSt7__cxx119money_getIwSt19istreambuf_iteratorIwSt11char_traitsIwEEE6do_getES4_S4_bRSt8ios_baseRSt12_Ios_IostateRe
0074ff30 T __ZNKSt7__cxx119money_getIwSt19istreambuf_iteratorIwSt11char_traitsIwEEE6do_getES4_S4_bRSt8ios_baseRSt12_Ios_IostateRe
00750010 t .text$_ZNKSt7__cxx119money_putIcSt19ostreambuf_iteratorIcSt11char_traitsIcEEE3putES4_bRSt8ios_basecRKNS_12basic_stringIcS3_SaIcEEE
00750010 T __ZNKSt7__cxx119money_putIcSt19ostreambuf_iteratorIcSt11char_traitsIcEEE3putES4_bRSt8ios_basecRKNS_12basic_stringIcS3_SaIcEEE
00750030 t .text$_ZNKSt7__cxx119money_putIcSt19ostreambuf_iteratorIcSt11char_traitsIcEEE3putES4_bRSt8ios_basece
00750030 T __ZNKSt7__cxx119money_putIcSt19ostreambuf_iteratorIcSt11char_traitsIcEEE3putES4_bRSt8ios_basece
00750050 t .text$_ZNKSt7__cxx119money_putIcSt19ostreambuf_iteratorIcSt11char_traitsIcEEE6do_putES4_bRSt8ios_basecRKNS_12basic_stringIcS3_SaIcEEE
00750050 T __ZNKSt7__cxx119money_putIcSt19ostreambuf_iteratorIcSt11char_traitsIcEEE6do_putES4_bRSt8ios_basecRKNS_12basic_stringIcS3_SaIcEEE
007500c0 t .text$_ZNKSt7__cxx119money_putIcSt19ostreambuf_iteratorIcSt11char_traitsIcEEE6do_putES4_bRSt8ios_basece
007500c0 T __ZNKSt7__cxx119money_putIcSt19ostreambuf_iteratorIcSt11char_traitsIcEEE6do_putES4_bRSt8ios_basece
00750300 t .text$_ZNKSt7__cxx119money_putIcSt19ostreambuf_iteratorIcSt11char_traitsIcEEE9_M_insertILb0EEES4_S4_RSt8ios_basecRKNS_12basic_stringIcS3_SaIcEEE
00750300 T __ZNKSt7__cxx119money_putIcSt19ostreambuf_iteratorIcSt11char_traitsIcEEE9_M_insertILb0EEES4_S4_RSt8ios_basecRKNS_12basic_stringIcS3_SaIcEEE
00750b70 t .text$_ZNKSt7__cxx119money_putIcSt19ostreambuf_iteratorIcSt11char_traitsIcEEE9_M_insertILb1EEES4_S4_RSt8ios_basecRKNS_12basic_stringIcS3_SaIcEEE
00750b70 T __ZNKSt7__cxx119money_putIcSt19ostreambuf_iteratorIcSt11char_traitsIcEEE9_M_insertILb1EEES4_S4_RSt8ios_basecRKNS_12basic_stringIcS3_SaIcEEE
007513e0 t .text$_ZNKSt7__cxx119money_putIwSt19ostreambuf_iteratorIwSt11char_traitsIwEEE3putES4_bRSt8ios_basewRKNS_12basic_stringIwS3_SaIwEEE
007513e0 T __ZNKSt7__cxx119money_putIwSt19ostreambuf_iteratorIwSt11char_traitsIwEEE3putES4_bRSt8ios_basewRKNS_12basic_stringIwS3_SaIwEEE
00751400 t .text$_ZNKSt7__cxx119money_putIwSt19ostreambuf_iteratorIwSt11char_traitsIwEEE3putES4_bRSt8ios_basewe
00751400 T __ZNKSt7__cxx119money_putIwSt19ostreambuf_iteratorIwSt11char_traitsIwEEE3putES4_bRSt8ios_basewe
00751420 t .text$_ZNKSt7__cxx119money_putIwSt19ostreambuf_iteratorIwSt11char_traitsIwEEE6do_putES4_bRSt8ios_basewRKNS_12basic_stringIwS3_SaIwEEE
00751420 T __ZNKSt7__cxx119money_putIwSt19ostreambuf_iteratorIwSt11char_traitsIwEEE6do_putES4_bRSt8ios_basewRKNS_12basic_stringIwS3_SaIwEEE
00751490 t .text$_ZNKSt7__cxx119money_putIwSt19ostreambuf_iteratorIwSt11char_traitsIwEEE6do_putES4_bRSt8ios_basewe
00751490 T __ZNKSt7__cxx119money_putIwSt19ostreambuf_iteratorIwSt11char_traitsIwEEE6do_putES4_bRSt8ios_basewe
00751650 t .text$_ZNKSt7__cxx119money_putIwSt19ostreambuf_iteratorIwSt11char_traitsIwEEE9_M_insertILb0EEES4_S4_RSt8ios_basewRKNS_12basic_stringIwS3_SaIwEEE
00751650 T __ZNKSt7__cxx119money_putIwSt19ostreambuf_iteratorIwSt11char_traitsIwEEE9_M_insertILb0EEES4_S4_RSt8ios_basewRKNS_12basic_stringIwS3_SaIwEEE
00751ec0 t .text$_ZNKSt7__cxx119money_putIwSt19ostreambuf_iteratorIwSt11char_traitsIwEEE9_M_insertILb1EEES4_S4_RSt8ios_basewRKNS_12basic_stringIwS3_SaIwEEE
00751ec0 T __ZNKSt7__cxx119money_putIwSt19ostreambuf_iteratorIwSt11char_traitsIwEEE9_M_insertILb1EEES4_S4_RSt8ios_basewRKNS_12basic_stringIwS3_SaIwEEE
00752730 t .text$_ZNKSt7codecvtIDiDu9_MbstatetE5do_inERS0_PKDuS4_RS4_PDiS6_RS6_
00752730 T __ZNKSt7codecvtIDiDu9_MbstatetE5do_inERS0_PKDuS4_RS4_PDiS6_RS6_
007527c0 t .text$_ZNKSt7codecvtIDiDu9_MbstatetE6do_outERS0_PKDiS4_RS4_PDuS6_RS6_
007527c0 T __ZNKSt7codecvtIDiDu9_MbstatetE6do_outERS0_PKDiS4_RS4_PDuS6_RS6_
00752840 t .text$_ZNKSt7codecvtIDiDu9_MbstatetE9do_lengthERS0_PKDuS4_j
00752840 T __ZNKSt7codecvtIDiDu9_MbstatetE9do_lengthERS0_PKDuS4_j
007528b0 t .text$_ZNKSt7codecvtIDic9_MbstatetE5do_inERS0_PKcS4_RS4_PDiS6_RS6_
007528b0 T __ZNKSt7codecvtIDic9_MbstatetE5do_inERS0_PKcS4_RS4_PDiS6_RS6_
00752940 t .text$_ZNKSt7codecvtIDic9_MbstatetE6do_outERS0_PKDiS4_RS4_PcS6_RS6_
00752940 T __ZNKSt7codecvtIDic9_MbstatetE6do_outERS0_PKDiS4_RS4_PcS6_RS6_
007529c0 t .text$_ZNKSt7codecvtIDic9_MbstatetE9do_lengthERS0_PKcS4_j
007529c0 T __ZNKSt7codecvtIDic9_MbstatetE9do_lengthERS0_PKcS4_j
00752a30 t .text$_ZNKSt7codecvtIDsDu9_MbstatetE10do_unshiftERS0_PDuS3_RS3_
00752a30 T __ZNKSt7codecvtIDiDu9_MbstatetE10do_unshiftERS0_PDuS3_RS3_
00752a30 T __ZNKSt7codecvtIDsDu9_MbstatetE10do_unshiftERS0_PDuS3_RS3_
00752a50 t .text$_ZNKSt7codecvtIDsDu9_MbstatetE5do_inERS0_PKDuS4_RS4_PDsS6_RS6_
00752a50 T __ZNKSt7codecvtIDsDu9_MbstatetE5do_inERS0_PKDuS4_RS4_PDsS6_RS6_
00752b20 t .text$_ZNKSt7codecvtIDsDu9_MbstatetE6do_outERS0_PKDsS4_RS4_PDuS6_RS6_
00752b20 T __ZNKSt7codecvtIDsDu9_MbstatetE6do_outERS0_PKDsS4_RS4_PDuS6_RS6_
00752be0 t .text$_ZNKSt7codecvtIDsDu9_MbstatetE9do_lengthERS0_PKDuS4_j
00752be0 T __ZNKSt7codecvtIDsDu9_MbstatetE9do_lengthERS0_PKDuS4_j
00752c80 t .text$_ZNKSt7codecvtIDsc9_MbstatetE10do_unshiftERS0_PcS3_RS3_
00752c80 T __ZNKSt19__codecvt_utf8_baseIDiE10do_unshiftER9_MbstatetPcS3_RS3_
00752c80 T __ZNKSt19__codecvt_utf8_baseIDsE10do_unshiftER9_MbstatetPcS3_RS3_
00752c80 T __ZNKSt19__codecvt_utf8_baseIwE10do_unshiftER9_MbstatetPcS3_RS3_
00752c80 T __ZNKSt20__codecvt_utf16_baseIDiE10do_unshiftER9_MbstatetPcS3_RS3_
00752c80 T __ZNKSt20__codecvt_utf16_baseIDsE10do_unshiftER9_MbstatetPcS3_RS3_
00752c80 T __ZNKSt20__codecvt_utf16_baseIwE10do_unshiftER9_MbstatetPcS3_RS3_
00752c80 T __ZNKSt25__codecvt_utf8_utf16_baseIDiE10do_unshiftER9_MbstatetPcS3_RS3_
00752c80 T __ZNKSt25__codecvt_utf8_utf16_baseIDsE10do_unshiftER9_MbstatetPcS3_RS3_
00752c80 T __ZNKSt25__codecvt_utf8_utf16_baseIwE10do_unshiftER9_MbstatetPcS3_RS3_
00752c80 T __ZNKSt7codecvtIDic9_MbstatetE10do_unshiftERS0_PcS3_RS3_
00752c80 T __ZNKSt7codecvtIDsc9_MbstatetE10do_unshiftERS0_PcS3_RS3_
00752ca0 t .text$_ZNKSt7codecvtIDsc9_MbstatetE11do_encodingEv
00752ca0 T __ZNKSt19__codecvt_utf8_baseIDiE11do_encodingEv
00752ca0 T __ZNKSt19__codecvt_utf8_baseIDsE11do_encodingEv
00752ca0 T __ZNKSt19__codecvt_utf8_baseIwE11do_encodingEv
00752ca0 T __ZNKSt20__codecvt_utf16_baseIDiE11do_encodingEv
00752ca0 T __ZNKSt20__codecvt_utf16_baseIDsE11do_encodingEv
00752ca0 T __ZNKSt20__codecvt_utf16_baseIwE11do_encodingEv
00752ca0 T __ZNKSt25__codecvt_utf8_utf16_baseIDiE11do_encodingEv
00752ca0 T __ZNKSt25__codecvt_utf8_utf16_baseIDsE11do_encodingEv
00752ca0 T __ZNKSt25__codecvt_utf8_utf16_baseIwE11do_encodingEv
00752ca0 T __ZNKSt7codecvtIDic9_MbstatetE11do_encodingEv
00752ca0 T __ZNKSt7codecvtIDiDu9_MbstatetE11do_encodingEv
00752ca0 T __ZNKSt7codecvtIDsc9_MbstatetE11do_encodingEv
00752ca0 T __ZNKSt7codecvtIDsDu9_MbstatetE11do_encodingEv
00752cb0 t .text$_ZNKSt7codecvtIDsc9_MbstatetE13do_max_lengthEv
00752cb0 T __ZNKSt7codecvtIDic9_MbstatetE13do_max_lengthEv
00752cb0 T __ZNKSt7codecvtIDiDu9_MbstatetE13do_max_lengthEv
00752cb0 T __ZNKSt7codecvtIDsc9_MbstatetE13do_max_lengthEv
00752cb0 T __ZNKSt7codecvtIDsDu9_MbstatetE13do_max_lengthEv
00752cc0 t .text$_ZNKSt7codecvtIDsc9_MbstatetE16do_always_noconvEv
00752cc0 T __ZNKSt19__codecvt_utf8_baseIDiE16do_always_noconvEv
00752cc0 T __ZNKSt19__codecvt_utf8_baseIDsE16do_always_noconvEv
00752cc0 T __ZNKSt19__codecvt_utf8_baseIwE16do_always_noconvEv
00752cc0 T __ZNKSt20__codecvt_utf16_baseIDiE16do_always_noconvEv
00752cc0 T __ZNKSt20__codecvt_utf16_baseIDsE16do_always_noconvEv
00752cc0 T __ZNKSt20__codecvt_utf16_baseIwE16do_always_noconvEv
00752cc0 T __ZNKSt25__codecvt_utf8_utf16_baseIDiE16do_always_noconvEv
00752cc0 T __ZNKSt25__codecvt_utf8_utf16_baseIDsE16do_always_noconvEv
00752cc0 T __ZNKSt25__codecvt_utf8_utf16_baseIwE16do_always_noconvEv
00752cc0 T __ZNKSt7codecvtIDic9_MbstatetE16do_always_noconvEv
00752cc0 T __ZNKSt7codecvtIDiDu9_MbstatetE16do_always_noconvEv
00752cc0 T __ZNKSt7codecvtIDsc9_MbstatetE16do_always_noconvEv
00752cc0 T __ZNKSt7codecvtIDsDu9_MbstatetE16do_always_noconvEv
00752cd0 t .text$_ZNKSt7codecvtIDsc9_MbstatetE5do_inERS0_PKcS4_RS4_PDsS6_RS6_
00752cd0 T __ZNKSt7codecvtIDsc9_MbstatetE5do_inERS0_PKcS4_RS4_PDsS6_RS6_
00752d30 t .text$_ZNKSt7codecvtIDsc9_MbstatetE6do_outERS0_PKDsS4_RS4_PcS6_RS6_
00752d30 T __ZNKSt7codecvtIDsc9_MbstatetE6do_outERS0_PKDsS4_RS4_PcS6_RS6_
00752d90 t .text$_ZNKSt7codecvtIDsc9_MbstatetE9do_lengthERS0_PKcS4_j
00752d90 T __ZNKSt7codecvtIDsc9_MbstatetE9do_lengthERS0_PKcS4_j
00752e30 t .text$_ZNKSt7codecvtIcc9_MbstatetE10do_unshiftERS0_PcS3_RS3_
00752e30 T __ZNKSt7codecvtIcc9_MbstatetE10do_unshiftERS0_PcS3_RS3_
00752e30 T __ZNKSt7codecvtIwc9_MbstatetE10do_unshiftERS0_PcS3_RS3_
00752e50 t .text$_ZNKSt7codecvtIcc9_MbstatetE11do_encodingEv
00752e50 T __ZNKSt7codecvtIcc9_MbstatetE11do_encodingEv
00752e50 T __ZNKSt7codecvtIcc9_MbstatetE13do_max_lengthEv
00752e60 t .text$_ZNKSt7codecvtIcc9_MbstatetE16do_always_noconvEv
00752e60 T __ZNKSt7codecvtIcc9_MbstatetE16do_always_noconvEv
00752e70 t .text$_ZNKSt7codecvtIcc9_MbstatetE6do_outERS0_PKcS4_RS4_PcS6_RS6_
00752e70 T __ZNKSt7codecvtIcc9_MbstatetE5do_inERS0_PKcS4_RS4_PcS6_RS6_
00752e70 T __ZNKSt7codecvtIcc9_MbstatetE6do_outERS0_PKcS4_RS4_PcS6_RS6_
00752e90 t .text$_ZNKSt7codecvtIcc9_MbstatetE9do_lengthERS0_PKcS4_j
00752e90 T __ZNKSt7codecvtIcc9_MbstatetE9do_lengthERS0_PKcS4_j
00752eb0 t .text$_ZNKSt7codecvtIwc9_MbstatetE11do_encodingEv
00752eb0 T __ZNKSt7codecvtIwc9_MbstatetE11do_encodingEv
00752ed0 t .text$_ZNKSt7codecvtIwc9_MbstatetE13do_max_lengthEv
00752ed0 T __ZNKSt7codecvtIwc9_MbstatetE13do_max_lengthEv
00752ef0 t .text$_ZNKSt7codecvtIwc9_MbstatetE16do_always_noconvEv
00752ef0 T __ZNKSt7codecvtIwc9_MbstatetE16do_always_noconvEv
00752f00 t .text$_ZNKSt7codecvtIwc9_MbstatetE5do_inERS0_PKcS4_RS4_PwS6_RS6_
00752f00 T __ZNKSt7codecvtIwc9_MbstatetE5do_inERS0_PKcS4_RS4_PwS6_RS6_
00753000 t .text$_ZNKSt7codecvtIwc9_MbstatetE6do_outERS0_PKwS4_RS4_PcS6_RS6_
00753000 T __ZNKSt7codecvtIwc9_MbstatetE6do_outERS0_PKwS4_RS4_PcS6_RS6_
00753180 t .text$_ZNKSt7codecvtIwc9_MbstatetE9do_lengthERS0_PKcS4_j
00753180 T __ZNKSt7codecvtIwc9_MbstatetE9do_lengthERS0_PKcS4_j
00753230 t .text$_ZNKSt7collateIcE10_M_compareEPKcS2_
00753230 T __ZNKSt7collateIcE10_M_compareEPKcS2_
00753260 t .text$_ZNKSt7collateIcE10do_compareEPKcS2_S2_S2_
00753260 T __ZNKSt7collateIcE10do_compareEPKcS2_S2_S2_
007533b0 t .text$_ZNKSt7collateIcE12_M_transformEPcPKcj
007533b0 T __ZNKSt7collateIcE12_M_transformEPcPKcj
007533e0 t .text$_ZNKSt7collateIcE12do_transformEPKcS2_
007533e0 T __ZNKSt7collateIcE12do_transformEPKcS2_
00753670 t .text$_ZNKSt7collateIcE4hashEPKcS2_
00753670 T __ZNKSt7collateIcE4hashEPKcS2_
00753680 t .text$_ZNKSt7collateIcE7compareEPKcS2_S2_S2_
00753680 T __ZNKSt7collateIcE7compareEPKcS2_S2_S2_
00753690 t .text$_ZNKSt7collateIcE7do_hashEPKcS2_
00753690 T __ZNKSt7collateIcE7do_hashEPKcS2_
007536c0 t .text$_ZNKSt7collateIcE9transformEPKcS2_
007536c0 T __ZNKSt7collateIcE9transformEPKcS2_
007536f0 t .text$_ZNKSt7collateIwE10_M_compareEPKwS2_
007536f0 T __ZNKSt7collateIwE10_M_compareEPKwS2_
00753720 t .text$_ZNKSt7collateIwE10do_compareEPKwS2_S2_S2_
00753720 T __ZNKSt7collateIwE10do_compareEPKwS2_S2_S2_
00753880 t .text$_ZNKSt7collateIwE12_M_transformEPwPKwj
00753880 T __ZNKSt7collateIwE12_M_transformEPwPKwj
007538b0 t .text$_ZNKSt7collateIwE12do_transformEPKwS2_
007538b0 T __ZNKSt7collateIwE12do_transformEPKwS2_
00753b60 t .text$_ZNKSt7collateIwE4hashEPKwS2_
00753b60 T __ZNKSt7collateIwE4hashEPKwS2_
00753b70 t .text$_ZNKSt7collateIwE7compareEPKwS2_S2_S2_
00753b70 T __ZNKSt7collateIwE7compareEPKwS2_S2_S2_
00753b80 t .text$_ZNKSt7collateIwE7do_hashEPKwS2_
00753b80 T __ZNKSt7collateIwE7do_hashEPKwS2_
00753bb0 t .text$_ZNKSt7collateIwE9transformEPKwS2_
00753bb0 T __ZNKSt7collateIwE9transformEPKwS2_
00753be0 t .text$_ZNKSt7num_getIcSt19istreambuf_iteratorIcSt11char_traitsIcEEE14_M_extract_intB5cxx11IjEES3_S3_S3_RSt8ios_baseRSt12_Ios_IostateRT_
00753be0 T __ZNKSt7num_getIcSt19istreambuf_iteratorIcSt11char_traitsIcEEE14_M_extract_intB5cxx11IjEES3_S3_S3_RSt8ios_baseRSt12_Ios_IostateRT_
00754a70 t .text$_ZNKSt7num_getIcSt19istreambuf_iteratorIcSt11char_traitsIcEEE14_M_extract_intB5cxx11IlEES3_S3_S3_RSt8ios_baseRSt12_Ios_IostateRT_
00754a70 T __ZNKSt7num_getIcSt19istreambuf_iteratorIcSt11char_traitsIcEEE14_M_extract_intB5cxx11IlEES3_S3_S3_RSt8ios_baseRSt12_Ios_IostateRT_
00755920 t .text$_ZNKSt7num_getIcSt19istreambuf_iteratorIcSt11char_traitsIcEEE14_M_extract_intB5cxx11ImEES3_S3_S3_RSt8ios_baseRSt12_Ios_IostateRT_
00755920 T __ZNKSt7num_getIcSt19istreambuf_iteratorIcSt11char_traitsIcEEE14_M_extract_intB5cxx11ImEES3_S3_S3_RSt8ios_baseRSt12_Ios_IostateRT_
007567b0 t .text$_ZNKSt7num_getIcSt19istreambuf_iteratorIcSt11char_traitsIcEEE14_M_extract_intB5cxx11ItEES3_S3_S3_RSt8ios_baseRSt12_Ios_IostateRT_
007567b0 T __ZNKSt7num_getIcSt19istreambuf_iteratorIcSt11char_traitsIcEEE14_M_extract_intB5cxx11ItEES3_S3_S3_RSt8ios_baseRSt12_Ios_IostateRT_
00757660 t .text$_ZNKSt7num_getIcSt19istreambuf_iteratorIcSt11char_traitsIcEEE14_M_extract_intB5cxx11IxEES3_S3_S3_RSt8ios_baseRSt12_Ios_IostateRT_
00757660 T __ZNKSt7num_getIcSt19istreambuf_iteratorIcSt11char_traitsIcEEE14_M_extract_intB5cxx11IxEES3_S3_S3_RSt8ios_baseRSt12_Ios_IostateRT_
007585e0 t .text$_ZNKSt7num_getIcSt19istreambuf_iteratorIcSt11char_traitsIcEEE14_M_extract_intB5cxx11IyEES3_S3_S3_RSt8ios_baseRSt12_Ios_IostateRT_
007585e0 T __ZNKSt7num_getIcSt19istreambuf_iteratorIcSt11char_traitsIcEEE14_M_extract_intB5cxx11IyEES3_S3_S3_RSt8ios_baseRSt12_Ios_IostateRT_
00759520 t .text$_ZNKSt7num_getIcSt19istreambuf_iteratorIcSt11char_traitsIcEEE14_M_extract_intIjEES3_S3_S3_RSt8ios_baseRSt12_Ios_IostateRT_
00759520 T __ZNKSt7num_getIcSt19istreambuf_iteratorIcSt11char_traitsIcEEE14_M_extract_intIjEES3_S3_S3_RSt8ios_baseRSt12_Ios_IostateRT_
00759ef0 t .text$_ZNKSt7num_getIcSt19istreambuf_iteratorIcSt11char_traitsIcEEE14_M_extract_intIlEES3_S3_S3_RSt8ios_baseRSt12_Ios_IostateRT_
00759ef0 T __ZNKSt7num_getIcSt19istreambuf_iteratorIcSt11char_traitsIcEEE14_M_extract_intIlEES3_S3_S3_RSt8ios_baseRSt12_Ios_IostateRT_
0075a8e0 t .text$_ZNKSt7num_getIcSt19istreambuf_iteratorIcSt11char_traitsIcEEE14_M_extract_intImEES3_S3_S3_RSt8ios_baseRSt12_Ios_IostateRT_
0075a8e0 T __ZNKSt7num_getIcSt19istreambuf_iteratorIcSt11char_traitsIcEEE14_M_extract_intImEES3_S3_S3_RSt8ios_baseRSt12_Ios_IostateRT_
0075b2b0 t .text$_ZNKSt7num_getIcSt19istreambuf_iteratorIcSt11char_traitsIcEEE14_M_extract_intItEES3_S3_S3_RSt8ios_baseRSt12_Ios_IostateRT_
0075b2b0 T __ZNKSt7num_getIcSt19istreambuf_iteratorIcSt11char_traitsIcEEE14_M_extract_intItEES3_S3_S3_RSt8ios_baseRSt12_Ios_IostateRT_
0075bc80 t .text$_ZNKSt7num_getIcSt19istreambuf_iteratorIcSt11char_traitsIcEEE14_M_extract_intIxEES3_S3_S3_RSt8ios_baseRSt12_Ios_IostateRT_
0075bc80 T __ZNKSt7num_getIcSt19istreambuf_iteratorIcSt11char_traitsIcEEE14_M_extract_intIxEES3_S3_S3_RSt8ios_baseRSt12_Ios_IostateRT_
0075c740 t .text$_ZNKSt7num_getIcSt19istreambuf_iteratorIcSt11char_traitsIcEEE14_M_extract_intIyEES3_S3_S3_RSt8ios_baseRSt12_Ios_IostateRT_
0075c740 T __ZNKSt7num_getIcSt19istreambuf_iteratorIcSt11char_traitsIcEEE14_M_extract_intIyEES3_S3_S3_RSt8ios_baseRSt12_Ios_IostateRT_
